;
; File generated by cc65 v 2.19 - Git 5cb1bc6
;
	.fopt		compiler,"cc65 v 2.19 - Git 5cb1bc6"
	.setcpu		"6502"
	.smart		on
	.autoimport	on
	.case		on
	.debuginfo	off
	.importzp	sp, sreg, regsave, regbank
	.importzp	tmp1, tmp2, tmp3, tmp4, ptr1, ptr2, ptr3, ptr4
	.macpack	longbranch
	.forceimport	__STARTUP__
	.import		_pal_bg
	.import		_pal_spr
	.import		_ppu_wait_nmi
	.import		_ppu_off
	.import		_ppu_on_all
	.import		_oam_clear
	.import		_oam_spr
	.import		_pad_poll
	.import		_scroll
	.import		_vram_adr
	.import		_vram_fill
	.import		_vram_write
	.import		_get_pad_new
	.export		_Level1Data
	.export		_Level2Data
	.export		_Level3Data
	.export		_Level1A
	.export		_Level1B
	.export		_Level2A
	.export		_Level2B
	.export		_Level3A
	.export		_Level3B
	.export		_palette
	.export		_spritePalette
	.export		_currentGameState
	.export		_text
	.export		_titlePrompt
	.export		_endScreenTitle
	.export		_endScreenPrompt
	.export		_inputPad
	.export		_movementPad
	.export		_playerX
	.export		_playerY
	.export		_scrollX
	.export		_facingRight
	.export		_velocityY
	.export		_isJumping
	.export		_isDashing
	.export		_dashTimer
	.export		_dashCooldown
	.export		_hasDashedInAir
	.export		_dashDirection
	.export		_i
	.export		_currentLevel
	.export		_changeLevel
	.export		_currentLevelData
	.export		_gameOver
	.export		_DrawTitleScreen
	.export		_GameLoop
	.export		_MovePlayer
	.export		_DrawPlayer
	.export		_GetTileIndex
	.export		_CheckIfEnd
	.export		_DrawEndScreen
	.export		_OnGround
	.export		_checkIfCollidableTile
	.export		_HandleRightMovement
	.export		_HandleLeftMovement
	.export		_checkIfGoalTile
	.export		_main

.segment	"DATA"

_currentGameState:
	.byte	$00
_playerX:
	.word	$001e
_playerY:
	.word	$00d7
_scrollX:
	.word	$0000
_facingRight:
	.byte	$01
_velocityY:
	.word	$0000
_isJumping:
	.byte	$00
_isDashing:
	.word	$0000
_dashTimer:
	.byte	$00
_dashCooldown:
	.byte	$00
_hasDashedInAir:
	.byte	$00
_dashDirection:
	.word	$0000
_i:
	.word	$0000
_currentLevel:
	.word	$0001
_changeLevel:
	.word	$0001
_gameOver:
	.word	$0000

.segment	"RODATA"

_Level1Data:
	.byte	$82
	.byte	$81
	.byte	$80
	.byte	$81
	.byte	$80
	.byte	$81
	.byte	$80
	.byte	$81
	.byte	$80
	.byte	$81
	.byte	$80
	.byte	$81
	.byte	$80
	.byte	$81
	.byte	$80
	.byte	$81
	.byte	$80
	.byte	$81
	.byte	$80
	.byte	$81
	.byte	$80
	.byte	$81
	.byte	$80
	.byte	$81
	.byte	$80
	.byte	$81
	.byte	$80
	.byte	$81
	.byte	$80
	.byte	$81
	.byte	$80
	.byte	$81
	.byte	$80
	.byte	$81
	.byte	$80
	.byte	$81
	.byte	$80
	.byte	$81
	.byte	$80
	.byte	$81
	.byte	$80
	.byte	$81
	.byte	$80
	.byte	$81
	.byte	$80
	.byte	$81
	.byte	$80
	.byte	$81
	.byte	$80
	.byte	$81
	.byte	$80
	.byte	$81
	.byte	$80
	.byte	$81
	.byte	$80
	.byte	$81
	.byte	$80
	.byte	$81
	.byte	$80
	.byte	$81
	.byte	$80
	.byte	$81
	.byte	$80
	.byte	$83
	.byte	$92
	.byte	$91
	.byte	$90
	.byte	$91
	.byte	$90
	.byte	$91
	.byte	$90
	.byte	$91
	.byte	$90
	.byte	$91
	.byte	$90
	.byte	$91
	.byte	$90
	.byte	$91
	.byte	$90
	.byte	$91
	.byte	$90
	.byte	$91
	.byte	$90
	.byte	$91
	.byte	$90
	.byte	$91
	.byte	$90
	.byte	$91
	.byte	$90
	.byte	$91
	.byte	$90
	.byte	$91
	.byte	$90
	.byte	$91
	.byte	$90
	.byte	$91
	.byte	$90
	.byte	$91
	.byte	$90
	.byte	$91
	.byte	$90
	.byte	$91
	.byte	$90
	.byte	$91
	.byte	$90
	.byte	$91
	.byte	$90
	.byte	$91
	.byte	$90
	.byte	$91
	.byte	$90
	.byte	$91
	.byte	$90
	.byte	$91
	.byte	$90
	.byte	$91
	.byte	$90
	.byte	$91
	.byte	$90
	.byte	$91
	.byte	$90
	.byte	$91
	.byte	$90
	.byte	$91
	.byte	$90
	.byte	$91
	.byte	$90
	.byte	$93
	.byte	$82
	.byte	$83
	.byte	$01
	.byte	$01
	.byte	$01
	.byte	$01
	.byte	$01
	.byte	$01
	.byte	$01
	.byte	$01
	.byte	$01
	.byte	$01
	.byte	$01
	.byte	$01
	.byte	$01
	.byte	$01
	.byte	$01
	.byte	$01
	.byte	$01
	.byte	$01
	.byte	$01
	.byte	$01
	.byte	$01
	.byte	$01
	.byte	$01
	.byte	$01
	.byte	$01
	.byte	$01
	.byte	$01
	.byte	$01
	.byte	$01
	.byte	$01
	.byte	$01
	.byte	$01
	.byte	$01
	.byte	$01
	.byte	$01
	.byte	$01
	.byte	$01
	.byte	$01
	.byte	$01
	.byte	$01
	.byte	$01
	.byte	$01
	.byte	$01
	.byte	$01
	.byte	$01
	.byte	$01
	.byte	$01
	.byte	$01
	.byte	$01
	.byte	$01
	.byte	$01
	.byte	$01
	.byte	$01
	.byte	$01
	.byte	$01
	.byte	$01
	.byte	$01
	.byte	$01
	.byte	$01
	.byte	$01
	.byte	$82
	.byte	$83
	.byte	$92
	.byte	$93
	.byte	$01
	.byte	$01
	.byte	$01
	.byte	$01
	.byte	$01
	.byte	$01
	.byte	$01
	.byte	$01
	.byte	$01
	.byte	$01
	.byte	$01
	.byte	$01
	.byte	$01
	.byte	$01
	.byte	$01
	.byte	$01
	.byte	$01
	.byte	$01
	.byte	$01
	.byte	$01
	.byte	$01
	.byte	$01
	.byte	$01
	.byte	$01
	.byte	$01
	.byte	$01
	.byte	$01
	.byte	$01
	.byte	$01
	.byte	$01
	.byte	$01
	.byte	$01
	.byte	$01
	.byte	$01
	.byte	$01
	.byte	$01
	.byte	$01
	.byte	$01
	.byte	$01
	.byte	$01
	.byte	$01
	.byte	$01
	.byte	$01
	.byte	$01
	.byte	$01
	.byte	$01
	.byte	$01
	.byte	$01
	.byte	$01
	.byte	$01
	.byte	$01
	.byte	$01
	.byte	$01
	.byte	$01
	.byte	$01
	.byte	$01
	.byte	$01
	.byte	$01
	.byte	$01
	.byte	$01
	.byte	$92
	.byte	$93
	.byte	$82
	.byte	$83
	.byte	$01
	.byte	$01
	.byte	$01
	.byte	$01
	.byte	$01
	.byte	$01
	.byte	$01
	.byte	$01
	.byte	$01
	.byte	$01
	.byte	$01
	.byte	$01
	.byte	$01
	.byte	$01
	.byte	$01
	.byte	$01
	.byte	$01
	.byte	$01
	.byte	$01
	.byte	$01
	.byte	$01
	.byte	$01
	.byte	$01
	.byte	$01
	.byte	$01
	.byte	$01
	.byte	$01
	.byte	$01
	.byte	$01
	.byte	$01
	.byte	$01
	.byte	$01
	.byte	$01
	.byte	$01
	.byte	$01
	.byte	$01
	.byte	$01
	.byte	$01
	.byte	$01
	.byte	$01
	.byte	$01
	.byte	$01
	.byte	$01
	.byte	$01
	.byte	$01
	.byte	$01
	.byte	$01
	.byte	$01
	.byte	$01
	.byte	$01
	.byte	$01
	.byte	$01
	.byte	$01
	.byte	$01
	.byte	$01
	.byte	$01
	.byte	$01
	.byte	$01
	.byte	$01
	.byte	$01
	.byte	$82
	.byte	$83
	.byte	$92
	.byte	$93
	.byte	$01
	.byte	$01
	.byte	$01
	.byte	$01
	.byte	$01
	.byte	$01
	.byte	$01
	.byte	$01
	.byte	$01
	.byte	$01
	.byte	$01
	.byte	$01
	.byte	$01
	.byte	$01
	.byte	$01
	.byte	$01
	.byte	$01
	.byte	$01
	.byte	$01
	.byte	$01
	.byte	$01
	.byte	$01
	.byte	$01
	.byte	$01
	.byte	$01
	.byte	$01
	.byte	$01
	.byte	$01
	.byte	$01
	.byte	$01
	.byte	$01
	.byte	$01
	.byte	$01
	.byte	$01
	.byte	$01
	.byte	$01
	.byte	$01
	.byte	$01
	.byte	$01
	.byte	$01
	.byte	$01
	.byte	$01
	.byte	$01
	.byte	$01
	.byte	$01
	.byte	$01
	.byte	$01
	.byte	$01
	.byte	$01
	.byte	$01
	.byte	$01
	.byte	$01
	.byte	$01
	.byte	$01
	.byte	$01
	.byte	$01
	.byte	$01
	.byte	$01
	.byte	$01
	.byte	$01
	.byte	$92
	.byte	$93
	.byte	$82
	.byte	$83
	.byte	$01
	.byte	$01
	.byte	$01
	.byte	$01
	.byte	$01
	.byte	$01
	.byte	$01
	.byte	$01
	.byte	$01
	.byte	$01
	.byte	$01
	.byte	$01
	.byte	$01
	.byte	$01
	.byte	$01
	.byte	$01
	.byte	$01
	.byte	$01
	.byte	$01
	.byte	$01
	.byte	$01
	.byte	$01
	.byte	$01
	.byte	$01
	.byte	$01
	.byte	$01
	.byte	$01
	.byte	$01
	.byte	$01
	.byte	$01
	.byte	$01
	.byte	$01
	.byte	$01
	.byte	$01
	.byte	$01
	.byte	$01
	.byte	$01
	.byte	$01
	.byte	$01
	.byte	$01
	.byte	$01
	.byte	$01
	.byte	$01
	.byte	$01
	.byte	$01
	.byte	$01
	.byte	$01
	.byte	$01
	.byte	$01
	.byte	$01
	.byte	$01
	.byte	$01
	.byte	$06
	.byte	$07
	.byte	$01
	.byte	$01
	.byte	$01
	.byte	$01
	.byte	$01
	.byte	$01
	.byte	$82
	.byte	$83
	.byte	$92
	.byte	$93
	.byte	$01
	.byte	$01
	.byte	$01
	.byte	$01
	.byte	$01
	.byte	$01
	.byte	$01
	.byte	$01
	.byte	$01
	.byte	$01
	.byte	$01
	.byte	$01
	.byte	$01
	.byte	$01
	.byte	$01
	.byte	$01
	.byte	$01
	.byte	$01
	.byte	$01
	.byte	$01
	.byte	$01
	.byte	$01
	.byte	$01
	.byte	$01
	.byte	$01
	.byte	$01
	.byte	$01
	.byte	$01
	.byte	$01
	.byte	$01
	.byte	$01
	.byte	$01
	.byte	$01
	.byte	$01
	.byte	$01
	.byte	$01
	.byte	$01
	.byte	$01
	.byte	$01
	.byte	$01
	.byte	$01
	.byte	$01
	.byte	$01
	.byte	$01
	.byte	$01
	.byte	$01
	.byte	$01
	.byte	$01
	.byte	$01
	.byte	$01
	.byte	$01
	.byte	$01
	.byte	$16
	.byte	$17
	.byte	$01
	.byte	$01
	.byte	$01
	.byte	$01
	.byte	$01
	.byte	$01
	.byte	$92
	.byte	$93
	.byte	$82
	.byte	$83
	.byte	$01
	.byte	$01
	.byte	$01
	.byte	$01
	.byte	$01
	.byte	$01
	.byte	$01
	.byte	$01
	.byte	$01
	.byte	$01
	.byte	$01
	.byte	$01
	.byte	$01
	.byte	$01
	.byte	$01
	.byte	$01
	.byte	$01
	.byte	$01
	.byte	$01
	.byte	$01
	.byte	$01
	.byte	$01
	.byte	$01
	.byte	$01
	.byte	$01
	.byte	$01
	.byte	$01
	.byte	$01
	.byte	$01
	.byte	$01
	.byte	$01
	.byte	$01
	.byte	$01
	.byte	$01
	.byte	$01
	.byte	$01
	.byte	$01
	.byte	$01
	.byte	$01
	.byte	$01
	.byte	$01
	.byte	$01
	.byte	$01
	.byte	$01
	.byte	$01
	.byte	$01
	.byte	$01
	.byte	$01
	.byte	$01
	.byte	$01
	.byte	$82
	.byte	$81
	.byte	$80
	.byte	$81
	.byte	$80
	.byte	$83
	.byte	$01
	.byte	$01
	.byte	$01
	.byte	$01
	.byte	$82
	.byte	$83
	.byte	$92
	.byte	$93
	.byte	$01
	.byte	$01
	.byte	$01
	.byte	$01
	.byte	$01
	.byte	$01
	.byte	$01
	.byte	$01
	.byte	$01
	.byte	$01
	.byte	$01
	.byte	$01
	.byte	$01
	.byte	$01
	.byte	$01
	.byte	$01
	.byte	$01
	.byte	$01
	.byte	$01
	.byte	$01
	.byte	$01
	.byte	$01
	.byte	$01
	.byte	$01
	.byte	$01
	.byte	$01
	.byte	$01
	.byte	$01
	.byte	$01
	.byte	$01
	.byte	$01
	.byte	$01
	.byte	$01
	.byte	$01
	.byte	$01
	.byte	$01
	.byte	$01
	.byte	$01
	.byte	$01
	.byte	$01
	.byte	$01
	.byte	$01
	.byte	$01
	.byte	$01
	.byte	$01
	.byte	$01
	.byte	$01
	.byte	$01
	.byte	$01
	.byte	$01
	.byte	$92
	.byte	$91
	.byte	$90
	.byte	$91
	.byte	$90
	.byte	$93
	.byte	$01
	.byte	$01
	.byte	$01
	.byte	$01
	.byte	$92
	.byte	$93
	.byte	$82
	.byte	$83
	.byte	$82
	.byte	$81
	.byte	$80
	.byte	$81
	.byte	$80
	.byte	$81
	.byte	$80
	.byte	$83
	.byte	$01
	.byte	$01
	.byte	$01
	.byte	$01
	.byte	$01
	.byte	$01
	.byte	$01
	.byte	$01
	.byte	$01
	.byte	$01
	.byte	$01
	.byte	$01
	.byte	$01
	.byte	$01
	.byte	$01
	.byte	$01
	.byte	$01
	.byte	$01
	.byte	$01
	.byte	$01
	.byte	$01
	.byte	$01
	.byte	$01
	.byte	$01
	.byte	$01
	.byte	$01
	.byte	$01
	.byte	$01
	.byte	$01
	.byte	$01
	.byte	$01
	.byte	$01
	.byte	$01
	.byte	$01
	.byte	$01
	.byte	$01
	.byte	$01
	.byte	$01
	.byte	$01
	.byte	$01
	.byte	$01
	.byte	$01
	.byte	$01
	.byte	$01
	.byte	$01
	.byte	$01
	.byte	$01
	.byte	$01
	.byte	$01
	.byte	$01
	.byte	$01
	.byte	$01
	.byte	$82
	.byte	$83
	.byte	$92
	.byte	$93
	.byte	$92
	.byte	$91
	.byte	$90
	.byte	$91
	.byte	$90
	.byte	$91
	.byte	$90
	.byte	$93
	.byte	$01
	.byte	$01
	.byte	$01
	.byte	$01
	.byte	$01
	.byte	$01
	.byte	$01
	.byte	$01
	.byte	$01
	.byte	$01
	.byte	$01
	.byte	$01
	.byte	$01
	.byte	$01
	.byte	$01
	.byte	$01
	.byte	$01
	.byte	$01
	.byte	$01
	.byte	$01
	.byte	$01
	.byte	$01
	.byte	$01
	.byte	$01
	.byte	$01
	.byte	$01
	.byte	$01
	.byte	$01
	.byte	$01
	.byte	$01
	.byte	$01
	.byte	$01
	.byte	$01
	.byte	$01
	.byte	$01
	.byte	$01
	.byte	$01
	.byte	$01
	.byte	$01
	.byte	$01
	.byte	$01
	.byte	$01
	.byte	$01
	.byte	$01
	.byte	$01
	.byte	$01
	.byte	$01
	.byte	$01
	.byte	$01
	.byte	$01
	.byte	$01
	.byte	$01
	.byte	$92
	.byte	$93
	.byte	$82
	.byte	$83
	.byte	$01
	.byte	$01
	.byte	$01
	.byte	$01
	.byte	$01
	.byte	$01
	.byte	$01
	.byte	$01
	.byte	$01
	.byte	$01
	.byte	$01
	.byte	$01
	.byte	$01
	.byte	$01
	.byte	$01
	.byte	$01
	.byte	$01
	.byte	$01
	.byte	$01
	.byte	$01
	.byte	$01
	.byte	$01
	.byte	$01
	.byte	$01
	.byte	$01
	.byte	$01
	.byte	$01
	.byte	$01
	.byte	$01
	.byte	$01
	.byte	$01
	.byte	$01
	.byte	$01
	.byte	$01
	.byte	$01
	.byte	$01
	.byte	$01
	.byte	$01
	.byte	$01
	.byte	$01
	.byte	$82
	.byte	$81
	.byte	$80
	.byte	$81
	.byte	$80
	.byte	$83
	.byte	$01
	.byte	$01
	.byte	$01
	.byte	$01
	.byte	$01
	.byte	$01
	.byte	$01
	.byte	$01
	.byte	$01
	.byte	$01
	.byte	$01
	.byte	$01
	.byte	$01
	.byte	$01
	.byte	$82
	.byte	$83
	.byte	$92
	.byte	$93
	.byte	$01
	.byte	$01
	.byte	$01
	.byte	$01
	.byte	$01
	.byte	$01
	.byte	$01
	.byte	$01
	.byte	$01
	.byte	$01
	.byte	$01
	.byte	$01
	.byte	$01
	.byte	$01
	.byte	$01
	.byte	$01
	.byte	$01
	.byte	$01
	.byte	$01
	.byte	$01
	.byte	$01
	.byte	$01
	.byte	$01
	.byte	$01
	.byte	$01
	.byte	$01
	.byte	$01
	.byte	$01
	.byte	$01
	.byte	$01
	.byte	$01
	.byte	$01
	.byte	$01
	.byte	$01
	.byte	$01
	.byte	$01
	.byte	$01
	.byte	$01
	.byte	$01
	.byte	$01
	.byte	$92
	.byte	$91
	.byte	$90
	.byte	$91
	.byte	$90
	.byte	$93
	.byte	$01
	.byte	$01
	.byte	$01
	.byte	$01
	.byte	$01
	.byte	$01
	.byte	$01
	.byte	$01
	.byte	$01
	.byte	$01
	.byte	$01
	.byte	$01
	.byte	$01
	.byte	$01
	.byte	$92
	.byte	$93
	.byte	$82
	.byte	$83
	.byte	$01
	.byte	$01
	.byte	$01
	.byte	$01
	.byte	$01
	.byte	$01
	.byte	$82
	.byte	$81
	.byte	$80
	.byte	$81
	.byte	$80
	.byte	$81
	.byte	$80
	.byte	$83
	.byte	$01
	.byte	$01
	.byte	$01
	.byte	$01
	.byte	$01
	.byte	$01
	.byte	$01
	.byte	$01
	.byte	$01
	.byte	$01
	.byte	$01
	.byte	$01
	.byte	$01
	.byte	$01
	.byte	$01
	.byte	$01
	.byte	$01
	.byte	$01
	.byte	$01
	.byte	$01
	.byte	$01
	.byte	$01
	.byte	$01
	.byte	$01
	.byte	$01
	.byte	$01
	.byte	$01
	.byte	$01
	.byte	$01
	.byte	$01
	.byte	$01
	.byte	$01
	.byte	$01
	.byte	$01
	.byte	$01
	.byte	$01
	.byte	$01
	.byte	$01
	.byte	$01
	.byte	$01
	.byte	$01
	.byte	$01
	.byte	$01
	.byte	$01
	.byte	$01
	.byte	$01
	.byte	$82
	.byte	$83
	.byte	$92
	.byte	$93
	.byte	$01
	.byte	$01
	.byte	$01
	.byte	$01
	.byte	$01
	.byte	$01
	.byte	$92
	.byte	$91
	.byte	$90
	.byte	$91
	.byte	$90
	.byte	$91
	.byte	$90
	.byte	$93
	.byte	$01
	.byte	$01
	.byte	$01
	.byte	$01
	.byte	$01
	.byte	$01
	.byte	$01
	.byte	$01
	.byte	$01
	.byte	$01
	.byte	$01
	.byte	$01
	.byte	$01
	.byte	$01
	.byte	$01
	.byte	$01
	.byte	$01
	.byte	$01
	.byte	$01
	.byte	$01
	.byte	$01
	.byte	$01
	.byte	$01
	.byte	$01
	.byte	$01
	.byte	$01
	.byte	$01
	.byte	$01
	.byte	$01
	.byte	$01
	.byte	$01
	.byte	$01
	.byte	$01
	.byte	$01
	.byte	$01
	.byte	$01
	.byte	$01
	.byte	$01
	.byte	$01
	.byte	$01
	.byte	$01
	.byte	$01
	.byte	$01
	.byte	$01
	.byte	$01
	.byte	$01
	.byte	$92
	.byte	$93
	.byte	$82
	.byte	$83
	.byte	$01
	.byte	$01
	.byte	$01
	.byte	$01
	.byte	$01
	.byte	$01
	.byte	$01
	.byte	$01
	.byte	$01
	.byte	$01
	.byte	$01
	.byte	$01
	.byte	$01
	.byte	$01
	.byte	$01
	.byte	$01
	.byte	$01
	.byte	$01
	.byte	$01
	.byte	$01
	.byte	$01
	.byte	$01
	.byte	$01
	.byte	$01
	.byte	$01
	.byte	$01
	.byte	$01
	.byte	$01
	.byte	$01
	.byte	$01
	.byte	$82
	.byte	$81
	.byte	$80
	.byte	$81
	.byte	$80
	.byte	$83
	.byte	$01
	.byte	$01
	.byte	$01
	.byte	$01
	.byte	$01
	.byte	$01
	.byte	$01
	.byte	$01
	.byte	$01
	.byte	$01
	.byte	$01
	.byte	$01
	.byte	$01
	.byte	$01
	.byte	$01
	.byte	$01
	.byte	$01
	.byte	$01
	.byte	$01
	.byte	$01
	.byte	$01
	.byte	$01
	.byte	$01
	.byte	$01
	.byte	$82
	.byte	$83
	.byte	$92
	.byte	$93
	.byte	$01
	.byte	$01
	.byte	$01
	.byte	$01
	.byte	$01
	.byte	$01
	.byte	$01
	.byte	$01
	.byte	$01
	.byte	$01
	.byte	$01
	.byte	$01
	.byte	$01
	.byte	$01
	.byte	$01
	.byte	$01
	.byte	$01
	.byte	$01
	.byte	$01
	.byte	$01
	.byte	$01
	.byte	$01
	.byte	$01
	.byte	$01
	.byte	$01
	.byte	$01
	.byte	$01
	.byte	$01
	.byte	$01
	.byte	$01
	.byte	$92
	.byte	$91
	.byte	$90
	.byte	$91
	.byte	$90
	.byte	$93
	.byte	$01
	.byte	$01
	.byte	$01
	.byte	$01
	.byte	$01
	.byte	$01
	.byte	$01
	.byte	$01
	.byte	$01
	.byte	$01
	.byte	$01
	.byte	$01
	.byte	$01
	.byte	$01
	.byte	$01
	.byte	$01
	.byte	$01
	.byte	$01
	.byte	$01
	.byte	$01
	.byte	$01
	.byte	$01
	.byte	$01
	.byte	$01
	.byte	$92
	.byte	$93
	.byte	$82
	.byte	$83
	.byte	$01
	.byte	$01
	.byte	$01
	.byte	$01
	.byte	$01
	.byte	$01
	.byte	$01
	.byte	$01
	.byte	$01
	.byte	$01
	.byte	$01
	.byte	$01
	.byte	$01
	.byte	$01
	.byte	$01
	.byte	$01
	.byte	$01
	.byte	$01
	.byte	$82
	.byte	$81
	.byte	$80
	.byte	$81
	.byte	$80
	.byte	$81
	.byte	$80
	.byte	$83
	.byte	$01
	.byte	$01
	.byte	$01
	.byte	$01
	.byte	$01
	.byte	$01
	.byte	$01
	.byte	$01
	.byte	$01
	.byte	$01
	.byte	$01
	.byte	$01
	.byte	$01
	.byte	$01
	.byte	$01
	.byte	$01
	.byte	$01
	.byte	$01
	.byte	$82
	.byte	$81
	.byte	$80
	.byte	$81
	.byte	$80
	.byte	$83
	.byte	$01
	.byte	$01
	.byte	$01
	.byte	$01
	.byte	$01
	.byte	$01
	.byte	$01
	.byte	$01
	.byte	$01
	.byte	$01
	.byte	$82
	.byte	$83
	.byte	$92
	.byte	$93
	.byte	$01
	.byte	$01
	.byte	$01
	.byte	$01
	.byte	$01
	.byte	$01
	.byte	$01
	.byte	$01
	.byte	$01
	.byte	$01
	.byte	$01
	.byte	$01
	.byte	$01
	.byte	$01
	.byte	$01
	.byte	$01
	.byte	$01
	.byte	$01
	.byte	$92
	.byte	$91
	.byte	$90
	.byte	$91
	.byte	$90
	.byte	$91
	.byte	$90
	.byte	$93
	.byte	$01
	.byte	$01
	.byte	$01
	.byte	$01
	.byte	$01
	.byte	$01
	.byte	$01
	.byte	$01
	.byte	$01
	.byte	$01
	.byte	$01
	.byte	$01
	.byte	$01
	.byte	$01
	.byte	$01
	.byte	$01
	.byte	$01
	.byte	$01
	.byte	$92
	.byte	$91
	.byte	$90
	.byte	$91
	.byte	$90
	.byte	$93
	.byte	$01
	.byte	$01
	.byte	$01
	.byte	$01
	.byte	$01
	.byte	$01
	.byte	$01
	.byte	$01
	.byte	$01
	.byte	$01
	.byte	$92
	.byte	$93
	.byte	$82
	.byte	$83
	.byte	$01
	.byte	$01
	.byte	$01
	.byte	$01
	.byte	$01
	.byte	$01
	.byte	$01
	.byte	$01
	.byte	$01
	.byte	$01
	.byte	$01
	.byte	$01
	.byte	$01
	.byte	$01
	.byte	$01
	.byte	$01
	.byte	$01
	.byte	$01
	.byte	$01
	.byte	$01
	.byte	$01
	.byte	$01
	.byte	$01
	.byte	$01
	.byte	$01
	.byte	$01
	.byte	$01
	.byte	$01
	.byte	$01
	.byte	$01
	.byte	$01
	.byte	$01
	.byte	$01
	.byte	$01
	.byte	$01
	.byte	$01
	.byte	$01
	.byte	$01
	.byte	$01
	.byte	$01
	.byte	$01
	.byte	$01
	.byte	$01
	.byte	$01
	.byte	$01
	.byte	$01
	.byte	$01
	.byte	$01
	.byte	$01
	.byte	$01
	.byte	$01
	.byte	$01
	.byte	$01
	.byte	$01
	.byte	$01
	.byte	$01
	.byte	$01
	.byte	$01
	.byte	$01
	.byte	$01
	.byte	$82
	.byte	$83
	.byte	$92
	.byte	$93
	.byte	$01
	.byte	$01
	.byte	$01
	.byte	$01
	.byte	$01
	.byte	$01
	.byte	$01
	.byte	$01
	.byte	$01
	.byte	$01
	.byte	$01
	.byte	$01
	.byte	$01
	.byte	$01
	.byte	$01
	.byte	$01
	.byte	$01
	.byte	$01
	.byte	$01
	.byte	$01
	.byte	$01
	.byte	$01
	.byte	$01
	.byte	$01
	.byte	$01
	.byte	$01
	.byte	$01
	.byte	$01
	.byte	$01
	.byte	$01
	.byte	$01
	.byte	$01
	.byte	$01
	.byte	$01
	.byte	$01
	.byte	$01
	.byte	$01
	.byte	$01
	.byte	$01
	.byte	$01
	.byte	$01
	.byte	$01
	.byte	$01
	.byte	$01
	.byte	$01
	.byte	$01
	.byte	$01
	.byte	$01
	.byte	$01
	.byte	$01
	.byte	$01
	.byte	$01
	.byte	$01
	.byte	$01
	.byte	$01
	.byte	$01
	.byte	$01
	.byte	$01
	.byte	$01
	.byte	$01
	.byte	$92
	.byte	$93
	.byte	$82
	.byte	$83
	.byte	$01
	.byte	$01
	.byte	$01
	.byte	$01
	.byte	$01
	.byte	$01
	.byte	$01
	.byte	$01
	.byte	$82
	.byte	$81
	.byte	$80
	.byte	$81
	.byte	$80
	.byte	$81
	.byte	$80
	.byte	$83
	.byte	$01
	.byte	$01
	.byte	$01
	.byte	$01
	.byte	$01
	.byte	$01
	.byte	$01
	.byte	$01
	.byte	$01
	.byte	$01
	.byte	$01
	.byte	$01
	.byte	$01
	.byte	$01
	.byte	$01
	.byte	$01
	.byte	$01
	.byte	$01
	.byte	$01
	.byte	$01
	.byte	$01
	.byte	$01
	.byte	$01
	.byte	$01
	.byte	$01
	.byte	$01
	.byte	$01
	.byte	$01
	.byte	$01
	.byte	$01
	.byte	$01
	.byte	$01
	.byte	$01
	.byte	$01
	.byte	$01
	.byte	$01
	.byte	$01
	.byte	$01
	.byte	$82
	.byte	$81
	.byte	$80
	.byte	$81
	.byte	$80
	.byte	$83
	.byte	$82
	.byte	$83
	.byte	$92
	.byte	$93
	.byte	$01
	.byte	$01
	.byte	$01
	.byte	$01
	.byte	$01
	.byte	$01
	.byte	$01
	.byte	$01
	.byte	$92
	.byte	$91
	.byte	$90
	.byte	$91
	.byte	$90
	.byte	$91
	.byte	$90
	.byte	$93
	.byte	$01
	.byte	$01
	.byte	$01
	.byte	$01
	.byte	$01
	.byte	$01
	.byte	$01
	.byte	$01
	.byte	$01
	.byte	$01
	.byte	$01
	.byte	$01
	.byte	$01
	.byte	$01
	.byte	$01
	.byte	$01
	.byte	$01
	.byte	$01
	.byte	$01
	.byte	$01
	.byte	$01
	.byte	$01
	.byte	$01
	.byte	$01
	.byte	$01
	.byte	$01
	.byte	$01
	.byte	$01
	.byte	$01
	.byte	$01
	.byte	$01
	.byte	$01
	.byte	$01
	.byte	$01
	.byte	$01
	.byte	$01
	.byte	$01
	.byte	$01
	.byte	$92
	.byte	$91
	.byte	$90
	.byte	$91
	.byte	$90
	.byte	$93
	.byte	$92
	.byte	$93
	.byte	$82
	.byte	$83
	.byte	$01
	.byte	$01
	.byte	$01
	.byte	$01
	.byte	$01
	.byte	$01
	.byte	$01
	.byte	$01
	.byte	$01
	.byte	$01
	.byte	$01
	.byte	$01
	.byte	$01
	.byte	$01
	.byte	$01
	.byte	$01
	.byte	$01
	.byte	$01
	.byte	$01
	.byte	$01
	.byte	$01
	.byte	$01
	.byte	$01
	.byte	$01
	.byte	$01
	.byte	$01
	.byte	$01
	.byte	$01
	.byte	$01
	.byte	$01
	.byte	$01
	.byte	$01
	.byte	$01
	.byte	$01
	.byte	$01
	.byte	$01
	.byte	$01
	.byte	$01
	.byte	$01
	.byte	$01
	.byte	$01
	.byte	$01
	.byte	$01
	.byte	$01
	.byte	$01
	.byte	$01
	.byte	$01
	.byte	$01
	.byte	$01
	.byte	$01
	.byte	$01
	.byte	$01
	.byte	$01
	.byte	$01
	.byte	$01
	.byte	$01
	.byte	$01
	.byte	$01
	.byte	$01
	.byte	$01
	.byte	$82
	.byte	$83
	.byte	$92
	.byte	$93
	.byte	$01
	.byte	$01
	.byte	$01
	.byte	$01
	.byte	$01
	.byte	$01
	.byte	$01
	.byte	$01
	.byte	$01
	.byte	$01
	.byte	$01
	.byte	$01
	.byte	$01
	.byte	$01
	.byte	$01
	.byte	$01
	.byte	$01
	.byte	$01
	.byte	$01
	.byte	$01
	.byte	$01
	.byte	$01
	.byte	$01
	.byte	$01
	.byte	$01
	.byte	$01
	.byte	$01
	.byte	$01
	.byte	$01
	.byte	$01
	.byte	$01
	.byte	$01
	.byte	$01
	.byte	$01
	.byte	$01
	.byte	$01
	.byte	$01
	.byte	$01
	.byte	$01
	.byte	$01
	.byte	$01
	.byte	$01
	.byte	$01
	.byte	$01
	.byte	$01
	.byte	$01
	.byte	$01
	.byte	$01
	.byte	$01
	.byte	$01
	.byte	$01
	.byte	$01
	.byte	$01
	.byte	$01
	.byte	$01
	.byte	$01
	.byte	$01
	.byte	$01
	.byte	$01
	.byte	$01
	.byte	$92
	.byte	$93
	.byte	$82
	.byte	$83
	.byte	$01
	.byte	$01
	.byte	$01
	.byte	$01
	.byte	$01
	.byte	$01
	.byte	$01
	.byte	$01
	.byte	$01
	.byte	$01
	.byte	$01
	.byte	$01
	.byte	$01
	.byte	$01
	.byte	$01
	.byte	$01
	.byte	$01
	.byte	$01
	.byte	$01
	.byte	$01
	.byte	$01
	.byte	$01
	.byte	$01
	.byte	$01
	.byte	$01
	.byte	$01
	.byte	$01
	.byte	$01
	.byte	$01
	.byte	$01
	.byte	$01
	.byte	$01
	.byte	$01
	.byte	$01
	.byte	$01
	.byte	$01
	.byte	$01
	.byte	$01
	.byte	$01
	.byte	$01
	.byte	$01
	.byte	$01
	.byte	$01
	.byte	$01
	.byte	$01
	.byte	$01
	.byte	$01
	.byte	$01
	.byte	$01
	.byte	$01
	.byte	$01
	.byte	$01
	.byte	$01
	.byte	$01
	.byte	$01
	.byte	$01
	.byte	$01
	.byte	$01
	.byte	$01
	.byte	$01
	.byte	$82
	.byte	$83
	.byte	$92
	.byte	$93
	.byte	$01
	.byte	$01
	.byte	$01
	.byte	$01
	.byte	$01
	.byte	$01
	.byte	$01
	.byte	$01
	.byte	$01
	.byte	$01
	.byte	$01
	.byte	$01
	.byte	$01
	.byte	$01
	.byte	$01
	.byte	$01
	.byte	$01
	.byte	$01
	.byte	$01
	.byte	$01
	.byte	$01
	.byte	$01
	.byte	$01
	.byte	$01
	.byte	$01
	.byte	$01
	.byte	$01
	.byte	$01
	.byte	$01
	.byte	$01
	.byte	$01
	.byte	$01
	.byte	$01
	.byte	$01
	.byte	$01
	.byte	$01
	.byte	$01
	.byte	$01
	.byte	$01
	.byte	$01
	.byte	$01
	.byte	$01
	.byte	$01
	.byte	$01
	.byte	$01
	.byte	$01
	.byte	$01
	.byte	$01
	.byte	$01
	.byte	$01
	.byte	$01
	.byte	$01
	.byte	$01
	.byte	$01
	.byte	$01
	.byte	$01
	.byte	$01
	.byte	$01
	.byte	$01
	.byte	$01
	.byte	$92
	.byte	$93
	.byte	$82
	.byte	$81
	.byte	$80
	.byte	$81
	.byte	$80
	.byte	$81
	.byte	$80
	.byte	$81
	.byte	$80
	.byte	$81
	.byte	$80
	.byte	$81
	.byte	$80
	.byte	$81
	.byte	$80
	.byte	$81
	.byte	$80
	.byte	$81
	.byte	$80
	.byte	$81
	.byte	$80
	.byte	$81
	.byte	$80
	.byte	$81
	.byte	$80
	.byte	$81
	.byte	$80
	.byte	$81
	.byte	$80
	.byte	$81
	.byte	$80
	.byte	$81
	.byte	$80
	.byte	$81
	.byte	$80
	.byte	$81
	.byte	$80
	.byte	$81
	.byte	$80
	.byte	$81
	.byte	$80
	.byte	$81
	.byte	$80
	.byte	$81
	.byte	$80
	.byte	$81
	.byte	$80
	.byte	$81
	.byte	$80
	.byte	$81
	.byte	$80
	.byte	$81
	.byte	$80
	.byte	$81
	.byte	$80
	.byte	$81
	.byte	$80
	.byte	$81
	.byte	$80
	.byte	$81
	.byte	$80
	.byte	$81
	.byte	$80
	.byte	$83
	.byte	$92
	.byte	$91
	.byte	$90
	.byte	$91
	.byte	$90
	.byte	$91
	.byte	$90
	.byte	$91
	.byte	$90
	.byte	$91
	.byte	$90
	.byte	$91
	.byte	$90
	.byte	$91
	.byte	$90
	.byte	$91
	.byte	$90
	.byte	$91
	.byte	$90
	.byte	$91
	.byte	$90
	.byte	$91
	.byte	$90
	.byte	$91
	.byte	$90
	.byte	$91
	.byte	$90
	.byte	$91
	.byte	$90
	.byte	$91
	.byte	$90
	.byte	$91
	.byte	$90
	.byte	$91
	.byte	$90
	.byte	$91
	.byte	$90
	.byte	$91
	.byte	$90
	.byte	$91
	.byte	$90
	.byte	$91
	.byte	$90
	.byte	$91
	.byte	$90
	.byte	$91
	.byte	$90
	.byte	$91
	.byte	$90
	.byte	$91
	.byte	$90
	.byte	$91
	.byte	$90
	.byte	$91
	.byte	$90
	.byte	$91
	.byte	$90
	.byte	$91
	.byte	$90
	.byte	$91
	.byte	$90
	.byte	$91
	.byte	$90
	.byte	$93
	.byte	$80
	.byte	$a0
	.byte	$a0
	.byte	$a0
	.byte	$a0
	.byte	$a0
	.byte	$a0
	.byte	$a0
	.byte	$a0
	.byte	$a0
	.byte	$a0
	.byte	$a0
	.byte	$a0
	.byte	$a0
	.byte	$a0
	.byte	$20
	.byte	$88
	.byte	$aa
	.byte	$aa
	.byte	$aa
	.byte	$aa
	.byte	$aa
	.byte	$aa
	.byte	$aa
	.byte	$aa
	.byte	$aa
	.byte	$aa
	.byte	$aa
	.byte	$aa
	.byte	$6a
	.byte	$aa
	.byte	$22
	.byte	$48
	.byte	$5a
	.byte	$9a
	.byte	$aa
	.byte	$aa
	.byte	$aa
	.byte	$aa
	.byte	$aa
	.byte	$aa
	.byte	$aa
	.byte	$aa
	.byte	$aa
	.byte	$aa
	.byte	$a5
	.byte	$a9
	.byte	$22
	.byte	$88
	.byte	$aa
	.byte	$5a
	.byte	$5a
	.byte	$aa
	.byte	$aa
	.byte	$aa
	.byte	$aa
	.byte	$aa
	.byte	$aa
	.byte	$a6
	.byte	$a5
	.byte	$aa
	.byte	$aa
	.byte	$aa
	.byte	$22
	.byte	$88
	.byte	$aa
	.byte	$aa
	.byte	$aa
	.byte	$aa
	.byte	$5a
	.byte	$5a
	.byte	$aa
	.byte	$a5
	.byte	$a9
	.byte	$aa
	.byte	$6a
	.byte	$5a
	.byte	$aa
	.byte	$aa
	.byte	$22
	.byte	$88
	.byte	$aa
	.byte	$6a
	.byte	$5a
	.byte	$9a
	.byte	$aa
	.byte	$aa
	.byte	$aa
	.byte	$aa
	.byte	$aa
	.byte	$aa
	.byte	$aa
	.byte	$aa
	.byte	$aa
	.byte	$5a
	.byte	$12
	.byte	$88
	.byte	$aa
	.byte	$aa
	.byte	$aa
	.byte	$aa
	.byte	$aa
	.byte	$aa
	.byte	$aa
	.byte	$aa
	.byte	$aa
	.byte	$aa
	.byte	$aa
	.byte	$aa
	.byte	$aa
	.byte	$aa
	.byte	$22
	.byte	$00
	.byte	$00
	.byte	$00
	.byte	$00
	.byte	$00
	.byte	$00
	.byte	$00
	.byte	$00
	.byte	$00
	.byte	$00
	.byte	$00
	.byte	$00
	.byte	$00
	.byte	$00
	.byte	$00
	.byte	$00
_Level2Data:
	.byte	$00
	.byte	$82
	.byte	$81
	.byte	$80
	.byte	$81
	.byte	$80
	.byte	$81
	.byte	$80
	.byte	$81
	.byte	$80
	.byte	$81
	.byte	$80
	.byte	$81
	.byte	$80
	.byte	$81
	.byte	$80
	.byte	$81
	.byte	$80
	.byte	$81
	.byte	$80
	.byte	$81
	.byte	$80
	.byte	$81
	.byte	$80
	.byte	$81
	.byte	$80
	.byte	$81
	.byte	$80
	.byte	$81
	.byte	$80
	.byte	$81
	.byte	$80
	.byte	$81
	.byte	$80
	.byte	$81
	.byte	$80
	.byte	$81
	.byte	$80
	.byte	$81
	.byte	$80
	.byte	$81
	.byte	$80
	.byte	$81
	.byte	$80
	.byte	$81
	.byte	$80
	.byte	$81
	.byte	$80
	.byte	$81
	.byte	$80
	.byte	$81
	.byte	$80
	.byte	$81
	.byte	$80
	.byte	$81
	.byte	$80
	.byte	$81
	.byte	$80
	.byte	$81
	.byte	$80
	.byte	$81
	.byte	$80
	.byte	$81
	.byte	$82
	.byte	$81
	.byte	$92
	.byte	$91
	.byte	$90
	.byte	$91
	.byte	$90
	.byte	$91
	.byte	$90
	.byte	$91
	.byte	$90
	.byte	$91
	.byte	$90
	.byte	$91
	.byte	$90
	.byte	$91
	.byte	$90
	.byte	$91
	.byte	$90
	.byte	$91
	.byte	$90
	.byte	$91
	.byte	$90
	.byte	$91
	.byte	$90
	.byte	$91
	.byte	$90
	.byte	$91
	.byte	$90
	.byte	$91
	.byte	$90
	.byte	$91
	.byte	$90
	.byte	$91
	.byte	$90
	.byte	$91
	.byte	$90
	.byte	$91
	.byte	$90
	.byte	$91
	.byte	$90
	.byte	$91
	.byte	$90
	.byte	$91
	.byte	$90
	.byte	$91
	.byte	$90
	.byte	$91
	.byte	$90
	.byte	$91
	.byte	$90
	.byte	$91
	.byte	$90
	.byte	$91
	.byte	$90
	.byte	$91
	.byte	$90
	.byte	$91
	.byte	$90
	.byte	$91
	.byte	$90
	.byte	$91
	.byte	$90
	.byte	$91
	.byte	$92
	.byte	$91
	.byte	$82
	.byte	$83
	.byte	$03
	.byte	$00
	.byte	$3b
	.byte	$82
	.byte	$83
	.byte	$92
	.byte	$93
	.byte	$03
	.byte	$00
	.byte	$3b
	.byte	$92
	.byte	$93
	.byte	$82
	.byte	$83
	.byte	$03
	.byte	$00
	.byte	$3b
	.byte	$82
	.byte	$83
	.byte	$92
	.byte	$93
	.byte	$03
	.byte	$00
	.byte	$3b
	.byte	$92
	.byte	$93
	.byte	$82
	.byte	$83
	.byte	$03
	.byte	$00
	.byte	$3b
	.byte	$82
	.byte	$83
	.byte	$92
	.byte	$93
	.byte	$03
	.byte	$00
	.byte	$3b
	.byte	$92
	.byte	$93
	.byte	$82
	.byte	$83
	.byte	$03
	.byte	$00
	.byte	$3b
	.byte	$82
	.byte	$83
	.byte	$92
	.byte	$93
	.byte	$03
	.byte	$00
	.byte	$3b
	.byte	$92
	.byte	$93
	.byte	$82
	.byte	$83
	.byte	$03
	.byte	$00
	.byte	$27
	.byte	$82
	.byte	$81
	.byte	$80
	.byte	$81
	.byte	$80
	.byte	$81
	.byte	$80
	.byte	$83
	.byte	$03
	.byte	$00
	.byte	$0b
	.byte	$82
	.byte	$83
	.byte	$92
	.byte	$93
	.byte	$03
	.byte	$00
	.byte	$27
	.byte	$92
	.byte	$91
	.byte	$90
	.byte	$91
	.byte	$90
	.byte	$91
	.byte	$90
	.byte	$93
	.byte	$03
	.byte	$00
	.byte	$0b
	.byte	$92
	.byte	$93
	.byte	$82
	.byte	$83
	.byte	$03
	.byte	$00
	.byte	$3b
	.byte	$82
	.byte	$83
	.byte	$92
	.byte	$93
	.byte	$03
	.byte	$00
	.byte	$3b
	.byte	$92
	.byte	$93
	.byte	$82
	.byte	$83
	.byte	$03
	.byte	$00
	.byte	$1b
	.byte	$82
	.byte	$81
	.byte	$80
	.byte	$81
	.byte	$80
	.byte	$81
	.byte	$80
	.byte	$83
	.byte	$03
	.byte	$00
	.byte	$17
	.byte	$82
	.byte	$83
	.byte	$92
	.byte	$93
	.byte	$03
	.byte	$03
	.byte	$82
	.byte	$81
	.byte	$80
	.byte	$81
	.byte	$80
	.byte	$81
	.byte	$80
	.byte	$83
	.byte	$03
	.byte	$00
	.byte	$11
	.byte	$92
	.byte	$91
	.byte	$90
	.byte	$91
	.byte	$90
	.byte	$91
	.byte	$90
	.byte	$93
	.byte	$03
	.byte	$00
	.byte	$17
	.byte	$92
	.byte	$93
	.byte	$82
	.byte	$83
	.byte	$03
	.byte	$03
	.byte	$92
	.byte	$91
	.byte	$90
	.byte	$91
	.byte	$90
	.byte	$91
	.byte	$90
	.byte	$93
	.byte	$03
	.byte	$00
	.byte	$2b
	.byte	$06
	.byte	$07
	.byte	$03
	.byte	$00
	.byte	$03
	.byte	$82
	.byte	$83
	.byte	$92
	.byte	$93
	.byte	$03
	.byte	$00
	.byte	$35
	.byte	$16
	.byte	$17
	.byte	$03
	.byte	$00
	.byte	$03
	.byte	$92
	.byte	$93
	.byte	$82
	.byte	$83
	.byte	$03
	.byte	$00
	.byte	$11
	.byte	$82
	.byte	$81
	.byte	$80
	.byte	$81
	.byte	$80
	.byte	$81
	.byte	$80
	.byte	$83
	.byte	$03
	.byte	$00
	.byte	$17
	.byte	$82
	.byte	$81
	.byte	$80
	.byte	$81
	.byte	$80
	.byte	$81
	.byte	$80
	.byte	$83
	.byte	$03
	.byte	$03
	.byte	$82
	.byte	$83
	.byte	$92
	.byte	$93
	.byte	$03
	.byte	$00
	.byte	$11
	.byte	$92
	.byte	$91
	.byte	$90
	.byte	$91
	.byte	$90
	.byte	$91
	.byte	$90
	.byte	$93
	.byte	$03
	.byte	$00
	.byte	$17
	.byte	$92
	.byte	$91
	.byte	$90
	.byte	$91
	.byte	$90
	.byte	$91
	.byte	$90
	.byte	$93
	.byte	$03
	.byte	$03
	.byte	$92
	.byte	$93
	.byte	$82
	.byte	$83
	.byte	$03
	.byte	$00
	.byte	$3b
	.byte	$82
	.byte	$83
	.byte	$92
	.byte	$93
	.byte	$03
	.byte	$00
	.byte	$3b
	.byte	$92
	.byte	$93
	.byte	$82
	.byte	$83
	.byte	$03
	.byte	$00
	.byte	$07
	.byte	$82
	.byte	$81
	.byte	$80
	.byte	$81
	.byte	$80
	.byte	$81
	.byte	$80
	.byte	$83
	.byte	$03
	.byte	$00
	.byte	$17
	.byte	$82
	.byte	$81
	.byte	$80
	.byte	$81
	.byte	$80
	.byte	$81
	.byte	$80
	.byte	$83
	.byte	$03
	.byte	$00
	.byte	$0b
	.byte	$82
	.byte	$83
	.byte	$92
	.byte	$93
	.byte	$03
	.byte	$00
	.byte	$07
	.byte	$92
	.byte	$91
	.byte	$90
	.byte	$91
	.byte	$90
	.byte	$91
	.byte	$90
	.byte	$93
	.byte	$03
	.byte	$00
	.byte	$17
	.byte	$92
	.byte	$91
	.byte	$90
	.byte	$91
	.byte	$90
	.byte	$91
	.byte	$90
	.byte	$93
	.byte	$03
	.byte	$00
	.byte	$0b
	.byte	$92
	.byte	$93
	.byte	$82
	.byte	$83
	.byte	$03
	.byte	$00
	.byte	$3b
	.byte	$82
	.byte	$83
	.byte	$92
	.byte	$93
	.byte	$03
	.byte	$00
	.byte	$3b
	.byte	$92
	.byte	$93
	.byte	$82
	.byte	$83
	.byte	$03
	.byte	$00
	.byte	$3b
	.byte	$82
	.byte	$83
	.byte	$92
	.byte	$93
	.byte	$03
	.byte	$00
	.byte	$3b
	.byte	$92
	.byte	$93
	.byte	$82
	.byte	$81
	.byte	$80
	.byte	$81
	.byte	$80
	.byte	$81
	.byte	$80
	.byte	$81
	.byte	$80
	.byte	$81
	.byte	$80
	.byte	$81
	.byte	$80
	.byte	$81
	.byte	$80
	.byte	$81
	.byte	$80
	.byte	$81
	.byte	$80
	.byte	$81
	.byte	$80
	.byte	$81
	.byte	$80
	.byte	$81
	.byte	$80
	.byte	$81
	.byte	$80
	.byte	$81
	.byte	$80
	.byte	$81
	.byte	$80
	.byte	$81
	.byte	$80
	.byte	$81
	.byte	$80
	.byte	$81
	.byte	$80
	.byte	$81
	.byte	$80
	.byte	$81
	.byte	$80
	.byte	$81
	.byte	$80
	.byte	$81
	.byte	$80
	.byte	$81
	.byte	$80
	.byte	$81
	.byte	$80
	.byte	$81
	.byte	$80
	.byte	$81
	.byte	$80
	.byte	$81
	.byte	$80
	.byte	$81
	.byte	$80
	.byte	$81
	.byte	$80
	.byte	$81
	.byte	$80
	.byte	$81
	.byte	$82
	.byte	$81
	.byte	$92
	.byte	$91
	.byte	$90
	.byte	$91
	.byte	$90
	.byte	$91
	.byte	$90
	.byte	$91
	.byte	$90
	.byte	$91
	.byte	$90
	.byte	$91
	.byte	$90
	.byte	$91
	.byte	$90
	.byte	$91
	.byte	$90
	.byte	$91
	.byte	$90
	.byte	$91
	.byte	$90
	.byte	$91
	.byte	$90
	.byte	$91
	.byte	$90
	.byte	$91
	.byte	$90
	.byte	$91
	.byte	$90
	.byte	$91
	.byte	$90
	.byte	$91
	.byte	$90
	.byte	$91
	.byte	$90
	.byte	$91
	.byte	$90
	.byte	$91
	.byte	$90
	.byte	$91
	.byte	$90
	.byte	$91
	.byte	$90
	.byte	$91
	.byte	$90
	.byte	$91
	.byte	$90
	.byte	$91
	.byte	$90
	.byte	$91
	.byte	$90
	.byte	$91
	.byte	$90
	.byte	$91
	.byte	$90
	.byte	$91
	.byte	$90
	.byte	$91
	.byte	$90
	.byte	$91
	.byte	$90
	.byte	$91
	.byte	$92
	.byte	$91
	.byte	$6a
	.byte	$5a
	.byte	$00
	.byte	$0d
	.byte	$9a
	.byte	$66
	.byte	$55
	.byte	$00
	.byte	$0d
	.byte	$99
	.byte	$66
	.byte	$55
	.byte	$00
	.byte	$0d
	.byte	$99
	.byte	$66
	.byte	$55
	.byte	$00
	.byte	$0d
	.byte	$99
	.byte	$66
	.byte	$55
	.byte	$00
	.byte	$0c
	.byte	$57
	.byte	$99
	.byte	$66
	.byte	$55
	.byte	$00
	.byte	$0d
	.byte	$99
	.byte	$66
	.byte	$55
	.byte	$00
	.byte	$0d
	.byte	$99
	.byte	$0a
	.byte	$00
	.byte	$0f
	.byte	$00
	.byte	$00
_Level3Data:
	.byte	$00
	.byte	$82
	.byte	$81
	.byte	$80
	.byte	$81
	.byte	$80
	.byte	$81
	.byte	$80
	.byte	$81
	.byte	$80
	.byte	$81
	.byte	$80
	.byte	$81
	.byte	$80
	.byte	$81
	.byte	$80
	.byte	$81
	.byte	$80
	.byte	$81
	.byte	$80
	.byte	$81
	.byte	$80
	.byte	$81
	.byte	$80
	.byte	$81
	.byte	$80
	.byte	$81
	.byte	$80
	.byte	$81
	.byte	$80
	.byte	$81
	.byte	$80
	.byte	$81
	.byte	$80
	.byte	$81
	.byte	$80
	.byte	$81
	.byte	$80
	.byte	$81
	.byte	$80
	.byte	$81
	.byte	$80
	.byte	$81
	.byte	$80
	.byte	$81
	.byte	$80
	.byte	$81
	.byte	$80
	.byte	$81
	.byte	$80
	.byte	$81
	.byte	$80
	.byte	$81
	.byte	$80
	.byte	$81
	.byte	$80
	.byte	$81
	.byte	$80
	.byte	$81
	.byte	$80
	.byte	$81
	.byte	$80
	.byte	$81
	.byte	$82
	.byte	$81
	.byte	$92
	.byte	$91
	.byte	$90
	.byte	$91
	.byte	$90
	.byte	$91
	.byte	$90
	.byte	$91
	.byte	$90
	.byte	$91
	.byte	$90
	.byte	$91
	.byte	$90
	.byte	$91
	.byte	$90
	.byte	$91
	.byte	$90
	.byte	$91
	.byte	$90
	.byte	$91
	.byte	$90
	.byte	$91
	.byte	$90
	.byte	$91
	.byte	$90
	.byte	$91
	.byte	$90
	.byte	$91
	.byte	$90
	.byte	$91
	.byte	$90
	.byte	$91
	.byte	$90
	.byte	$91
	.byte	$90
	.byte	$91
	.byte	$90
	.byte	$91
	.byte	$90
	.byte	$91
	.byte	$90
	.byte	$91
	.byte	$90
	.byte	$91
	.byte	$90
	.byte	$91
	.byte	$90
	.byte	$91
	.byte	$90
	.byte	$91
	.byte	$90
	.byte	$91
	.byte	$90
	.byte	$91
	.byte	$90
	.byte	$91
	.byte	$90
	.byte	$91
	.byte	$90
	.byte	$91
	.byte	$90
	.byte	$91
	.byte	$92
	.byte	$91
	.byte	$82
	.byte	$83
	.byte	$03
	.byte	$00
	.byte	$3b
	.byte	$82
	.byte	$83
	.byte	$92
	.byte	$93
	.byte	$03
	.byte	$00
	.byte	$3b
	.byte	$92
	.byte	$93
	.byte	$82
	.byte	$83
	.byte	$03
	.byte	$00
	.byte	$37
	.byte	$06
	.byte	$07
	.byte	$03
	.byte	$03
	.byte	$82
	.byte	$83
	.byte	$92
	.byte	$93
	.byte	$03
	.byte	$00
	.byte	$37
	.byte	$16
	.byte	$17
	.byte	$03
	.byte	$03
	.byte	$92
	.byte	$93
	.byte	$82
	.byte	$83
	.byte	$03
	.byte	$00
	.byte	$19
	.byte	$82
	.byte	$81
	.byte	$80
	.byte	$81
	.byte	$80
	.byte	$81
	.byte	$80
	.byte	$83
	.byte	$03
	.byte	$00
	.byte	$0f
	.byte	$82
	.byte	$81
	.byte	$80
	.byte	$81
	.byte	$80
	.byte	$81
	.byte	$80
	.byte	$83
	.byte	$03
	.byte	$03
	.byte	$82
	.byte	$83
	.byte	$92
	.byte	$93
	.byte	$03
	.byte	$00
	.byte	$19
	.byte	$92
	.byte	$91
	.byte	$90
	.byte	$91
	.byte	$90
	.byte	$91
	.byte	$90
	.byte	$93
	.byte	$03
	.byte	$00
	.byte	$0f
	.byte	$92
	.byte	$91
	.byte	$90
	.byte	$91
	.byte	$90
	.byte	$91
	.byte	$90
	.byte	$93
	.byte	$03
	.byte	$03
	.byte	$92
	.byte	$93
	.byte	$82
	.byte	$83
	.byte	$03
	.byte	$00
	.byte	$3b
	.byte	$82
	.byte	$83
	.byte	$92
	.byte	$93
	.byte	$03
	.byte	$00
	.byte	$3b
	.byte	$92
	.byte	$93
	.byte	$82
	.byte	$83
	.byte	$03
	.byte	$00
	.byte	$0d
	.byte	$82
	.byte	$81
	.byte	$80
	.byte	$81
	.byte	$80
	.byte	$81
	.byte	$80
	.byte	$83
	.byte	$03
	.byte	$00
	.byte	$11
	.byte	$82
	.byte	$81
	.byte	$80
	.byte	$81
	.byte	$80
	.byte	$81
	.byte	$80
	.byte	$83
	.byte	$03
	.byte	$00
	.byte	$0b
	.byte	$82
	.byte	$83
	.byte	$92
	.byte	$93
	.byte	$03
	.byte	$00
	.byte	$0d
	.byte	$92
	.byte	$91
	.byte	$90
	.byte	$91
	.byte	$90
	.byte	$91
	.byte	$90
	.byte	$93
	.byte	$03
	.byte	$00
	.byte	$11
	.byte	$92
	.byte	$91
	.byte	$90
	.byte	$91
	.byte	$90
	.byte	$91
	.byte	$90
	.byte	$93
	.byte	$03
	.byte	$00
	.byte	$0b
	.byte	$92
	.byte	$93
	.byte	$82
	.byte	$83
	.byte	$03
	.byte	$00
	.byte	$3b
	.byte	$82
	.byte	$83
	.byte	$92
	.byte	$93
	.byte	$03
	.byte	$00
	.byte	$3b
	.byte	$92
	.byte	$93
	.byte	$82
	.byte	$83
	.byte	$03
	.byte	$03
	.byte	$82
	.byte	$81
	.byte	$80
	.byte	$81
	.byte	$80
	.byte	$81
	.byte	$80
	.byte	$83
	.byte	$03
	.byte	$00
	.byte	$31
	.byte	$82
	.byte	$83
	.byte	$92
	.byte	$93
	.byte	$03
	.byte	$03
	.byte	$92
	.byte	$91
	.byte	$92
	.byte	$93
	.byte	$92
	.byte	$93
	.byte	$92
	.byte	$93
	.byte	$03
	.byte	$00
	.byte	$31
	.byte	$92
	.byte	$93
	.byte	$82
	.byte	$83
	.byte	$03
	.byte	$00
	.byte	$3b
	.byte	$82
	.byte	$83
	.byte	$92
	.byte	$93
	.byte	$03
	.byte	$00
	.byte	$3b
	.byte	$92
	.byte	$93
	.byte	$82
	.byte	$83
	.byte	$03
	.byte	$00
	.byte	$0d
	.byte	$82
	.byte	$81
	.byte	$80
	.byte	$81
	.byte	$80
	.byte	$81
	.byte	$80
	.byte	$83
	.byte	$03
	.byte	$00
	.byte	$05
	.byte	$82
	.byte	$81
	.byte	$80
	.byte	$81
	.byte	$80
	.byte	$81
	.byte	$80
	.byte	$83
	.byte	$03
	.byte	$00
	.byte	$17
	.byte	$82
	.byte	$83
	.byte	$92
	.byte	$93
	.byte	$03
	.byte	$00
	.byte	$0d
	.byte	$92
	.byte	$91
	.byte	$90
	.byte	$91
	.byte	$90
	.byte	$91
	.byte	$90
	.byte	$93
	.byte	$03
	.byte	$00
	.byte	$05
	.byte	$92
	.byte	$91
	.byte	$90
	.byte	$91
	.byte	$90
	.byte	$91
	.byte	$90
	.byte	$93
	.byte	$03
	.byte	$00
	.byte	$17
	.byte	$92
	.byte	$93
	.byte	$82
	.byte	$83
	.byte	$03
	.byte	$00
	.byte	$3b
	.byte	$82
	.byte	$83
	.byte	$92
	.byte	$93
	.byte	$03
	.byte	$00
	.byte	$3b
	.byte	$92
	.byte	$93
	.byte	$82
	.byte	$83
	.byte	$03
	.byte	$00
	.byte	$27
	.byte	$82
	.byte	$81
	.byte	$80
	.byte	$81
	.byte	$80
	.byte	$81
	.byte	$80
	.byte	$83
	.byte	$03
	.byte	$00
	.byte	$0b
	.byte	$82
	.byte	$83
	.byte	$92
	.byte	$93
	.byte	$03
	.byte	$00
	.byte	$27
	.byte	$92
	.byte	$91
	.byte	$90
	.byte	$91
	.byte	$90
	.byte	$91
	.byte	$90
	.byte	$93
	.byte	$03
	.byte	$00
	.byte	$0b
	.byte	$92
	.byte	$93
	.byte	$82
	.byte	$83
	.byte	$03
	.byte	$00
	.byte	$3b
	.byte	$82
	.byte	$83
	.byte	$92
	.byte	$93
	.byte	$03
	.byte	$00
	.byte	$3b
	.byte	$92
	.byte	$93
	.byte	$82
	.byte	$83
	.byte	$03
	.byte	$00
	.byte	$3b
	.byte	$82
	.byte	$83
	.byte	$92
	.byte	$93
	.byte	$03
	.byte	$00
	.byte	$3b
	.byte	$92
	.byte	$93
	.byte	$82
	.byte	$81
	.byte	$80
	.byte	$81
	.byte	$80
	.byte	$81
	.byte	$80
	.byte	$81
	.byte	$80
	.byte	$81
	.byte	$80
	.byte	$81
	.byte	$80
	.byte	$81
	.byte	$80
	.byte	$81
	.byte	$80
	.byte	$81
	.byte	$80
	.byte	$81
	.byte	$80
	.byte	$81
	.byte	$80
	.byte	$81
	.byte	$80
	.byte	$81
	.byte	$80
	.byte	$81
	.byte	$80
	.byte	$81
	.byte	$80
	.byte	$81
	.byte	$80
	.byte	$81
	.byte	$80
	.byte	$81
	.byte	$80
	.byte	$81
	.byte	$80
	.byte	$81
	.byte	$80
	.byte	$81
	.byte	$80
	.byte	$81
	.byte	$80
	.byte	$81
	.byte	$80
	.byte	$81
	.byte	$80
	.byte	$81
	.byte	$80
	.byte	$81
	.byte	$80
	.byte	$81
	.byte	$80
	.byte	$81
	.byte	$80
	.byte	$81
	.byte	$80
	.byte	$81
	.byte	$80
	.byte	$81
	.byte	$82
	.byte	$81
	.byte	$92
	.byte	$91
	.byte	$90
	.byte	$91
	.byte	$90
	.byte	$91
	.byte	$90
	.byte	$91
	.byte	$90
	.byte	$91
	.byte	$90
	.byte	$91
	.byte	$90
	.byte	$91
	.byte	$90
	.byte	$91
	.byte	$90
	.byte	$91
	.byte	$90
	.byte	$91
	.byte	$90
	.byte	$91
	.byte	$90
	.byte	$91
	.byte	$90
	.byte	$91
	.byte	$90
	.byte	$91
	.byte	$90
	.byte	$91
	.byte	$90
	.byte	$91
	.byte	$90
	.byte	$91
	.byte	$90
	.byte	$91
	.byte	$90
	.byte	$91
	.byte	$90
	.byte	$91
	.byte	$90
	.byte	$91
	.byte	$90
	.byte	$91
	.byte	$90
	.byte	$91
	.byte	$90
	.byte	$91
	.byte	$90
	.byte	$91
	.byte	$90
	.byte	$91
	.byte	$90
	.byte	$91
	.byte	$90
	.byte	$91
	.byte	$90
	.byte	$91
	.byte	$90
	.byte	$91
	.byte	$90
	.byte	$91
	.byte	$92
	.byte	$91
	.byte	$ea
	.byte	$fa
	.byte	$00
	.byte	$0d
	.byte	$ba
	.byte	$ee
	.byte	$ff
	.byte	$00
	.byte	$05
	.byte	$0f
	.byte	$0f
	.byte	$ff
	.byte	$00
	.byte	$03
	.byte	$0f
	.byte	$03
	.byte	$bb
	.byte	$ee
	.byte	$ff
	.byte	$00
	.byte	$02
	.byte	$0f
	.byte	$0f
	.byte	$ff
	.byte	$00
	.byte	$03
	.byte	$3f
	.byte	$0f
	.byte	$cf
	.byte	$ff
	.byte	$ff
	.byte	$bb
	.byte	$ee
	.byte	$0f
	.byte	$0f
	.byte	$ff
	.byte	$00
	.byte	$0b
	.byte	$bb
	.byte	$ee
	.byte	$ff
	.byte	$00
	.byte	$02
	.byte	$0f
	.byte	$0f
	.byte	$ff
	.byte	$3f
	.byte	$0f
	.byte	$cf
	.byte	$ff
	.byte	$00
	.byte	$04
	.byte	$bb
	.byte	$ee
	.byte	$ff
	.byte	$00
	.byte	$08
	.byte	$3f
	.byte	$0f
	.byte	$cf
	.byte	$ff
	.byte	$ff
	.byte	$bb
	.byte	$ee
	.byte	$ff
	.byte	$00
	.byte	$0d
	.byte	$bb
	.byte	$0a
	.byte	$00
	.byte	$0f
	.byte	$00
	.byte	$00
_Level1A:
	.byte	$82
	.byte	$81
	.byte	$80
	.byte	$81
	.byte	$80
	.byte	$81
	.byte	$80
	.byte	$81
	.byte	$80
	.byte	$81
	.byte	$80
	.byte	$81
	.byte	$80
	.byte	$81
	.byte	$80
	.byte	$81
	.byte	$80
	.byte	$81
	.byte	$80
	.byte	$81
	.byte	$80
	.byte	$81
	.byte	$80
	.byte	$81
	.byte	$80
	.byte	$81
	.byte	$80
	.byte	$81
	.byte	$80
	.byte	$81
	.byte	$80
	.byte	$81
	.byte	$92
	.byte	$91
	.byte	$90
	.byte	$91
	.byte	$90
	.byte	$91
	.byte	$90
	.byte	$91
	.byte	$90
	.byte	$91
	.byte	$90
	.byte	$91
	.byte	$90
	.byte	$91
	.byte	$90
	.byte	$91
	.byte	$90
	.byte	$91
	.byte	$90
	.byte	$91
	.byte	$90
	.byte	$91
	.byte	$90
	.byte	$91
	.byte	$90
	.byte	$91
	.byte	$90
	.byte	$91
	.byte	$90
	.byte	$91
	.byte	$90
	.byte	$91
	.byte	$82
	.byte	$83
	.byte	$01
	.byte	$01
	.byte	$01
	.byte	$01
	.byte	$01
	.byte	$01
	.byte	$01
	.byte	$01
	.byte	$01
	.byte	$01
	.byte	$01
	.byte	$01
	.byte	$01
	.byte	$01
	.byte	$01
	.byte	$01
	.byte	$01
	.byte	$01
	.byte	$01
	.byte	$01
	.byte	$01
	.byte	$01
	.byte	$01
	.byte	$01
	.byte	$01
	.byte	$01
	.byte	$01
	.byte	$01
	.byte	$01
	.byte	$01
	.byte	$92
	.byte	$93
	.byte	$01
	.byte	$01
	.byte	$01
	.byte	$01
	.byte	$01
	.byte	$01
	.byte	$01
	.byte	$01
	.byte	$01
	.byte	$01
	.byte	$01
	.byte	$01
	.byte	$01
	.byte	$01
	.byte	$01
	.byte	$01
	.byte	$01
	.byte	$01
	.byte	$01
	.byte	$01
	.byte	$01
	.byte	$01
	.byte	$01
	.byte	$01
	.byte	$01
	.byte	$01
	.byte	$01
	.byte	$01
	.byte	$01
	.byte	$01
	.byte	$82
	.byte	$83
	.byte	$01
	.byte	$01
	.byte	$01
	.byte	$01
	.byte	$01
	.byte	$01
	.byte	$01
	.byte	$01
	.byte	$01
	.byte	$01
	.byte	$01
	.byte	$01
	.byte	$01
	.byte	$01
	.byte	$01
	.byte	$01
	.byte	$01
	.byte	$01
	.byte	$01
	.byte	$01
	.byte	$01
	.byte	$01
	.byte	$01
	.byte	$01
	.byte	$01
	.byte	$01
	.byte	$01
	.byte	$01
	.byte	$01
	.byte	$01
	.byte	$92
	.byte	$93
	.byte	$01
	.byte	$01
	.byte	$01
	.byte	$01
	.byte	$01
	.byte	$01
	.byte	$01
	.byte	$01
	.byte	$01
	.byte	$01
	.byte	$01
	.byte	$01
	.byte	$01
	.byte	$01
	.byte	$01
	.byte	$01
	.byte	$01
	.byte	$01
	.byte	$01
	.byte	$01
	.byte	$01
	.byte	$01
	.byte	$01
	.byte	$01
	.byte	$01
	.byte	$01
	.byte	$01
	.byte	$01
	.byte	$01
	.byte	$01
	.byte	$82
	.byte	$83
	.byte	$01
	.byte	$01
	.byte	$01
	.byte	$01
	.byte	$01
	.byte	$01
	.byte	$01
	.byte	$01
	.byte	$01
	.byte	$01
	.byte	$01
	.byte	$01
	.byte	$01
	.byte	$01
	.byte	$01
	.byte	$01
	.byte	$01
	.byte	$01
	.byte	$01
	.byte	$01
	.byte	$01
	.byte	$01
	.byte	$01
	.byte	$01
	.byte	$01
	.byte	$01
	.byte	$01
	.byte	$01
	.byte	$01
	.byte	$01
	.byte	$92
	.byte	$93
	.byte	$01
	.byte	$01
	.byte	$01
	.byte	$01
	.byte	$01
	.byte	$01
	.byte	$01
	.byte	$01
	.byte	$01
	.byte	$01
	.byte	$01
	.byte	$01
	.byte	$01
	.byte	$01
	.byte	$01
	.byte	$01
	.byte	$01
	.byte	$01
	.byte	$01
	.byte	$01
	.byte	$01
	.byte	$01
	.byte	$01
	.byte	$01
	.byte	$01
	.byte	$01
	.byte	$01
	.byte	$01
	.byte	$01
	.byte	$01
	.byte	$82
	.byte	$83
	.byte	$01
	.byte	$01
	.byte	$01
	.byte	$01
	.byte	$01
	.byte	$01
	.byte	$01
	.byte	$01
	.byte	$01
	.byte	$01
	.byte	$01
	.byte	$01
	.byte	$01
	.byte	$01
	.byte	$01
	.byte	$01
	.byte	$01
	.byte	$01
	.byte	$01
	.byte	$01
	.byte	$01
	.byte	$01
	.byte	$01
	.byte	$01
	.byte	$01
	.byte	$01
	.byte	$01
	.byte	$01
	.byte	$01
	.byte	$01
	.byte	$92
	.byte	$93
	.byte	$01
	.byte	$01
	.byte	$01
	.byte	$01
	.byte	$01
	.byte	$01
	.byte	$01
	.byte	$01
	.byte	$01
	.byte	$01
	.byte	$01
	.byte	$01
	.byte	$01
	.byte	$01
	.byte	$01
	.byte	$01
	.byte	$01
	.byte	$01
	.byte	$01
	.byte	$01
	.byte	$01
	.byte	$01
	.byte	$01
	.byte	$01
	.byte	$01
	.byte	$01
	.byte	$01
	.byte	$01
	.byte	$01
	.byte	$01
	.byte	$82
	.byte	$83
	.byte	$82
	.byte	$81
	.byte	$80
	.byte	$81
	.byte	$80
	.byte	$81
	.byte	$80
	.byte	$83
	.byte	$01
	.byte	$01
	.byte	$01
	.byte	$01
	.byte	$01
	.byte	$01
	.byte	$01
	.byte	$01
	.byte	$01
	.byte	$01
	.byte	$01
	.byte	$01
	.byte	$01
	.byte	$01
	.byte	$01
	.byte	$01
	.byte	$01
	.byte	$01
	.byte	$01
	.byte	$01
	.byte	$01
	.byte	$01
	.byte	$92
	.byte	$93
	.byte	$92
	.byte	$91
	.byte	$90
	.byte	$91
	.byte	$90
	.byte	$91
	.byte	$90
	.byte	$93
	.byte	$01
	.byte	$01
	.byte	$01
	.byte	$01
	.byte	$01
	.byte	$01
	.byte	$01
	.byte	$01
	.byte	$01
	.byte	$01
	.byte	$01
	.byte	$01
	.byte	$01
	.byte	$01
	.byte	$01
	.byte	$01
	.byte	$01
	.byte	$01
	.byte	$01
	.byte	$01
	.byte	$01
	.byte	$01
	.byte	$82
	.byte	$83
	.byte	$01
	.byte	$01
	.byte	$01
	.byte	$01
	.byte	$01
	.byte	$01
	.byte	$01
	.byte	$01
	.byte	$01
	.byte	$01
	.byte	$01
	.byte	$01
	.byte	$01
	.byte	$01
	.byte	$01
	.byte	$01
	.byte	$01
	.byte	$01
	.byte	$01
	.byte	$01
	.byte	$01
	.byte	$01
	.byte	$01
	.byte	$01
	.byte	$01
	.byte	$01
	.byte	$01
	.byte	$01
	.byte	$01
	.byte	$01
	.byte	$92
	.byte	$93
	.byte	$01
	.byte	$01
	.byte	$01
	.byte	$01
	.byte	$01
	.byte	$01
	.byte	$01
	.byte	$01
	.byte	$01
	.byte	$01
	.byte	$01
	.byte	$01
	.byte	$01
	.byte	$01
	.byte	$01
	.byte	$01
	.byte	$01
	.byte	$01
	.byte	$01
	.byte	$01
	.byte	$01
	.byte	$01
	.byte	$01
	.byte	$01
	.byte	$01
	.byte	$01
	.byte	$01
	.byte	$01
	.byte	$01
	.byte	$01
	.byte	$82
	.byte	$83
	.byte	$01
	.byte	$01
	.byte	$01
	.byte	$01
	.byte	$01
	.byte	$01
	.byte	$82
	.byte	$81
	.byte	$80
	.byte	$81
	.byte	$80
	.byte	$81
	.byte	$80
	.byte	$83
	.byte	$01
	.byte	$01
	.byte	$01
	.byte	$01
	.byte	$01
	.byte	$01
	.byte	$01
	.byte	$01
	.byte	$01
	.byte	$01
	.byte	$01
	.byte	$01
	.byte	$01
	.byte	$01
	.byte	$01
	.byte	$01
	.byte	$92
	.byte	$93
	.byte	$01
	.byte	$01
	.byte	$01
	.byte	$01
	.byte	$01
	.byte	$01
	.byte	$92
	.byte	$91
	.byte	$90
	.byte	$91
	.byte	$90
	.byte	$91
	.byte	$90
	.byte	$93
	.byte	$01
	.byte	$01
	.byte	$01
	.byte	$01
	.byte	$01
	.byte	$01
	.byte	$01
	.byte	$01
	.byte	$01
	.byte	$01
	.byte	$01
	.byte	$01
	.byte	$01
	.byte	$01
	.byte	$01
	.byte	$01
	.byte	$82
	.byte	$83
	.byte	$01
	.byte	$01
	.byte	$01
	.byte	$01
	.byte	$01
	.byte	$01
	.byte	$01
	.byte	$01
	.byte	$01
	.byte	$01
	.byte	$01
	.byte	$01
	.byte	$01
	.byte	$01
	.byte	$01
	.byte	$01
	.byte	$01
	.byte	$01
	.byte	$01
	.byte	$01
	.byte	$01
	.byte	$01
	.byte	$01
	.byte	$01
	.byte	$01
	.byte	$01
	.byte	$01
	.byte	$01
	.byte	$01
	.byte	$01
	.byte	$92
	.byte	$93
	.byte	$01
	.byte	$01
	.byte	$01
	.byte	$01
	.byte	$01
	.byte	$01
	.byte	$01
	.byte	$01
	.byte	$01
	.byte	$01
	.byte	$01
	.byte	$01
	.byte	$01
	.byte	$01
	.byte	$01
	.byte	$01
	.byte	$01
	.byte	$01
	.byte	$01
	.byte	$01
	.byte	$01
	.byte	$01
	.byte	$01
	.byte	$01
	.byte	$01
	.byte	$01
	.byte	$01
	.byte	$01
	.byte	$01
	.byte	$01
	.byte	$82
	.byte	$83
	.byte	$01
	.byte	$01
	.byte	$01
	.byte	$01
	.byte	$01
	.byte	$01
	.byte	$01
	.byte	$01
	.byte	$01
	.byte	$01
	.byte	$01
	.byte	$01
	.byte	$01
	.byte	$01
	.byte	$01
	.byte	$01
	.byte	$01
	.byte	$01
	.byte	$82
	.byte	$81
	.byte	$80
	.byte	$81
	.byte	$80
	.byte	$81
	.byte	$80
	.byte	$83
	.byte	$01
	.byte	$01
	.byte	$01
	.byte	$01
	.byte	$92
	.byte	$93
	.byte	$01
	.byte	$01
	.byte	$01
	.byte	$01
	.byte	$01
	.byte	$01
	.byte	$01
	.byte	$01
	.byte	$01
	.byte	$01
	.byte	$01
	.byte	$01
	.byte	$01
	.byte	$01
	.byte	$01
	.byte	$01
	.byte	$01
	.byte	$01
	.byte	$92
	.byte	$91
	.byte	$90
	.byte	$91
	.byte	$90
	.byte	$91
	.byte	$90
	.byte	$93
	.byte	$01
	.byte	$01
	.byte	$01
	.byte	$01
	.byte	$82
	.byte	$83
	.byte	$01
	.byte	$01
	.byte	$01
	.byte	$01
	.byte	$01
	.byte	$01
	.byte	$01
	.byte	$01
	.byte	$01
	.byte	$01
	.byte	$01
	.byte	$01
	.byte	$01
	.byte	$01
	.byte	$01
	.byte	$01
	.byte	$01
	.byte	$01
	.byte	$01
	.byte	$01
	.byte	$01
	.byte	$01
	.byte	$01
	.byte	$01
	.byte	$01
	.byte	$01
	.byte	$01
	.byte	$01
	.byte	$01
	.byte	$01
	.byte	$92
	.byte	$93
	.byte	$01
	.byte	$01
	.byte	$01
	.byte	$01
	.byte	$01
	.byte	$01
	.byte	$01
	.byte	$01
	.byte	$01
	.byte	$01
	.byte	$01
	.byte	$01
	.byte	$01
	.byte	$01
	.byte	$01
	.byte	$01
	.byte	$01
	.byte	$01
	.byte	$01
	.byte	$01
	.byte	$01
	.byte	$01
	.byte	$01
	.byte	$01
	.byte	$01
	.byte	$01
	.byte	$01
	.byte	$01
	.byte	$01
	.byte	$01
	.byte	$82
	.byte	$83
	.byte	$01
	.byte	$01
	.byte	$01
	.byte	$01
	.byte	$01
	.byte	$01
	.byte	$01
	.byte	$01
	.byte	$82
	.byte	$81
	.byte	$80
	.byte	$81
	.byte	$80
	.byte	$81
	.byte	$80
	.byte	$83
	.byte	$01
	.byte	$01
	.byte	$01
	.byte	$01
	.byte	$01
	.byte	$01
	.byte	$01
	.byte	$01
	.byte	$01
	.byte	$01
	.byte	$01
	.byte	$01
	.byte	$01
	.byte	$01
	.byte	$92
	.byte	$93
	.byte	$01
	.byte	$01
	.byte	$01
	.byte	$01
	.byte	$01
	.byte	$01
	.byte	$01
	.byte	$01
	.byte	$92
	.byte	$91
	.byte	$90
	.byte	$91
	.byte	$90
	.byte	$91
	.byte	$90
	.byte	$93
	.byte	$01
	.byte	$01
	.byte	$01
	.byte	$01
	.byte	$01
	.byte	$01
	.byte	$01
	.byte	$01
	.byte	$01
	.byte	$01
	.byte	$01
	.byte	$01
	.byte	$01
	.byte	$01
	.byte	$82
	.byte	$83
	.byte	$01
	.byte	$01
	.byte	$01
	.byte	$01
	.byte	$01
	.byte	$01
	.byte	$01
	.byte	$01
	.byte	$01
	.byte	$01
	.byte	$01
	.byte	$01
	.byte	$01
	.byte	$01
	.byte	$01
	.byte	$01
	.byte	$01
	.byte	$01
	.byte	$01
	.byte	$01
	.byte	$01
	.byte	$01
	.byte	$01
	.byte	$01
	.byte	$01
	.byte	$01
	.byte	$01
	.byte	$01
	.byte	$01
	.byte	$01
	.byte	$92
	.byte	$93
	.byte	$01
	.byte	$01
	.byte	$01
	.byte	$01
	.byte	$01
	.byte	$01
	.byte	$01
	.byte	$01
	.byte	$01
	.byte	$01
	.byte	$01
	.byte	$01
	.byte	$01
	.byte	$01
	.byte	$01
	.byte	$01
	.byte	$01
	.byte	$01
	.byte	$01
	.byte	$01
	.byte	$01
	.byte	$01
	.byte	$01
	.byte	$01
	.byte	$01
	.byte	$01
	.byte	$01
	.byte	$01
	.byte	$01
	.byte	$01
	.byte	$82
	.byte	$83
	.byte	$01
	.byte	$01
	.byte	$01
	.byte	$01
	.byte	$01
	.byte	$01
	.byte	$01
	.byte	$01
	.byte	$01
	.byte	$01
	.byte	$01
	.byte	$01
	.byte	$01
	.byte	$01
	.byte	$01
	.byte	$01
	.byte	$01
	.byte	$01
	.byte	$01
	.byte	$01
	.byte	$01
	.byte	$01
	.byte	$01
	.byte	$01
	.byte	$01
	.byte	$01
	.byte	$01
	.byte	$01
	.byte	$01
	.byte	$01
	.byte	$92
	.byte	$93
	.byte	$01
	.byte	$01
	.byte	$01
	.byte	$01
	.byte	$01
	.byte	$01
	.byte	$01
	.byte	$01
	.byte	$01
	.byte	$01
	.byte	$01
	.byte	$01
	.byte	$01
	.byte	$01
	.byte	$01
	.byte	$01
	.byte	$01
	.byte	$01
	.byte	$01
	.byte	$01
	.byte	$01
	.byte	$01
	.byte	$01
	.byte	$01
	.byte	$01
	.byte	$01
	.byte	$01
	.byte	$01
	.byte	$01
	.byte	$01
	.byte	$82
	.byte	$81
	.byte	$80
	.byte	$81
	.byte	$80
	.byte	$81
	.byte	$80
	.byte	$81
	.byte	$80
	.byte	$81
	.byte	$80
	.byte	$81
	.byte	$80
	.byte	$81
	.byte	$80
	.byte	$81
	.byte	$80
	.byte	$81
	.byte	$80
	.byte	$81
	.byte	$80
	.byte	$81
	.byte	$80
	.byte	$81
	.byte	$80
	.byte	$81
	.byte	$80
	.byte	$81
	.byte	$80
	.byte	$81
	.byte	$80
	.byte	$81
	.byte	$92
	.byte	$91
	.byte	$90
	.byte	$91
	.byte	$90
	.byte	$91
	.byte	$90
	.byte	$91
	.byte	$90
	.byte	$91
	.byte	$90
	.byte	$91
	.byte	$90
	.byte	$91
	.byte	$90
	.byte	$91
	.byte	$90
	.byte	$91
	.byte	$90
	.byte	$91
	.byte	$90
	.byte	$91
	.byte	$90
	.byte	$91
	.byte	$90
	.byte	$91
	.byte	$90
	.byte	$91
	.byte	$90
	.byte	$91
	.byte	$90
	.byte	$91
	.byte	$80
	.byte	$a0
	.byte	$a0
	.byte	$a0
	.byte	$a0
	.byte	$a0
	.byte	$a0
	.byte	$a0
	.byte	$88
	.byte	$aa
	.byte	$aa
	.byte	$aa
	.byte	$aa
	.byte	$aa
	.byte	$aa
	.byte	$aa
	.byte	$48
	.byte	$5a
	.byte	$9a
	.byte	$aa
	.byte	$aa
	.byte	$aa
	.byte	$aa
	.byte	$aa
	.byte	$88
	.byte	$aa
	.byte	$5a
	.byte	$5a
	.byte	$aa
	.byte	$aa
	.byte	$aa
	.byte	$aa
	.byte	$88
	.byte	$aa
	.byte	$aa
	.byte	$aa
	.byte	$aa
	.byte	$5a
	.byte	$5a
	.byte	$aa
	.byte	$88
	.byte	$aa
	.byte	$6a
	.byte	$5a
	.byte	$9a
	.byte	$aa
	.byte	$aa
	.byte	$aa
	.byte	$88
	.byte	$aa
	.byte	$aa
	.byte	$aa
	.byte	$aa
	.byte	$aa
	.byte	$aa
	.byte	$aa
	.byte	$00
	.byte	$00
	.byte	$00
	.byte	$00
	.byte	$00
	.byte	$00
	.byte	$00
	.byte	$00
_Level1B:
	.byte	$80
	.byte	$81
	.byte	$80
	.byte	$81
	.byte	$80
	.byte	$81
	.byte	$80
	.byte	$81
	.byte	$80
	.byte	$81
	.byte	$80
	.byte	$81
	.byte	$80
	.byte	$81
	.byte	$80
	.byte	$81
	.byte	$80
	.byte	$81
	.byte	$80
	.byte	$81
	.byte	$80
	.byte	$81
	.byte	$80
	.byte	$81
	.byte	$80
	.byte	$81
	.byte	$80
	.byte	$81
	.byte	$80
	.byte	$81
	.byte	$80
	.byte	$83
	.byte	$90
	.byte	$91
	.byte	$90
	.byte	$91
	.byte	$90
	.byte	$91
	.byte	$90
	.byte	$91
	.byte	$90
	.byte	$91
	.byte	$90
	.byte	$91
	.byte	$90
	.byte	$91
	.byte	$90
	.byte	$91
	.byte	$90
	.byte	$91
	.byte	$90
	.byte	$91
	.byte	$90
	.byte	$91
	.byte	$90
	.byte	$91
	.byte	$90
	.byte	$91
	.byte	$90
	.byte	$91
	.byte	$90
	.byte	$91
	.byte	$90
	.byte	$93
	.byte	$01
	.byte	$01
	.byte	$01
	.byte	$01
	.byte	$01
	.byte	$01
	.byte	$01
	.byte	$01
	.byte	$01
	.byte	$01
	.byte	$01
	.byte	$01
	.byte	$01
	.byte	$01
	.byte	$01
	.byte	$01
	.byte	$01
	.byte	$01
	.byte	$01
	.byte	$01
	.byte	$01
	.byte	$01
	.byte	$01
	.byte	$01
	.byte	$01
	.byte	$01
	.byte	$01
	.byte	$01
	.byte	$01
	.byte	$01
	.byte	$82
	.byte	$83
	.byte	$01
	.byte	$01
	.byte	$01
	.byte	$01
	.byte	$01
	.byte	$01
	.byte	$01
	.byte	$01
	.byte	$01
	.byte	$01
	.byte	$01
	.byte	$01
	.byte	$01
	.byte	$01
	.byte	$01
	.byte	$01
	.byte	$01
	.byte	$01
	.byte	$01
	.byte	$01
	.byte	$01
	.byte	$01
	.byte	$01
	.byte	$01
	.byte	$01
	.byte	$01
	.byte	$01
	.byte	$01
	.byte	$01
	.byte	$01
	.byte	$92
	.byte	$93
	.byte	$01
	.byte	$01
	.byte	$01
	.byte	$01
	.byte	$01
	.byte	$01
	.byte	$01
	.byte	$01
	.byte	$01
	.byte	$01
	.byte	$01
	.byte	$01
	.byte	$01
	.byte	$01
	.byte	$01
	.byte	$01
	.byte	$01
	.byte	$01
	.byte	$01
	.byte	$01
	.byte	$01
	.byte	$01
	.byte	$01
	.byte	$01
	.byte	$01
	.byte	$01
	.byte	$01
	.byte	$01
	.byte	$01
	.byte	$01
	.byte	$82
	.byte	$83
	.byte	$01
	.byte	$01
	.byte	$01
	.byte	$01
	.byte	$01
	.byte	$01
	.byte	$01
	.byte	$01
	.byte	$01
	.byte	$01
	.byte	$01
	.byte	$01
	.byte	$01
	.byte	$01
	.byte	$01
	.byte	$01
	.byte	$01
	.byte	$01
	.byte	$01
	.byte	$01
	.byte	$01
	.byte	$01
	.byte	$01
	.byte	$01
	.byte	$01
	.byte	$01
	.byte	$01
	.byte	$01
	.byte	$01
	.byte	$01
	.byte	$92
	.byte	$93
	.byte	$01
	.byte	$01
	.byte	$01
	.byte	$01
	.byte	$01
	.byte	$01
	.byte	$01
	.byte	$01
	.byte	$01
	.byte	$01
	.byte	$01
	.byte	$01
	.byte	$01
	.byte	$01
	.byte	$01
	.byte	$01
	.byte	$01
	.byte	$01
	.byte	$01
	.byte	$01
	.byte	$01
	.byte	$01
	.byte	$06
	.byte	$07
	.byte	$01
	.byte	$01
	.byte	$01
	.byte	$01
	.byte	$01
	.byte	$01
	.byte	$82
	.byte	$83
	.byte	$01
	.byte	$01
	.byte	$01
	.byte	$01
	.byte	$01
	.byte	$01
	.byte	$01
	.byte	$01
	.byte	$01
	.byte	$01
	.byte	$01
	.byte	$01
	.byte	$01
	.byte	$01
	.byte	$01
	.byte	$01
	.byte	$01
	.byte	$01
	.byte	$01
	.byte	$01
	.byte	$01
	.byte	$01
	.byte	$16
	.byte	$17
	.byte	$01
	.byte	$01
	.byte	$01
	.byte	$01
	.byte	$01
	.byte	$01
	.byte	$92
	.byte	$93
	.byte	$01
	.byte	$01
	.byte	$01
	.byte	$01
	.byte	$01
	.byte	$01
	.byte	$01
	.byte	$01
	.byte	$01
	.byte	$01
	.byte	$01
	.byte	$01
	.byte	$01
	.byte	$01
	.byte	$01
	.byte	$01
	.byte	$01
	.byte	$01
	.byte	$01
	.byte	$01
	.byte	$82
	.byte	$81
	.byte	$80
	.byte	$81
	.byte	$80
	.byte	$83
	.byte	$01
	.byte	$01
	.byte	$01
	.byte	$01
	.byte	$82
	.byte	$83
	.byte	$01
	.byte	$01
	.byte	$01
	.byte	$01
	.byte	$01
	.byte	$01
	.byte	$01
	.byte	$01
	.byte	$01
	.byte	$01
	.byte	$01
	.byte	$01
	.byte	$01
	.byte	$01
	.byte	$01
	.byte	$01
	.byte	$01
	.byte	$01
	.byte	$01
	.byte	$01
	.byte	$92
	.byte	$91
	.byte	$90
	.byte	$91
	.byte	$90
	.byte	$93
	.byte	$01
	.byte	$01
	.byte	$01
	.byte	$01
	.byte	$92
	.byte	$93
	.byte	$01
	.byte	$01
	.byte	$01
	.byte	$01
	.byte	$01
	.byte	$01
	.byte	$01
	.byte	$01
	.byte	$01
	.byte	$01
	.byte	$01
	.byte	$01
	.byte	$01
	.byte	$01
	.byte	$01
	.byte	$01
	.byte	$01
	.byte	$01
	.byte	$01
	.byte	$01
	.byte	$01
	.byte	$01
	.byte	$01
	.byte	$01
	.byte	$01
	.byte	$01
	.byte	$01
	.byte	$01
	.byte	$01
	.byte	$01
	.byte	$82
	.byte	$83
	.byte	$01
	.byte	$01
	.byte	$01
	.byte	$01
	.byte	$01
	.byte	$01
	.byte	$01
	.byte	$01
	.byte	$01
	.byte	$01
	.byte	$01
	.byte	$01
	.byte	$01
	.byte	$01
	.byte	$01
	.byte	$01
	.byte	$01
	.byte	$01
	.byte	$01
	.byte	$01
	.byte	$01
	.byte	$01
	.byte	$01
	.byte	$01
	.byte	$01
	.byte	$01
	.byte	$01
	.byte	$01
	.byte	$01
	.byte	$01
	.byte	$92
	.byte	$93
	.byte	$01
	.byte	$01
	.byte	$01
	.byte	$01
	.byte	$01
	.byte	$01
	.byte	$01
	.byte	$01
	.byte	$01
	.byte	$01
	.byte	$82
	.byte	$81
	.byte	$80
	.byte	$81
	.byte	$80
	.byte	$83
	.byte	$01
	.byte	$01
	.byte	$01
	.byte	$01
	.byte	$01
	.byte	$01
	.byte	$01
	.byte	$01
	.byte	$01
	.byte	$01
	.byte	$01
	.byte	$01
	.byte	$01
	.byte	$01
	.byte	$82
	.byte	$83
	.byte	$01
	.byte	$01
	.byte	$01
	.byte	$01
	.byte	$01
	.byte	$01
	.byte	$01
	.byte	$01
	.byte	$01
	.byte	$01
	.byte	$92
	.byte	$91
	.byte	$90
	.byte	$91
	.byte	$90
	.byte	$93
	.byte	$01
	.byte	$01
	.byte	$01
	.byte	$01
	.byte	$01
	.byte	$01
	.byte	$01
	.byte	$01
	.byte	$01
	.byte	$01
	.byte	$01
	.byte	$01
	.byte	$01
	.byte	$01
	.byte	$92
	.byte	$93
	.byte	$01
	.byte	$01
	.byte	$01
	.byte	$01
	.byte	$01
	.byte	$01
	.byte	$01
	.byte	$01
	.byte	$01
	.byte	$01
	.byte	$01
	.byte	$01
	.byte	$01
	.byte	$01
	.byte	$01
	.byte	$01
	.byte	$01
	.byte	$01
	.byte	$01
	.byte	$01
	.byte	$01
	.byte	$01
	.byte	$01
	.byte	$01
	.byte	$01
	.byte	$01
	.byte	$01
	.byte	$01
	.byte	$01
	.byte	$01
	.byte	$82
	.byte	$83
	.byte	$01
	.byte	$01
	.byte	$01
	.byte	$01
	.byte	$01
	.byte	$01
	.byte	$01
	.byte	$01
	.byte	$01
	.byte	$01
	.byte	$01
	.byte	$01
	.byte	$01
	.byte	$01
	.byte	$01
	.byte	$01
	.byte	$01
	.byte	$01
	.byte	$01
	.byte	$01
	.byte	$01
	.byte	$01
	.byte	$01
	.byte	$01
	.byte	$01
	.byte	$01
	.byte	$01
	.byte	$01
	.byte	$01
	.byte	$01
	.byte	$92
	.byte	$93
	.byte	$82
	.byte	$81
	.byte	$80
	.byte	$81
	.byte	$80
	.byte	$83
	.byte	$01
	.byte	$01
	.byte	$01
	.byte	$01
	.byte	$01
	.byte	$01
	.byte	$01
	.byte	$01
	.byte	$01
	.byte	$01
	.byte	$01
	.byte	$01
	.byte	$01
	.byte	$01
	.byte	$01
	.byte	$01
	.byte	$01
	.byte	$01
	.byte	$01
	.byte	$01
	.byte	$01
	.byte	$01
	.byte	$01
	.byte	$01
	.byte	$82
	.byte	$83
	.byte	$92
	.byte	$91
	.byte	$90
	.byte	$91
	.byte	$90
	.byte	$93
	.byte	$01
	.byte	$01
	.byte	$01
	.byte	$01
	.byte	$01
	.byte	$01
	.byte	$01
	.byte	$01
	.byte	$01
	.byte	$01
	.byte	$01
	.byte	$01
	.byte	$01
	.byte	$01
	.byte	$01
	.byte	$01
	.byte	$01
	.byte	$01
	.byte	$01
	.byte	$01
	.byte	$01
	.byte	$01
	.byte	$01
	.byte	$01
	.byte	$92
	.byte	$93
	.byte	$01
	.byte	$01
	.byte	$01
	.byte	$01
	.byte	$01
	.byte	$01
	.byte	$01
	.byte	$01
	.byte	$01
	.byte	$01
	.byte	$01
	.byte	$01
	.byte	$01
	.byte	$01
	.byte	$82
	.byte	$81
	.byte	$80
	.byte	$81
	.byte	$80
	.byte	$83
	.byte	$01
	.byte	$01
	.byte	$01
	.byte	$01
	.byte	$01
	.byte	$01
	.byte	$01
	.byte	$01
	.byte	$01
	.byte	$01
	.byte	$82
	.byte	$83
	.byte	$01
	.byte	$01
	.byte	$01
	.byte	$01
	.byte	$01
	.byte	$01
	.byte	$01
	.byte	$01
	.byte	$01
	.byte	$01
	.byte	$01
	.byte	$01
	.byte	$01
	.byte	$01
	.byte	$92
	.byte	$91
	.byte	$90
	.byte	$91
	.byte	$90
	.byte	$93
	.byte	$01
	.byte	$01
	.byte	$01
	.byte	$01
	.byte	$01
	.byte	$01
	.byte	$01
	.byte	$01
	.byte	$01
	.byte	$01
	.byte	$92
	.byte	$93
	.byte	$01
	.byte	$01
	.byte	$01
	.byte	$01
	.byte	$01
	.byte	$01
	.byte	$01
	.byte	$01
	.byte	$01
	.byte	$01
	.byte	$01
	.byte	$01
	.byte	$01
	.byte	$01
	.byte	$01
	.byte	$01
	.byte	$01
	.byte	$01
	.byte	$01
	.byte	$01
	.byte	$01
	.byte	$01
	.byte	$01
	.byte	$01
	.byte	$01
	.byte	$01
	.byte	$01
	.byte	$01
	.byte	$01
	.byte	$01
	.byte	$82
	.byte	$83
	.byte	$01
	.byte	$01
	.byte	$01
	.byte	$01
	.byte	$01
	.byte	$01
	.byte	$01
	.byte	$01
	.byte	$01
	.byte	$01
	.byte	$01
	.byte	$01
	.byte	$01
	.byte	$01
	.byte	$01
	.byte	$01
	.byte	$01
	.byte	$01
	.byte	$01
	.byte	$01
	.byte	$01
	.byte	$01
	.byte	$01
	.byte	$01
	.byte	$01
	.byte	$01
	.byte	$01
	.byte	$01
	.byte	$01
	.byte	$01
	.byte	$92
	.byte	$93
	.byte	$01
	.byte	$01
	.byte	$01
	.byte	$01
	.byte	$01
	.byte	$01
	.byte	$01
	.byte	$01
	.byte	$01
	.byte	$01
	.byte	$01
	.byte	$01
	.byte	$01
	.byte	$01
	.byte	$01
	.byte	$01
	.byte	$01
	.byte	$01
	.byte	$01
	.byte	$01
	.byte	$01
	.byte	$01
	.byte	$01
	.byte	$01
	.byte	$82
	.byte	$81
	.byte	$80
	.byte	$81
	.byte	$80
	.byte	$83
	.byte	$82
	.byte	$83
	.byte	$01
	.byte	$01
	.byte	$01
	.byte	$01
	.byte	$01
	.byte	$01
	.byte	$01
	.byte	$01
	.byte	$01
	.byte	$01
	.byte	$01
	.byte	$01
	.byte	$01
	.byte	$01
	.byte	$01
	.byte	$01
	.byte	$01
	.byte	$01
	.byte	$01
	.byte	$01
	.byte	$01
	.byte	$01
	.byte	$01
	.byte	$01
	.byte	$92
	.byte	$91
	.byte	$90
	.byte	$91
	.byte	$90
	.byte	$93
	.byte	$92
	.byte	$93
	.byte	$01
	.byte	$01
	.byte	$01
	.byte	$01
	.byte	$01
	.byte	$01
	.byte	$01
	.byte	$01
	.byte	$01
	.byte	$01
	.byte	$01
	.byte	$01
	.byte	$01
	.byte	$01
	.byte	$01
	.byte	$01
	.byte	$01
	.byte	$01
	.byte	$01
	.byte	$01
	.byte	$01
	.byte	$01
	.byte	$01
	.byte	$01
	.byte	$01
	.byte	$01
	.byte	$01
	.byte	$01
	.byte	$01
	.byte	$01
	.byte	$82
	.byte	$83
	.byte	$01
	.byte	$01
	.byte	$01
	.byte	$01
	.byte	$01
	.byte	$01
	.byte	$01
	.byte	$01
	.byte	$01
	.byte	$01
	.byte	$01
	.byte	$01
	.byte	$01
	.byte	$01
	.byte	$01
	.byte	$01
	.byte	$01
	.byte	$01
	.byte	$01
	.byte	$01
	.byte	$01
	.byte	$01
	.byte	$01
	.byte	$01
	.byte	$01
	.byte	$01
	.byte	$01
	.byte	$01
	.byte	$01
	.byte	$01
	.byte	$92
	.byte	$93
	.byte	$01
	.byte	$01
	.byte	$01
	.byte	$01
	.byte	$01
	.byte	$01
	.byte	$01
	.byte	$01
	.byte	$01
	.byte	$01
	.byte	$01
	.byte	$01
	.byte	$01
	.byte	$01
	.byte	$01
	.byte	$01
	.byte	$01
	.byte	$01
	.byte	$01
	.byte	$01
	.byte	$01
	.byte	$01
	.byte	$01
	.byte	$01
	.byte	$01
	.byte	$01
	.byte	$01
	.byte	$01
	.byte	$01
	.byte	$01
	.byte	$82
	.byte	$83
	.byte	$01
	.byte	$01
	.byte	$01
	.byte	$01
	.byte	$01
	.byte	$01
	.byte	$01
	.byte	$01
	.byte	$01
	.byte	$01
	.byte	$01
	.byte	$01
	.byte	$01
	.byte	$01
	.byte	$01
	.byte	$01
	.byte	$01
	.byte	$01
	.byte	$01
	.byte	$01
	.byte	$01
	.byte	$01
	.byte	$01
	.byte	$01
	.byte	$01
	.byte	$01
	.byte	$01
	.byte	$01
	.byte	$01
	.byte	$01
	.byte	$92
	.byte	$93
	.byte	$80
	.byte	$81
	.byte	$80
	.byte	$81
	.byte	$80
	.byte	$81
	.byte	$80
	.byte	$81
	.byte	$80
	.byte	$81
	.byte	$80
	.byte	$81
	.byte	$80
	.byte	$81
	.byte	$80
	.byte	$81
	.byte	$80
	.byte	$81
	.byte	$80
	.byte	$81
	.byte	$80
	.byte	$81
	.byte	$80
	.byte	$81
	.byte	$80
	.byte	$81
	.byte	$80
	.byte	$81
	.byte	$80
	.byte	$81
	.byte	$80
	.byte	$83
	.byte	$90
	.byte	$91
	.byte	$90
	.byte	$91
	.byte	$90
	.byte	$91
	.byte	$90
	.byte	$91
	.byte	$90
	.byte	$91
	.byte	$90
	.byte	$91
	.byte	$90
	.byte	$91
	.byte	$90
	.byte	$91
	.byte	$90
	.byte	$91
	.byte	$90
	.byte	$91
	.byte	$90
	.byte	$91
	.byte	$90
	.byte	$91
	.byte	$90
	.byte	$91
	.byte	$90
	.byte	$91
	.byte	$90
	.byte	$91
	.byte	$90
	.byte	$93
	.byte	$a0
	.byte	$a0
	.byte	$a0
	.byte	$a0
	.byte	$a0
	.byte	$a0
	.byte	$a0
	.byte	$20
	.byte	$aa
	.byte	$aa
	.byte	$aa
	.byte	$aa
	.byte	$aa
	.byte	$6a
	.byte	$aa
	.byte	$22
	.byte	$aa
	.byte	$aa
	.byte	$aa
	.byte	$aa
	.byte	$aa
	.byte	$a5
	.byte	$a9
	.byte	$22
	.byte	$aa
	.byte	$aa
	.byte	$a6
	.byte	$a5
	.byte	$aa
	.byte	$aa
	.byte	$aa
	.byte	$22
	.byte	$a5
	.byte	$a9
	.byte	$aa
	.byte	$6a
	.byte	$5a
	.byte	$aa
	.byte	$aa
	.byte	$22
	.byte	$aa
	.byte	$aa
	.byte	$aa
	.byte	$aa
	.byte	$aa
	.byte	$aa
	.byte	$5a
	.byte	$12
	.byte	$aa
	.byte	$aa
	.byte	$aa
	.byte	$aa
	.byte	$aa
	.byte	$aa
	.byte	$aa
	.byte	$22
	.byte	$00
	.byte	$00
	.byte	$00
	.byte	$00
	.byte	$00
	.byte	$00
	.byte	$00
	.byte	$00
_Level2A:
	.byte	$82
	.byte	$81
	.byte	$80
	.byte	$81
	.byte	$80
	.byte	$81
	.byte	$80
	.byte	$81
	.byte	$80
	.byte	$81
	.byte	$80
	.byte	$81
	.byte	$80
	.byte	$81
	.byte	$80
	.byte	$81
	.byte	$80
	.byte	$81
	.byte	$80
	.byte	$81
	.byte	$80
	.byte	$81
	.byte	$80
	.byte	$81
	.byte	$80
	.byte	$81
	.byte	$80
	.byte	$81
	.byte	$80
	.byte	$81
	.byte	$80
	.byte	$81
	.byte	$92
	.byte	$91
	.byte	$90
	.byte	$91
	.byte	$90
	.byte	$91
	.byte	$90
	.byte	$91
	.byte	$90
	.byte	$91
	.byte	$90
	.byte	$91
	.byte	$90
	.byte	$91
	.byte	$90
	.byte	$91
	.byte	$90
	.byte	$91
	.byte	$90
	.byte	$91
	.byte	$90
	.byte	$91
	.byte	$90
	.byte	$91
	.byte	$90
	.byte	$91
	.byte	$90
	.byte	$91
	.byte	$90
	.byte	$91
	.byte	$90
	.byte	$91
	.byte	$82
	.byte	$83
	.byte	$03
	.byte	$03
	.byte	$03
	.byte	$03
	.byte	$03
	.byte	$03
	.byte	$03
	.byte	$03
	.byte	$03
	.byte	$03
	.byte	$03
	.byte	$03
	.byte	$03
	.byte	$03
	.byte	$03
	.byte	$03
	.byte	$03
	.byte	$03
	.byte	$03
	.byte	$03
	.byte	$03
	.byte	$03
	.byte	$03
	.byte	$03
	.byte	$03
	.byte	$03
	.byte	$03
	.byte	$03
	.byte	$03
	.byte	$03
	.byte	$92
	.byte	$93
	.byte	$03
	.byte	$03
	.byte	$03
	.byte	$03
	.byte	$03
	.byte	$03
	.byte	$03
	.byte	$03
	.byte	$03
	.byte	$03
	.byte	$03
	.byte	$03
	.byte	$03
	.byte	$03
	.byte	$03
	.byte	$03
	.byte	$03
	.byte	$03
	.byte	$03
	.byte	$03
	.byte	$03
	.byte	$03
	.byte	$03
	.byte	$03
	.byte	$03
	.byte	$03
	.byte	$03
	.byte	$03
	.byte	$03
	.byte	$03
	.byte	$82
	.byte	$83
	.byte	$03
	.byte	$03
	.byte	$03
	.byte	$03
	.byte	$03
	.byte	$03
	.byte	$03
	.byte	$03
	.byte	$03
	.byte	$03
	.byte	$03
	.byte	$03
	.byte	$03
	.byte	$03
	.byte	$03
	.byte	$03
	.byte	$03
	.byte	$03
	.byte	$03
	.byte	$03
	.byte	$03
	.byte	$03
	.byte	$03
	.byte	$03
	.byte	$03
	.byte	$03
	.byte	$03
	.byte	$03
	.byte	$03
	.byte	$03
	.byte	$92
	.byte	$93
	.byte	$03
	.byte	$03
	.byte	$03
	.byte	$03
	.byte	$03
	.byte	$03
	.byte	$03
	.byte	$03
	.byte	$03
	.byte	$03
	.byte	$03
	.byte	$03
	.byte	$03
	.byte	$03
	.byte	$03
	.byte	$03
	.byte	$03
	.byte	$03
	.byte	$03
	.byte	$03
	.byte	$03
	.byte	$03
	.byte	$03
	.byte	$03
	.byte	$03
	.byte	$03
	.byte	$03
	.byte	$03
	.byte	$03
	.byte	$03
	.byte	$82
	.byte	$83
	.byte	$03
	.byte	$03
	.byte	$03
	.byte	$03
	.byte	$03
	.byte	$03
	.byte	$03
	.byte	$03
	.byte	$03
	.byte	$03
	.byte	$03
	.byte	$03
	.byte	$03
	.byte	$03
	.byte	$03
	.byte	$03
	.byte	$03
	.byte	$03
	.byte	$03
	.byte	$03
	.byte	$03
	.byte	$03
	.byte	$03
	.byte	$03
	.byte	$03
	.byte	$03
	.byte	$03
	.byte	$03
	.byte	$03
	.byte	$03
	.byte	$92
	.byte	$93
	.byte	$03
	.byte	$03
	.byte	$03
	.byte	$03
	.byte	$03
	.byte	$03
	.byte	$03
	.byte	$03
	.byte	$03
	.byte	$03
	.byte	$03
	.byte	$03
	.byte	$03
	.byte	$03
	.byte	$03
	.byte	$03
	.byte	$03
	.byte	$03
	.byte	$03
	.byte	$03
	.byte	$03
	.byte	$03
	.byte	$03
	.byte	$03
	.byte	$03
	.byte	$03
	.byte	$03
	.byte	$03
	.byte	$03
	.byte	$03
	.byte	$82
	.byte	$83
	.byte	$03
	.byte	$03
	.byte	$03
	.byte	$03
	.byte	$03
	.byte	$03
	.byte	$03
	.byte	$03
	.byte	$03
	.byte	$03
	.byte	$03
	.byte	$03
	.byte	$03
	.byte	$03
	.byte	$03
	.byte	$03
	.byte	$03
	.byte	$03
	.byte	$03
	.byte	$03
	.byte	$03
	.byte	$03
	.byte	$03
	.byte	$03
	.byte	$03
	.byte	$03
	.byte	$03
	.byte	$03
	.byte	$03
	.byte	$03
	.byte	$92
	.byte	$93
	.byte	$03
	.byte	$03
	.byte	$03
	.byte	$03
	.byte	$03
	.byte	$03
	.byte	$03
	.byte	$03
	.byte	$03
	.byte	$03
	.byte	$03
	.byte	$03
	.byte	$03
	.byte	$03
	.byte	$03
	.byte	$03
	.byte	$03
	.byte	$03
	.byte	$03
	.byte	$03
	.byte	$03
	.byte	$03
	.byte	$03
	.byte	$03
	.byte	$03
	.byte	$03
	.byte	$03
	.byte	$03
	.byte	$03
	.byte	$03
	.byte	$82
	.byte	$83
	.byte	$03
	.byte	$03
	.byte	$03
	.byte	$03
	.byte	$03
	.byte	$03
	.byte	$03
	.byte	$03
	.byte	$03
	.byte	$03
	.byte	$03
	.byte	$03
	.byte	$03
	.byte	$03
	.byte	$03
	.byte	$03
	.byte	$03
	.byte	$03
	.byte	$03
	.byte	$03
	.byte	$03
	.byte	$03
	.byte	$03
	.byte	$03
	.byte	$03
	.byte	$03
	.byte	$03
	.byte	$03
	.byte	$03
	.byte	$03
	.byte	$92
	.byte	$93
	.byte	$03
	.byte	$03
	.byte	$03
	.byte	$03
	.byte	$03
	.byte	$03
	.byte	$03
	.byte	$03
	.byte	$03
	.byte	$03
	.byte	$03
	.byte	$03
	.byte	$03
	.byte	$03
	.byte	$03
	.byte	$03
	.byte	$03
	.byte	$03
	.byte	$03
	.byte	$03
	.byte	$03
	.byte	$03
	.byte	$03
	.byte	$03
	.byte	$03
	.byte	$03
	.byte	$03
	.byte	$03
	.byte	$03
	.byte	$03
	.byte	$82
	.byte	$83
	.byte	$03
	.byte	$03
	.byte	$03
	.byte	$03
	.byte	$03
	.byte	$03
	.byte	$03
	.byte	$03
	.byte	$03
	.byte	$03
	.byte	$03
	.byte	$03
	.byte	$03
	.byte	$03
	.byte	$03
	.byte	$03
	.byte	$03
	.byte	$03
	.byte	$03
	.byte	$03
	.byte	$03
	.byte	$03
	.byte	$03
	.byte	$03
	.byte	$03
	.byte	$03
	.byte	$03
	.byte	$03
	.byte	$03
	.byte	$03
	.byte	$92
	.byte	$93
	.byte	$03
	.byte	$03
	.byte	$03
	.byte	$03
	.byte	$03
	.byte	$03
	.byte	$03
	.byte	$03
	.byte	$03
	.byte	$03
	.byte	$03
	.byte	$03
	.byte	$03
	.byte	$03
	.byte	$03
	.byte	$03
	.byte	$03
	.byte	$03
	.byte	$03
	.byte	$03
	.byte	$03
	.byte	$03
	.byte	$03
	.byte	$03
	.byte	$03
	.byte	$03
	.byte	$03
	.byte	$03
	.byte	$03
	.byte	$03
	.byte	$82
	.byte	$83
	.byte	$03
	.byte	$03
	.byte	$03
	.byte	$03
	.byte	$03
	.byte	$03
	.byte	$82
	.byte	$81
	.byte	$80
	.byte	$81
	.byte	$80
	.byte	$81
	.byte	$80
	.byte	$83
	.byte	$03
	.byte	$03
	.byte	$03
	.byte	$03
	.byte	$03
	.byte	$03
	.byte	$03
	.byte	$03
	.byte	$03
	.byte	$03
	.byte	$03
	.byte	$03
	.byte	$03
	.byte	$03
	.byte	$82
	.byte	$81
	.byte	$92
	.byte	$93
	.byte	$03
	.byte	$03
	.byte	$03
	.byte	$03
	.byte	$03
	.byte	$03
	.byte	$92
	.byte	$91
	.byte	$90
	.byte	$91
	.byte	$90
	.byte	$91
	.byte	$90
	.byte	$93
	.byte	$03
	.byte	$03
	.byte	$03
	.byte	$03
	.byte	$03
	.byte	$03
	.byte	$03
	.byte	$03
	.byte	$03
	.byte	$03
	.byte	$03
	.byte	$03
	.byte	$03
	.byte	$03
	.byte	$92
	.byte	$91
	.byte	$82
	.byte	$83
	.byte	$03
	.byte	$03
	.byte	$03
	.byte	$03
	.byte	$03
	.byte	$03
	.byte	$03
	.byte	$03
	.byte	$03
	.byte	$03
	.byte	$03
	.byte	$03
	.byte	$03
	.byte	$03
	.byte	$03
	.byte	$03
	.byte	$03
	.byte	$03
	.byte	$03
	.byte	$03
	.byte	$03
	.byte	$03
	.byte	$03
	.byte	$03
	.byte	$03
	.byte	$03
	.byte	$03
	.byte	$03
	.byte	$03
	.byte	$03
	.byte	$92
	.byte	$93
	.byte	$03
	.byte	$03
	.byte	$03
	.byte	$03
	.byte	$03
	.byte	$03
	.byte	$03
	.byte	$03
	.byte	$03
	.byte	$03
	.byte	$03
	.byte	$03
	.byte	$03
	.byte	$03
	.byte	$03
	.byte	$03
	.byte	$03
	.byte	$03
	.byte	$03
	.byte	$03
	.byte	$03
	.byte	$03
	.byte	$03
	.byte	$03
	.byte	$03
	.byte	$03
	.byte	$03
	.byte	$03
	.byte	$03
	.byte	$03
	.byte	$82
	.byte	$83
	.byte	$03
	.byte	$03
	.byte	$03
	.byte	$03
	.byte	$03
	.byte	$03
	.byte	$03
	.byte	$03
	.byte	$03
	.byte	$03
	.byte	$03
	.byte	$03
	.byte	$03
	.byte	$03
	.byte	$03
	.byte	$03
	.byte	$03
	.byte	$03
	.byte	$82
	.byte	$81
	.byte	$80
	.byte	$81
	.byte	$80
	.byte	$81
	.byte	$80
	.byte	$83
	.byte	$03
	.byte	$03
	.byte	$03
	.byte	$03
	.byte	$92
	.byte	$93
	.byte	$03
	.byte	$03
	.byte	$03
	.byte	$03
	.byte	$03
	.byte	$03
	.byte	$03
	.byte	$03
	.byte	$03
	.byte	$03
	.byte	$03
	.byte	$03
	.byte	$03
	.byte	$03
	.byte	$03
	.byte	$03
	.byte	$03
	.byte	$03
	.byte	$92
	.byte	$91
	.byte	$90
	.byte	$91
	.byte	$90
	.byte	$91
	.byte	$90
	.byte	$93
	.byte	$03
	.byte	$03
	.byte	$03
	.byte	$03
	.byte	$82
	.byte	$83
	.byte	$03
	.byte	$03
	.byte	$03
	.byte	$03
	.byte	$03
	.byte	$03
	.byte	$03
	.byte	$03
	.byte	$03
	.byte	$03
	.byte	$03
	.byte	$03
	.byte	$03
	.byte	$03
	.byte	$03
	.byte	$03
	.byte	$03
	.byte	$03
	.byte	$03
	.byte	$03
	.byte	$03
	.byte	$03
	.byte	$03
	.byte	$03
	.byte	$03
	.byte	$03
	.byte	$03
	.byte	$03
	.byte	$03
	.byte	$03
	.byte	$92
	.byte	$93
	.byte	$03
	.byte	$03
	.byte	$03
	.byte	$03
	.byte	$03
	.byte	$03
	.byte	$03
	.byte	$03
	.byte	$03
	.byte	$03
	.byte	$03
	.byte	$03
	.byte	$03
	.byte	$03
	.byte	$03
	.byte	$03
	.byte	$03
	.byte	$03
	.byte	$03
	.byte	$03
	.byte	$03
	.byte	$03
	.byte	$03
	.byte	$03
	.byte	$03
	.byte	$03
	.byte	$03
	.byte	$03
	.byte	$03
	.byte	$03
	.byte	$82
	.byte	$83
	.byte	$03
	.byte	$03
	.byte	$03
	.byte	$03
	.byte	$03
	.byte	$03
	.byte	$03
	.byte	$03
	.byte	$82
	.byte	$81
	.byte	$80
	.byte	$81
	.byte	$80
	.byte	$81
	.byte	$80
	.byte	$83
	.byte	$03
	.byte	$03
	.byte	$03
	.byte	$03
	.byte	$03
	.byte	$03
	.byte	$03
	.byte	$03
	.byte	$03
	.byte	$03
	.byte	$03
	.byte	$03
	.byte	$03
	.byte	$03
	.byte	$92
	.byte	$93
	.byte	$03
	.byte	$03
	.byte	$03
	.byte	$03
	.byte	$03
	.byte	$03
	.byte	$03
	.byte	$03
	.byte	$92
	.byte	$91
	.byte	$90
	.byte	$91
	.byte	$90
	.byte	$91
	.byte	$90
	.byte	$93
	.byte	$03
	.byte	$03
	.byte	$03
	.byte	$03
	.byte	$03
	.byte	$03
	.byte	$03
	.byte	$03
	.byte	$03
	.byte	$03
	.byte	$03
	.byte	$03
	.byte	$03
	.byte	$03
	.byte	$82
	.byte	$83
	.byte	$03
	.byte	$03
	.byte	$03
	.byte	$03
	.byte	$03
	.byte	$03
	.byte	$03
	.byte	$03
	.byte	$03
	.byte	$03
	.byte	$03
	.byte	$03
	.byte	$03
	.byte	$03
	.byte	$03
	.byte	$03
	.byte	$03
	.byte	$03
	.byte	$03
	.byte	$03
	.byte	$03
	.byte	$03
	.byte	$03
	.byte	$03
	.byte	$03
	.byte	$03
	.byte	$03
	.byte	$03
	.byte	$03
	.byte	$03
	.byte	$92
	.byte	$93
	.byte	$03
	.byte	$03
	.byte	$03
	.byte	$03
	.byte	$03
	.byte	$03
	.byte	$03
	.byte	$03
	.byte	$03
	.byte	$03
	.byte	$03
	.byte	$03
	.byte	$03
	.byte	$03
	.byte	$03
	.byte	$03
	.byte	$03
	.byte	$03
	.byte	$03
	.byte	$03
	.byte	$03
	.byte	$03
	.byte	$03
	.byte	$03
	.byte	$03
	.byte	$03
	.byte	$03
	.byte	$03
	.byte	$03
	.byte	$03
	.byte	$82
	.byte	$83
	.byte	$03
	.byte	$03
	.byte	$03
	.byte	$03
	.byte	$03
	.byte	$03
	.byte	$03
	.byte	$03
	.byte	$03
	.byte	$03
	.byte	$03
	.byte	$03
	.byte	$03
	.byte	$03
	.byte	$03
	.byte	$03
	.byte	$03
	.byte	$03
	.byte	$03
	.byte	$03
	.byte	$03
	.byte	$03
	.byte	$03
	.byte	$03
	.byte	$03
	.byte	$03
	.byte	$03
	.byte	$03
	.byte	$03
	.byte	$03
	.byte	$92
	.byte	$93
	.byte	$03
	.byte	$03
	.byte	$03
	.byte	$03
	.byte	$03
	.byte	$03
	.byte	$03
	.byte	$03
	.byte	$03
	.byte	$03
	.byte	$03
	.byte	$03
	.byte	$03
	.byte	$03
	.byte	$03
	.byte	$03
	.byte	$03
	.byte	$03
	.byte	$03
	.byte	$03
	.byte	$03
	.byte	$03
	.byte	$03
	.byte	$03
	.byte	$03
	.byte	$03
	.byte	$03
	.byte	$03
	.byte	$03
	.byte	$03
	.byte	$82
	.byte	$81
	.byte	$80
	.byte	$81
	.byte	$80
	.byte	$81
	.byte	$80
	.byte	$81
	.byte	$80
	.byte	$81
	.byte	$80
	.byte	$81
	.byte	$80
	.byte	$81
	.byte	$80
	.byte	$81
	.byte	$80
	.byte	$81
	.byte	$80
	.byte	$81
	.byte	$80
	.byte	$81
	.byte	$80
	.byte	$81
	.byte	$80
	.byte	$81
	.byte	$80
	.byte	$81
	.byte	$80
	.byte	$81
	.byte	$80
	.byte	$81
	.byte	$92
	.byte	$91
	.byte	$90
	.byte	$91
	.byte	$90
	.byte	$91
	.byte	$90
	.byte	$91
	.byte	$90
	.byte	$91
	.byte	$90
	.byte	$91
	.byte	$90
	.byte	$91
	.byte	$90
	.byte	$91
	.byte	$90
	.byte	$91
	.byte	$90
	.byte	$91
	.byte	$90
	.byte	$91
	.byte	$90
	.byte	$91
	.byte	$90
	.byte	$91
	.byte	$90
	.byte	$91
	.byte	$90
	.byte	$91
	.byte	$90
	.byte	$91
	.byte	$6a
	.byte	$5a
	.byte	$5a
	.byte	$5a
	.byte	$5a
	.byte	$5a
	.byte	$5a
	.byte	$5a
	.byte	$66
	.byte	$55
	.byte	$55
	.byte	$55
	.byte	$55
	.byte	$55
	.byte	$55
	.byte	$55
	.byte	$66
	.byte	$55
	.byte	$55
	.byte	$55
	.byte	$55
	.byte	$55
	.byte	$55
	.byte	$55
	.byte	$66
	.byte	$55
	.byte	$55
	.byte	$55
	.byte	$55
	.byte	$55
	.byte	$55
	.byte	$55
	.byte	$66
	.byte	$55
	.byte	$55
	.byte	$55
	.byte	$55
	.byte	$55
	.byte	$55
	.byte	$55
	.byte	$66
	.byte	$55
	.byte	$55
	.byte	$55
	.byte	$55
	.byte	$55
	.byte	$55
	.byte	$55
	.byte	$66
	.byte	$55
	.byte	$55
	.byte	$55
	.byte	$55
	.byte	$55
	.byte	$55
	.byte	$55
	.byte	$0a
	.byte	$0a
	.byte	$0a
	.byte	$0a
	.byte	$0a
	.byte	$0a
	.byte	$0a
	.byte	$0a
_Level2B:
	.byte	$00
	.byte	$80
	.byte	$81
	.byte	$80
	.byte	$81
	.byte	$80
	.byte	$81
	.byte	$80
	.byte	$81
	.byte	$80
	.byte	$81
	.byte	$80
	.byte	$81
	.byte	$80
	.byte	$81
	.byte	$80
	.byte	$81
	.byte	$80
	.byte	$81
	.byte	$80
	.byte	$81
	.byte	$80
	.byte	$81
	.byte	$80
	.byte	$81
	.byte	$80
	.byte	$81
	.byte	$80
	.byte	$81
	.byte	$80
	.byte	$81
	.byte	$82
	.byte	$81
	.byte	$90
	.byte	$91
	.byte	$90
	.byte	$91
	.byte	$90
	.byte	$91
	.byte	$90
	.byte	$91
	.byte	$90
	.byte	$91
	.byte	$90
	.byte	$91
	.byte	$90
	.byte	$91
	.byte	$90
	.byte	$91
	.byte	$90
	.byte	$91
	.byte	$90
	.byte	$91
	.byte	$90
	.byte	$91
	.byte	$90
	.byte	$91
	.byte	$90
	.byte	$91
	.byte	$90
	.byte	$91
	.byte	$90
	.byte	$91
	.byte	$92
	.byte	$91
	.byte	$03
	.byte	$00
	.byte	$1d
	.byte	$82
	.byte	$83
	.byte	$03
	.byte	$00
	.byte	$1d
	.byte	$92
	.byte	$93
	.byte	$03
	.byte	$00
	.byte	$1d
	.byte	$82
	.byte	$83
	.byte	$03
	.byte	$00
	.byte	$1d
	.byte	$92
	.byte	$93
	.byte	$03
	.byte	$00
	.byte	$1d
	.byte	$82
	.byte	$83
	.byte	$03
	.byte	$00
	.byte	$1d
	.byte	$92
	.byte	$93
	.byte	$03
	.byte	$00
	.byte	$1d
	.byte	$82
	.byte	$83
	.byte	$03
	.byte	$00
	.byte	$1d
	.byte	$92
	.byte	$93
	.byte	$03
	.byte	$00
	.byte	$09
	.byte	$82
	.byte	$81
	.byte	$80
	.byte	$81
	.byte	$80
	.byte	$81
	.byte	$80
	.byte	$83
	.byte	$03
	.byte	$00
	.byte	$0b
	.byte	$82
	.byte	$83
	.byte	$03
	.byte	$00
	.byte	$09
	.byte	$92
	.byte	$91
	.byte	$90
	.byte	$91
	.byte	$90
	.byte	$91
	.byte	$90
	.byte	$93
	.byte	$03
	.byte	$00
	.byte	$0b
	.byte	$92
	.byte	$93
	.byte	$03
	.byte	$00
	.byte	$1d
	.byte	$82
	.byte	$83
	.byte	$03
	.byte	$00
	.byte	$1d
	.byte	$92
	.byte	$93
	.byte	$80
	.byte	$81
	.byte	$80
	.byte	$81
	.byte	$80
	.byte	$83
	.byte	$03
	.byte	$00
	.byte	$17
	.byte	$82
	.byte	$83
	.byte	$90
	.byte	$91
	.byte	$90
	.byte	$91
	.byte	$90
	.byte	$93
	.byte	$03
	.byte	$00
	.byte	$17
	.byte	$92
	.byte	$93
	.byte	$03
	.byte	$00
	.byte	$17
	.byte	$06
	.byte	$07
	.byte	$03
	.byte	$00
	.byte	$03
	.byte	$82
	.byte	$83
	.byte	$03
	.byte	$00
	.byte	$17
	.byte	$16
	.byte	$17
	.byte	$03
	.byte	$00
	.byte	$03
	.byte	$92
	.byte	$93
	.byte	$03
	.byte	$00
	.byte	$13
	.byte	$82
	.byte	$81
	.byte	$80
	.byte	$81
	.byte	$80
	.byte	$81
	.byte	$80
	.byte	$83
	.byte	$03
	.byte	$03
	.byte	$82
	.byte	$83
	.byte	$03
	.byte	$00
	.byte	$13
	.byte	$92
	.byte	$91
	.byte	$90
	.byte	$91
	.byte	$90
	.byte	$91
	.byte	$90
	.byte	$93
	.byte	$03
	.byte	$03
	.byte	$92
	.byte	$93
	.byte	$03
	.byte	$00
	.byte	$1d
	.byte	$82
	.byte	$83
	.byte	$03
	.byte	$00
	.byte	$1d
	.byte	$92
	.byte	$93
	.byte	$03
	.byte	$00
	.byte	$09
	.byte	$82
	.byte	$81
	.byte	$80
	.byte	$81
	.byte	$80
	.byte	$81
	.byte	$80
	.byte	$83
	.byte	$03
	.byte	$00
	.byte	$0b
	.byte	$82
	.byte	$83
	.byte	$03
	.byte	$00
	.byte	$09
	.byte	$92
	.byte	$91
	.byte	$90
	.byte	$91
	.byte	$90
	.byte	$91
	.byte	$90
	.byte	$93
	.byte	$03
	.byte	$00
	.byte	$0b
	.byte	$92
	.byte	$93
	.byte	$03
	.byte	$00
	.byte	$1d
	.byte	$82
	.byte	$83
	.byte	$03
	.byte	$00
	.byte	$1d
	.byte	$92
	.byte	$93
	.byte	$03
	.byte	$00
	.byte	$1d
	.byte	$82
	.byte	$83
	.byte	$03
	.byte	$00
	.byte	$1d
	.byte	$92
	.byte	$93
	.byte	$80
	.byte	$81
	.byte	$80
	.byte	$81
	.byte	$80
	.byte	$81
	.byte	$80
	.byte	$81
	.byte	$80
	.byte	$81
	.byte	$80
	.byte	$81
	.byte	$80
	.byte	$81
	.byte	$80
	.byte	$81
	.byte	$80
	.byte	$81
	.byte	$80
	.byte	$81
	.byte	$80
	.byte	$81
	.byte	$80
	.byte	$81
	.byte	$80
	.byte	$81
	.byte	$80
	.byte	$81
	.byte	$80
	.byte	$81
	.byte	$82
	.byte	$81
	.byte	$90
	.byte	$91
	.byte	$90
	.byte	$91
	.byte	$90
	.byte	$91
	.byte	$90
	.byte	$91
	.byte	$90
	.byte	$91
	.byte	$90
	.byte	$91
	.byte	$90
	.byte	$91
	.byte	$90
	.byte	$91
	.byte	$90
	.byte	$91
	.byte	$90
	.byte	$91
	.byte	$90
	.byte	$91
	.byte	$90
	.byte	$91
	.byte	$90
	.byte	$91
	.byte	$90
	.byte	$91
	.byte	$90
	.byte	$91
	.byte	$92
	.byte	$91
	.byte	$5a
	.byte	$00
	.byte	$06
	.byte	$9a
	.byte	$55
	.byte	$00
	.byte	$06
	.byte	$99
	.byte	$55
	.byte	$00
	.byte	$06
	.byte	$99
	.byte	$55
	.byte	$00
	.byte	$06
	.byte	$99
	.byte	$55
	.byte	$00
	.byte	$05
	.byte	$57
	.byte	$99
	.byte	$55
	.byte	$00
	.byte	$06
	.byte	$99
	.byte	$55
	.byte	$00
	.byte	$06
	.byte	$99
	.byte	$0a
	.byte	$00
	.byte	$07
	.byte	$00
	.byte	$00
_Level3A:
	.byte	$00
	.byte	$82
	.byte	$81
	.byte	$80
	.byte	$81
	.byte	$80
	.byte	$81
	.byte	$80
	.byte	$81
	.byte	$80
	.byte	$81
	.byte	$80
	.byte	$81
	.byte	$80
	.byte	$81
	.byte	$80
	.byte	$81
	.byte	$80
	.byte	$81
	.byte	$80
	.byte	$81
	.byte	$80
	.byte	$81
	.byte	$80
	.byte	$81
	.byte	$80
	.byte	$81
	.byte	$80
	.byte	$81
	.byte	$80
	.byte	$81
	.byte	$80
	.byte	$81
	.byte	$92
	.byte	$91
	.byte	$90
	.byte	$91
	.byte	$90
	.byte	$91
	.byte	$90
	.byte	$91
	.byte	$90
	.byte	$91
	.byte	$90
	.byte	$91
	.byte	$90
	.byte	$91
	.byte	$90
	.byte	$91
	.byte	$90
	.byte	$91
	.byte	$90
	.byte	$91
	.byte	$90
	.byte	$91
	.byte	$90
	.byte	$91
	.byte	$90
	.byte	$91
	.byte	$90
	.byte	$91
	.byte	$90
	.byte	$91
	.byte	$90
	.byte	$91
	.byte	$82
	.byte	$83
	.byte	$03
	.byte	$00
	.byte	$1d
	.byte	$92
	.byte	$93
	.byte	$03
	.byte	$00
	.byte	$1d
	.byte	$82
	.byte	$83
	.byte	$03
	.byte	$00
	.byte	$1d
	.byte	$92
	.byte	$93
	.byte	$03
	.byte	$00
	.byte	$1d
	.byte	$82
	.byte	$83
	.byte	$03
	.byte	$00
	.byte	$19
	.byte	$82
	.byte	$81
	.byte	$80
	.byte	$81
	.byte	$92
	.byte	$93
	.byte	$03
	.byte	$00
	.byte	$19
	.byte	$92
	.byte	$91
	.byte	$90
	.byte	$91
	.byte	$82
	.byte	$83
	.byte	$03
	.byte	$00
	.byte	$1d
	.byte	$92
	.byte	$93
	.byte	$03
	.byte	$00
	.byte	$1d
	.byte	$82
	.byte	$83
	.byte	$03
	.byte	$00
	.byte	$0d
	.byte	$82
	.byte	$81
	.byte	$80
	.byte	$81
	.byte	$80
	.byte	$81
	.byte	$80
	.byte	$83
	.byte	$03
	.byte	$00
	.byte	$07
	.byte	$92
	.byte	$93
	.byte	$03
	.byte	$00
	.byte	$0d
	.byte	$92
	.byte	$91
	.byte	$90
	.byte	$91
	.byte	$90
	.byte	$91
	.byte	$90
	.byte	$93
	.byte	$03
	.byte	$00
	.byte	$07
	.byte	$82
	.byte	$83
	.byte	$03
	.byte	$00
	.byte	$1d
	.byte	$92
	.byte	$93
	.byte	$03
	.byte	$00
	.byte	$1d
	.byte	$82
	.byte	$83
	.byte	$03
	.byte	$03
	.byte	$82
	.byte	$81
	.byte	$80
	.byte	$81
	.byte	$80
	.byte	$81
	.byte	$80
	.byte	$83
	.byte	$03
	.byte	$00
	.byte	$13
	.byte	$92
	.byte	$93
	.byte	$03
	.byte	$03
	.byte	$92
	.byte	$91
	.byte	$92
	.byte	$93
	.byte	$92
	.byte	$93
	.byte	$92
	.byte	$93
	.byte	$03
	.byte	$00
	.byte	$13
	.byte	$82
	.byte	$83
	.byte	$03
	.byte	$00
	.byte	$1d
	.byte	$92
	.byte	$93
	.byte	$03
	.byte	$00
	.byte	$1d
	.byte	$82
	.byte	$83
	.byte	$03
	.byte	$00
	.byte	$0d
	.byte	$82
	.byte	$81
	.byte	$80
	.byte	$81
	.byte	$80
	.byte	$81
	.byte	$80
	.byte	$83
	.byte	$03
	.byte	$00
	.byte	$05
	.byte	$82
	.byte	$81
	.byte	$92
	.byte	$93
	.byte	$03
	.byte	$00
	.byte	$0d
	.byte	$92
	.byte	$91
	.byte	$90
	.byte	$91
	.byte	$90
	.byte	$91
	.byte	$90
	.byte	$93
	.byte	$03
	.byte	$00
	.byte	$05
	.byte	$92
	.byte	$91
	.byte	$82
	.byte	$83
	.byte	$03
	.byte	$00
	.byte	$1d
	.byte	$92
	.byte	$93
	.byte	$03
	.byte	$00
	.byte	$1d
	.byte	$82
	.byte	$83
	.byte	$03
	.byte	$00
	.byte	$1d
	.byte	$92
	.byte	$93
	.byte	$03
	.byte	$00
	.byte	$1d
	.byte	$82
	.byte	$83
	.byte	$03
	.byte	$00
	.byte	$1d
	.byte	$92
	.byte	$93
	.byte	$03
	.byte	$00
	.byte	$1d
	.byte	$82
	.byte	$83
	.byte	$03
	.byte	$00
	.byte	$1d
	.byte	$92
	.byte	$93
	.byte	$03
	.byte	$00
	.byte	$1d
	.byte	$82
	.byte	$81
	.byte	$80
	.byte	$81
	.byte	$80
	.byte	$81
	.byte	$80
	.byte	$81
	.byte	$80
	.byte	$81
	.byte	$80
	.byte	$81
	.byte	$80
	.byte	$81
	.byte	$80
	.byte	$81
	.byte	$80
	.byte	$81
	.byte	$80
	.byte	$81
	.byte	$80
	.byte	$81
	.byte	$80
	.byte	$81
	.byte	$80
	.byte	$81
	.byte	$80
	.byte	$81
	.byte	$80
	.byte	$81
	.byte	$80
	.byte	$81
	.byte	$92
	.byte	$91
	.byte	$90
	.byte	$91
	.byte	$90
	.byte	$91
	.byte	$90
	.byte	$91
	.byte	$90
	.byte	$91
	.byte	$90
	.byte	$91
	.byte	$90
	.byte	$91
	.byte	$90
	.byte	$91
	.byte	$90
	.byte	$91
	.byte	$90
	.byte	$91
	.byte	$90
	.byte	$91
	.byte	$90
	.byte	$91
	.byte	$90
	.byte	$91
	.byte	$90
	.byte	$91
	.byte	$90
	.byte	$91
	.byte	$90
	.byte	$91
	.byte	$ea
	.byte	$fa
	.byte	$00
	.byte	$06
	.byte	$ee
	.byte	$ff
	.byte	$00
	.byte	$05
	.byte	$0f
	.byte	$ee
	.byte	$ff
	.byte	$00
	.byte	$02
	.byte	$0f
	.byte	$0f
	.byte	$ff
	.byte	$ff
	.byte	$ee
	.byte	$0f
	.byte	$0f
	.byte	$ff
	.byte	$00
	.byte	$04
	.byte	$ee
	.byte	$ff
	.byte	$00
	.byte	$02
	.byte	$0f
	.byte	$0f
	.byte	$ff
	.byte	$3f
	.byte	$ee
	.byte	$ff
	.byte	$00
	.byte	$06
	.byte	$ee
	.byte	$ff
	.byte	$00
	.byte	$06
	.byte	$0a
	.byte	$00
	.byte	$07
	.byte	$00
	.byte	$00
_Level3B:
	.byte	$00
	.byte	$80
	.byte	$81
	.byte	$80
	.byte	$81
	.byte	$80
	.byte	$81
	.byte	$80
	.byte	$81
	.byte	$80
	.byte	$81
	.byte	$80
	.byte	$81
	.byte	$80
	.byte	$81
	.byte	$80
	.byte	$81
	.byte	$80
	.byte	$81
	.byte	$80
	.byte	$81
	.byte	$80
	.byte	$81
	.byte	$80
	.byte	$81
	.byte	$80
	.byte	$81
	.byte	$80
	.byte	$81
	.byte	$80
	.byte	$81
	.byte	$82
	.byte	$81
	.byte	$90
	.byte	$91
	.byte	$90
	.byte	$91
	.byte	$90
	.byte	$91
	.byte	$90
	.byte	$91
	.byte	$90
	.byte	$91
	.byte	$90
	.byte	$91
	.byte	$90
	.byte	$91
	.byte	$90
	.byte	$91
	.byte	$90
	.byte	$91
	.byte	$90
	.byte	$91
	.byte	$90
	.byte	$91
	.byte	$90
	.byte	$91
	.byte	$90
	.byte	$91
	.byte	$90
	.byte	$91
	.byte	$90
	.byte	$91
	.byte	$92
	.byte	$91
	.byte	$03
	.byte	$00
	.byte	$1d
	.byte	$82
	.byte	$83
	.byte	$03
	.byte	$00
	.byte	$1d
	.byte	$92
	.byte	$93
	.byte	$03
	.byte	$00
	.byte	$19
	.byte	$06
	.byte	$07
	.byte	$03
	.byte	$03
	.byte	$82
	.byte	$83
	.byte	$03
	.byte	$00
	.byte	$19
	.byte	$16
	.byte	$17
	.byte	$03
	.byte	$03
	.byte	$92
	.byte	$93
	.byte	$80
	.byte	$81
	.byte	$80
	.byte	$83
	.byte	$03
	.byte	$00
	.byte	$0f
	.byte	$82
	.byte	$81
	.byte	$80
	.byte	$81
	.byte	$80
	.byte	$81
	.byte	$80
	.byte	$83
	.byte	$03
	.byte	$03
	.byte	$82
	.byte	$83
	.byte	$90
	.byte	$91
	.byte	$90
	.byte	$93
	.byte	$03
	.byte	$00
	.byte	$0f
	.byte	$92
	.byte	$91
	.byte	$90
	.byte	$91
	.byte	$90
	.byte	$91
	.byte	$90
	.byte	$93
	.byte	$03
	.byte	$03
	.byte	$92
	.byte	$93
	.byte	$03
	.byte	$00
	.byte	$1d
	.byte	$82
	.byte	$83
	.byte	$03
	.byte	$00
	.byte	$1d
	.byte	$92
	.byte	$93
	.byte	$03
	.byte	$00
	.byte	$09
	.byte	$82
	.byte	$81
	.byte	$80
	.byte	$81
	.byte	$80
	.byte	$81
	.byte	$80
	.byte	$83
	.byte	$03
	.byte	$00
	.byte	$0b
	.byte	$82
	.byte	$83
	.byte	$03
	.byte	$00
	.byte	$09
	.byte	$92
	.byte	$91
	.byte	$90
	.byte	$91
	.byte	$90
	.byte	$91
	.byte	$90
	.byte	$93
	.byte	$03
	.byte	$00
	.byte	$0b
	.byte	$92
	.byte	$93
	.byte	$03
	.byte	$00
	.byte	$1d
	.byte	$82
	.byte	$83
	.byte	$03
	.byte	$00
	.byte	$1d
	.byte	$92
	.byte	$93
	.byte	$03
	.byte	$00
	.byte	$1d
	.byte	$82
	.byte	$83
	.byte	$03
	.byte	$00
	.byte	$1d
	.byte	$92
	.byte	$93
	.byte	$03
	.byte	$00
	.byte	$1d
	.byte	$82
	.byte	$83
	.byte	$03
	.byte	$00
	.byte	$1d
	.byte	$92
	.byte	$93
	.byte	$80
	.byte	$81
	.byte	$80
	.byte	$81
	.byte	$80
	.byte	$83
	.byte	$03
	.byte	$00
	.byte	$17
	.byte	$82
	.byte	$83
	.byte	$90
	.byte	$91
	.byte	$90
	.byte	$91
	.byte	$90
	.byte	$93
	.byte	$03
	.byte	$00
	.byte	$17
	.byte	$92
	.byte	$93
	.byte	$03
	.byte	$00
	.byte	$1d
	.byte	$82
	.byte	$83
	.byte	$03
	.byte	$00
	.byte	$1d
	.byte	$92
	.byte	$93
	.byte	$03
	.byte	$00
	.byte	$09
	.byte	$82
	.byte	$81
	.byte	$80
	.byte	$81
	.byte	$80
	.byte	$81
	.byte	$80
	.byte	$83
	.byte	$03
	.byte	$00
	.byte	$0b
	.byte	$82
	.byte	$83
	.byte	$03
	.byte	$00
	.byte	$09
	.byte	$92
	.byte	$91
	.byte	$90
	.byte	$91
	.byte	$90
	.byte	$91
	.byte	$90
	.byte	$93
	.byte	$03
	.byte	$00
	.byte	$0b
	.byte	$92
	.byte	$93
	.byte	$03
	.byte	$00
	.byte	$1d
	.byte	$82
	.byte	$83
	.byte	$03
	.byte	$00
	.byte	$1d
	.byte	$92
	.byte	$93
	.byte	$03
	.byte	$00
	.byte	$1d
	.byte	$82
	.byte	$83
	.byte	$03
	.byte	$00
	.byte	$1d
	.byte	$92
	.byte	$93
	.byte	$80
	.byte	$81
	.byte	$80
	.byte	$81
	.byte	$80
	.byte	$81
	.byte	$80
	.byte	$81
	.byte	$80
	.byte	$81
	.byte	$80
	.byte	$81
	.byte	$80
	.byte	$81
	.byte	$80
	.byte	$81
	.byte	$80
	.byte	$81
	.byte	$80
	.byte	$81
	.byte	$80
	.byte	$81
	.byte	$80
	.byte	$81
	.byte	$80
	.byte	$81
	.byte	$80
	.byte	$81
	.byte	$80
	.byte	$81
	.byte	$82
	.byte	$81
	.byte	$90
	.byte	$91
	.byte	$90
	.byte	$91
	.byte	$90
	.byte	$91
	.byte	$90
	.byte	$91
	.byte	$90
	.byte	$91
	.byte	$90
	.byte	$91
	.byte	$90
	.byte	$91
	.byte	$90
	.byte	$91
	.byte	$90
	.byte	$91
	.byte	$90
	.byte	$91
	.byte	$90
	.byte	$91
	.byte	$90
	.byte	$91
	.byte	$90
	.byte	$91
	.byte	$90
	.byte	$91
	.byte	$90
	.byte	$91
	.byte	$92
	.byte	$91
	.byte	$fa
	.byte	$00
	.byte	$06
	.byte	$ba
	.byte	$0f
	.byte	$ff
	.byte	$00
	.byte	$03
	.byte	$0f
	.byte	$03
	.byte	$bb
	.byte	$ff
	.byte	$ff
	.byte	$3f
	.byte	$0f
	.byte	$cf
	.byte	$ff
	.byte	$ff
	.byte	$bb
	.byte	$ff
	.byte	$00
	.byte	$06
	.byte	$bb
	.byte	$0f
	.byte	$cf
	.byte	$ff
	.byte	$00
	.byte	$04
	.byte	$bb
	.byte	$ff
	.byte	$ff
	.byte	$3f
	.byte	$0f
	.byte	$cf
	.byte	$ff
	.byte	$ff
	.byte	$bb
	.byte	$ff
	.byte	$00
	.byte	$06
	.byte	$bb
	.byte	$0a
	.byte	$00
	.byte	$07
	.byte	$00
	.byte	$00
_palette:
	.byte	$0f
	.byte	$00
	.byte	$10
	.byte	$30
	.byte	$0f
	.byte	$01
	.byte	$11
	.byte	$31
	.byte	$0f
	.byte	$05
	.byte	$16
	.byte	$27
	.byte	$0f
	.byte	$09
	.byte	$19
	.byte	$29
_spritePalette:
	.byte	$0f
	.byte	$00
	.byte	$10
	.byte	$30
	.byte	$0f
	.byte	$01
	.byte	$11
	.byte	$21
	.byte	$0f
	.byte	$05
	.byte	$16
	.byte	$36
	.byte	$0f
	.byte	$09
	.byte	$19
	.byte	$39
_text:
	.byte	$4E,$6F,$63,$74,$75,$72,$6E,$65,$73,$20,$42,$6C,$6F,$6F,$64,$00
_titlePrompt:
	.byte	$50,$72,$65,$73,$73,$20,$53,$54,$41,$52,$54,$00
_endScreenTitle:
	.byte	$45,$6E,$64,$20,$53,$63,$72,$65,$65,$6E,$00
_endScreenPrompt:
	.byte	$54,$6F,$20,$70,$6C,$61,$79,$20,$61,$67,$61,$69,$6E,$00

.segment	"BSS"

.segment	"ZEROPAGE"
_inputPad:
	.res	1,$00
_movementPad:
	.res	1,$00
_currentLevelData:
	.res	2,$00

; ---------------------------------------------------------------
; void __near__ DrawTitleScreen (void)
; ---------------------------------------------------------------

.segment	"CODE"

.proc	_DrawTitleScreen: near

.segment	"CODE"

;
; ppu_off(); // screen off
;
	jsr     _ppu_off
;
; pal_bg(palette); // load the BG palette
;
	lda     #<(_palette)
	ldx     #>(_palette)
	jsr     _pal_bg
;
; vram_adr(NTADR_A(8, 8)); // places text at screen position
;
	ldx     #$21
	lda     #$08
	jsr     _vram_adr
;
; vram_write(text, sizeof(text) - 1); //write Title to screen
;
	lda     #<(_text)
	ldx     #>(_text)
	jsr     pushax
	ldx     #$00
	lda     #$0F
	jsr     _vram_write
;
; vram_adr(NTADR_A(10, 14));
;
	ldx     #$21
	lda     #$CA
	jsr     _vram_adr
;
; vram_write(titlePrompt, sizeof(titlePrompt) - 1);
;
	lda     #<(_titlePrompt)
	ldx     #>(_titlePrompt)
	jsr     pushax
	ldx     #$00
	lda     #$0B
	jsr     _vram_write
;
; ppu_on_all(); // turn on screen
;
	jmp     _ppu_on_all

.endproc

; ---------------------------------------------------------------
; void __near__ GameLoop (void)
; ---------------------------------------------------------------

.segment	"CODE"

.proc	_GameLoop: near

.segment	"CODE"

;
; ppu_off(); 
;
	jsr     _ppu_off
;
; switch(currentLevel)
;
	lda     _currentLevel
	ldx     _currentLevel+1
;
; }
;
	cpx     #$00
	jne     L0003
	cmp     #$01
	beq     L0004
	cmp     #$02
	beq     L0005
	cmp     #$03
	beq     L0006
	jmp     L0003
;
; currentLevelData = Level1Data;
;
L0004:	lda     #>(_Level1Data)
	sta     _currentLevelData+1
	lda     #<(_Level1Data)
	sta     _currentLevelData
;
; vram_adr(NAMETABLE_A);   // Set VRAM address to the top-left of the screen
;
	ldx     #$20
	lda     #$00
	jsr     _vram_adr
;
; vram_write(Level1A, 1024);
;
	lda     #<(_Level1A)
	ldx     #>(_Level1A)
	jsr     pushax
	ldx     #$04
	lda     #$00
	jsr     _vram_write
;
; vram_adr(NAMETABLE_B);   // Set VRAM address to the top-left of the screen
;
	ldx     #$24
	lda     #$00
	jsr     _vram_adr
;
; vram_write(Level1B, 1024);
;
	lda     #<(_Level1B)
	ldx     #>(_Level1B)
;
; break;
;
	jmp     L000A
;
; currentLevelData = Level2Data;
;
L0005:	lda     #>(_Level2Data)
	sta     _currentLevelData+1
	lda     #<(_Level2Data)
	sta     _currentLevelData
;
; vram_adr(NAMETABLE_A);
;
	ldx     #$20
	lda     #$00
	jsr     _vram_adr
;
; vram_write(Level2A, 1024);
;
	lda     #<(_Level2A)
	ldx     #>(_Level2A)
	jsr     pushax
	ldx     #$04
	lda     #$00
	jsr     _vram_write
;
; vram_adr(NAMETABLE_B);
;
	ldx     #$24
	lda     #$00
	jsr     _vram_adr
;
; vram_write(Level2B, 1024);
;
	lda     #<(_Level2B)
	ldx     #>(_Level2B)
;
; break;
;
	jmp     L000A
;
; currentLevelData = Level3Data;
;
L0006:	lda     #>(_Level3Data)
	sta     _currentLevelData+1
	lda     #<(_Level3Data)
	sta     _currentLevelData
;
; vram_adr(NAMETABLE_A);
;
	ldx     #$20
	lda     #$00
	jsr     _vram_adr
;
; vram_write(Level3A, 1024);
;
	lda     #<(_Level3A)
	ldx     #>(_Level3A)
	jsr     pushax
	ldx     #$04
	lda     #$00
	jsr     _vram_write
;
; vram_adr(NAMETABLE_B);
;
	ldx     #$24
	lda     #$00
	jsr     _vram_adr
;
; vram_write(Level3B, 1024);
;
	lda     #<(_Level3B)
	ldx     #>(_Level3B)
L000A:	jsr     pushax
	ldx     #$04
	lda     #$00
	jsr     _vram_write
;
; pal_bg(palette);
;
L0003:	lda     #<(_palette)
	ldx     #>(_palette)
	jsr     _pal_bg
;
; pal_spr((const char*)spritePalette);
;
	lda     #<(_spritePalette)
	ldx     #>(_spritePalette)
	jsr     _pal_spr
;
; ppu_on_all();
;
	jmp     _ppu_on_all

.endproc

; ---------------------------------------------------------------
; void __near__ MovePlayer (void)
; ---------------------------------------------------------------

.segment	"CODE"

.proc	_MovePlayer: near

.segment	"CODE"

;
; if (movementPad & PAD_LEFT)
;
	lda     _movementPad
	and     #$02
	beq     L0041
;
; if (!checkIfCollidableTile(currentLevelData[GetTileIndex(playerX - 1, playerY + 1)]))
;
	lda     _currentLevelData
	ldx     _currentLevelData+1
	jsr     pushax
	lda     _playerX
	sec
	sbc     #$01
	jsr     pusha
	lda     _playerY
	clc
	adc     #$01
	jsr     _GetTileIndex
	jsr     tosaddax
	sta     ptr1
	stx     ptr1+1
	ldy     #$00
	lda     (ptr1),y
	jsr     _checkIfCollidableTile
	tax
	bne     L0041
;
; HandleLeftMovement(4, PLAYER_SPEED);
;
	lda     #$04
	jsr     pusha0
	lda     #$02
	jsr     _HandleLeftMovement
;
; facingRight = 0;
;
	lda     #$00
	sta     _facingRight
;
; if (movementPad & PAD_RIGHT)
;
L0041:	lda     _movementPad
	and     #$01
	beq     L0042
;
; if (!checkIfCollidableTile(currentLevelData[GetTileIndex(playerX + 8, playerY + 1)]))
;
	lda     _currentLevelData
	ldx     _currentLevelData+1
	jsr     pushax
	lda     _playerX
	clc
	adc     #$08
	jsr     pusha
	lda     _playerY
	clc
	adc     #$01
	jsr     _GetTileIndex
	jsr     tosaddax
	sta     ptr1
	stx     ptr1+1
	ldy     #$00
	lda     (ptr1),y
	jsr     _checkIfCollidableTile
	tax
	bne     L0042
;
; HandleRightMovement(252, PLAYER_SPEED);
;
	lda     #$FC
	jsr     pusha0
	lda     #$02
	jsr     _HandleRightMovement
;
; facingRight = 1;
;
	lda     #$01
	sta     _facingRight
;
; if ((inputPad & PAD_B) && !isDashing && dashCooldown == 0) 
;
L0042:	lda     _inputPad
	and     #$40
	beq     L0015
	lda     _isDashing
	ora     _isDashing+1
	bne     L0015
	lda     _dashCooldown
	bne     L0015
;
; if (OnGround() || !hasDashedInAir)
;
	jsr     _OnGround
	tax
	bne     L0046
	lda     _hasDashedInAir
	bne     L0015
;
; dashDirection = (movementPad & PAD_LEFT ? -1 : movementPad & PAD_RIGHT ? 1 : 0);
;
L0046:	lda     _movementPad
	and     #$02
	beq     L0047
	ldx     #$FF
	txa
	jmp     L0014
L0047:	lda     _movementPad
	ldx     #$00
	and     #$01
	beq     L0014
	lda     #$01
L0014:	sta     _dashDirection
	stx     _dashDirection+1
;
; isDashing = 1;
;
	ldx     #$00
	lda     #$01
	sta     _isDashing
	stx     _isDashing+1
;
; dashTimer = DASH_DURATION;
;
	lda     #$06
	sta     _dashTimer
;
; if (!OnGround())
;
	jsr     _OnGround
	tax
	bne     L0015
;
; hasDashedInAir = 1;
;
	lda     #$01
	sta     _hasDashedInAir
;
; if (isDashing) 
;
L0015:	lda     _isDashing
	ora     _isDashing+1
	jeq     L0016
;
; for (i = 0; i < DASH_SPEED; i++) 
;
	lda     #$00
	sta     _i
	sta     _i+1
L0017:	lda     _i
	cmp     #$05
	lda     _i+1
	sbc     #$00
	bvc     L001B
	eor     #$80
L001B:	jpl     L004A
;
; int nextX = playerX + dashDirection;
;
	lda     _playerX
	clc
	adc     _dashDirection
	pha
	lda     _playerX+1
	adc     _dashDirection+1
	tax
	pla
	jsr     pushax
;
; int checkX = nextX + scrollX + (dashDirection == 1 ? 7 : 0);
;
	ldy     #$01
	lda     (sp),y
	tax
	dey
	lda     (sp),y
	clc
	adc     _scrollX
	sta     ptr1
	txa
	adc     _scrollX+1
	sta     ptr1+1
	lda     _dashDirection+1
	bne     L001E
	lda     _dashDirection
	cmp     #$01
	bne     L001E
	lda     #$07
	jmp     L001F
L001E:	tya
L001F:	clc
	adc     ptr1
	ldx     ptr1+1
	bcc     L003F
	inx
L003F:	jsr     pushax
;
; if (!checkIfCollidableTile(currentLevelData[GetTileIndex(checkX, playerY + 1)])) 
;
	lda     _currentLevelData
	ldx     _currentLevelData+1
	jsr     pushax
	ldy     #$02
	lda     (sp),y
	jsr     pusha
	lda     _playerY
	clc
	adc     #$01
	jsr     _GetTileIndex
	jsr     tosaddax
	sta     ptr1
	stx     ptr1+1
	ldy     #$00
	lda     (ptr1),y
	jsr     _checkIfCollidableTile
	tax
	bne     L0020
;
; if (dashDirection == 1) 
;
	lda     _dashDirection+1
	bne     L0022
	lda     _dashDirection
	cmp     #$01
	bne     L0022
;
; HandleRightMovement(255, 1);
;
	lda     #$FF
	jsr     pusha0
	lda     #$01
	jsr     _HandleRightMovement
;
; else if (dashDirection == -1)
;
	jmp     L0028
L0022:	lda     _dashDirection+1
	cmp     #$FF
	bne     L0020
	lda     _dashDirection
	cmp     #$FF
	bne     L0020
;
; HandleLeftMovement(1, 1);
;
	lda     #$01
	jsr     pusha0
	jsr     _HandleLeftMovement
;
; else
;
	jmp     L0028
;
; isDashing = 0;
;
L0020:	lda     #$00
	sta     _isDashing
	sta     _isDashing+1
;
; dashCooldown = DASH_COOLDOWN;
;
	lda     #$14
	sta     _dashCooldown
;
; }
;
L0028:	jsr     incsp4
;
; for (i = 0; i < DASH_SPEED; i++) 
;
	inc     _i
	jne     L0017
	inc     _i+1
	jmp     L0017
;
; dashTimer--;
;
L004A:	dec     _dashTimer
;
; if (dashTimer <= 0) 
;
	lda     _dashTimer
	jne     L004D
;
; isDashing = 0;
;
	sta     _isDashing
	sta     _isDashing+1
;
; dashCooldown = dashCooldown;
;
	lda     _dashCooldown
	sta     _dashCooldown
;
; else 
;
	jmp     L004D
;
; if ((inputPad & PAD_A) && !isJumping && OnGround()) 
;
L0016:	lda     _inputPad
	and     #$80
	beq     L002B
	lda     _isJumping
	bne     L002B
	jsr     _OnGround
	tax
	beq     L002B
;
; isJumping = 1;
;
	lda     #$01
	sta     _isJumping
;
; velocityY = JUMP_VELOCITY;
;
	ldx     #$FF
	lda     #$F6
	sta     _velocityY
	stx     _velocityY+1
;
; if (isJumping) 
;
L002B:	lda     _isJumping
	beq     L002F
;
; velocityY += GRAVITY;
;
	inc     _velocityY
	bne     L0030
	inc     _velocityY+1
;
; if (velocityY > MAX_FALL_SPEED)
;
L0030:	lda     _velocityY
	cmp     #$05
	lda     _velocityY+1
	sbc     #$00
	bvs     L0032
	eor     #$80
L0032:	bpl     L0031
;
; velocityY = MAX_FALL_SPEED;
;
	ldx     #$00
	lda     #$04
	sta     _velocityY
	stx     _velocityY+1
;
; playerY += velocityY;
;
L0031:	lda     _velocityY
	clc
	adc     _playerY
	sta     _playerY
	lda     _velocityY+1
	adc     _playerY+1
	sta     _playerY+1
;
; if (velocityY >= 0 && OnGround()) 
;
	ldx     _velocityY+1
	bmi     L004D
	jsr     _OnGround
	tax
	bne     L0039
	jmp     L004D
;
; playerY -= 1;
;
L0037:	ldx     _playerY
	bne     L003A
	dec     _playerY+1
L003A:	dex
	stx     _playerY
;
; while (OnGround()) 
;
L0039:	jsr     _OnGround
	tax
	bne     L0037
;
; playerY += 1;
;
	inc     _playerY
	bne     L003B
	inc     _playerY+1
;
; velocityY = 0;
;
L003B:	sta     _velocityY
	sta     _velocityY+1
;
; isJumping = 0;
;
	sta     _isJumping
;
; hasDashedInAir = 0;
;
	sta     _hasDashedInAir
;
; else 
;
	jmp     L004D
;
; if (!OnGround()) 
;
L002F:	jsr     _OnGround
	tax
	bne     L004D
;
; isJumping = 1;
;
	lda     #$01
	sta     _isJumping
;
; if (dashCooldown > 0) 
;
L004D:	lda     _dashCooldown
	beq     L003E
;
; dashCooldown--;
;
	dec     _dashCooldown
;
; }
;
L003E:	rts

.endproc

; ---------------------------------------------------------------
; void __near__ DrawPlayer (void)
; ---------------------------------------------------------------

.segment	"CODE"

.proc	_DrawPlayer: near

.segment	"CODE"

;
; unsigned char playerAttributes = 0x01;
;
	lda     #$01
	jsr     pusha
;
; if (!facingRight)
;
	lda     _facingRight
	bne     L0002
;
; playerAttributes |= 0x40;
;
	tay
	lda     (sp),y
	ora     #$40
	sta     (sp),y
;
; oam_clear();
;
L0002:	jsr     _oam_clear
;
; if (isDashing)
;
	lda     _isDashing
	ora     _isDashing+1
	beq     L0003
;
; oam_spr(playerX, playerY - 8, 0x09, playerAttributes);
;
	jsr     decsp3
	lda     _playerX
	ldy     #$02
	sta     (sp),y
	lda     _playerY
	sec
	sbc     #$08
	dey
	sta     (sp),y
	lda     #$09
	dey
	sta     (sp),y
	ldy     #$03
	lda     (sp),y
	jsr     _oam_spr
;
; oam_spr(playerX, playerY, 0x19, playerAttributes);
;
	jsr     decsp3
	lda     _playerX
	ldy     #$02
	sta     (sp),y
	lda     _playerY
	dey
	sta     (sp),y
	lda     #$19
;
; else if (isJumping)
;
	jmp     L000E
L0003:	lda     _isJumping
	beq     L0006
;
; oam_spr(playerX, playerY - 8, 0x0A, playerAttributes);
;
	jsr     decsp3
	lda     _playerX
	ldy     #$02
	sta     (sp),y
	lda     _playerY
	sec
	sbc     #$08
	dey
	sta     (sp),y
	lda     #$0A
	dey
	sta     (sp),y
	ldy     #$03
	lda     (sp),y
	jsr     _oam_spr
;
; oam_spr(playerX, playerY, 0x1A, playerAttributes);
;
	jsr     decsp3
	lda     _playerX
	ldy     #$02
	sta     (sp),y
	lda     _playerY
	dey
	sta     (sp),y
	lda     #$1A
;
; else
;
	jmp     L000E
;
; oam_spr(playerX, playerY - 8, 0x08, playerAttributes);
;
L0006:	jsr     decsp3
	lda     _playerX
	ldy     #$02
	sta     (sp),y
	lda     _playerY
	sec
	sbc     #$08
	dey
	sta     (sp),y
	lda     #$08
	dey
	sta     (sp),y
	ldy     #$03
	lda     (sp),y
	jsr     _oam_spr
;
; oam_spr(playerX, playerY, 0x18, playerAttributes);
;
	jsr     decsp3
	lda     _playerX
	ldy     #$02
	sta     (sp),y
	lda     _playerY
	dey
	sta     (sp),y
	lda     #$18
L000E:	dey
	sta     (sp),y
	ldy     #$03
	lda     (sp),y
	jsr     _oam_spr
;
; }
;
	jmp     incsp1

.endproc

; ---------------------------------------------------------------
; unsigned int __near__ GetTileIndex (unsigned char playerX, unsigned char playerY)
; ---------------------------------------------------------------

.segment	"CODE"

.proc	_GetTileIndex: near

.segment	"CODE"

;
; {
;
	jsr     pusha
;
; unsigned char tileX = (playerX + scrollX) / 8; 
;
	ldy     #$01
	lda     (sp),y
	clc
	adc     _scrollX
	pha
	lda     #$00
	adc     _scrollX+1
	tax
	pla
	jsr     shrax3
	jsr     pusha
;
; unsigned char tileY = playerY / 8;
;
	ldy     #$01
	lda     (sp),y
	lsr     a
	lsr     a
	lsr     a
	jsr     pusha
;
; unsigned int tileIndex = tileY * 64 + tileX;
;
	ldx     #$00
	lda     (sp,x)
	jsr     shlax4
	jsr     shlax2
	sta     ptr1
	stx     ptr1+1
	ldy     #$01
	lda     (sp),y
	clc
	adc     ptr1
	ldx     ptr1+1
	bcc     L0002
	inx
L0002:	jsr     pushax
;
; return tileIndex;
;
	ldy     #$01
	lda     (sp),y
	tax
	dey
	lda     (sp),y
;
; }
;
	jmp     incsp6

.endproc

; ---------------------------------------------------------------
; void __near__ CheckIfEnd (void)
; ---------------------------------------------------------------

.segment	"CODE"

.proc	_CheckIfEnd: near

.segment	"CODE"

;
; if (checkIfGoalTile(currentLevelData[GetTileIndex(playerX, playerY + 9)]) || 
;
	lda     _currentLevelData
	ldx     _currentLevelData+1
	jsr     pushax
	lda     _playerX
	jsr     pusha
	lda     _playerY
	clc
	adc     #$09
	jsr     _GetTileIndex
	jsr     tosaddax
	sta     ptr1
	stx     ptr1+1
	ldy     #$00
	lda     (ptr1),y
	jsr     _checkIfGoalTile
	tax
	bne     L0004
;
; checkIfGoalTile(currentLevelData[GetTileIndex(playerX + 1, playerY + 1)]) ||
;
	lda     _currentLevelData
	ldx     _currentLevelData+1
	jsr     pushax
	lda     _playerX
	clc
	adc     #$01
	jsr     pusha
	lda     _playerY
	clc
	adc     #$01
	jsr     _GetTileIndex
	jsr     tosaddax
	sta     ptr1
	stx     ptr1+1
	ldy     #$00
	lda     (ptr1),y
	jsr     _checkIfGoalTile
	tax
	bne     L0004
;
; checkIfGoalTile(currentLevelData[GetTileIndex(playerX + 6, playerY + 1)]))
;
	lda     _currentLevelData
	ldx     _currentLevelData+1
	jsr     pushax
	lda     _playerX
	clc
	adc     #$06
	jsr     pusha
	lda     _playerY
	clc
	adc     #$01
	jsr     _GetTileIndex
	jsr     tosaddax
	sta     ptr1
	stx     ptr1+1
	ldy     #$00
	lda     (ptr1),y
	jsr     _checkIfGoalTile
	tax
	beq     L000C
L0004:	ldx     #$00
;
; if (currentLevel == 3)
;
	lda     _currentLevel+1
	bne     L000A
	lda     _currentLevel
	cmp     #$03
	bne     L000A
;
; gameOver = 1;
;
	lda     #$01
	sta     _gameOver
	stx     _gameOver+1
;
; else
;
	jmp     L000C
;
; currentLevel++;
;
L000A:	inc     _currentLevel
	bne     L0011
	inc     _currentLevel+1
;
; playerX = 30;
;
L0011:	lda     #$1E
	sta     _playerX
	stx     _playerX+1
;
; playerY = 215;
;
	lda     #$D7
	sta     _playerY
	stx     _playerY+1
;
; changeLevel = 1;
;
	lda     #$01
	sta     _changeLevel
	stx     _changeLevel+1
;
; if (changeLevel)
;
	lda     _changeLevel
	ora     _changeLevel+1
	beq     L0013
;
; GameLoop();
;
	jsr     _GameLoop
;
; changeLevel = 0;
;
	lda     #$00
L0013:	sta     _changeLevel
	sta     _changeLevel+1
;
; if (gameOver == 1)
;
L000C:	lda     _gameOver+1
	bne     L000F
	lda     _gameOver
	cmp     #$01
	bne     L000F
;
; currentGameState = END_SCREEN;
;
	lda     #$02
	sta     _currentGameState
;
; DrawEndScreen();
;
	jmp     _DrawEndScreen
;
; }
;
L000F:	rts

.endproc

; ---------------------------------------------------------------
; void __near__ DrawEndScreen (void)
; ---------------------------------------------------------------

.segment	"CODE"

.proc	_DrawEndScreen: near

.segment	"CODE"

;
; ppu_off(); // screen off
;
	jsr     _ppu_off
;
; pal_bg(palette); // load the BG palette
;
	lda     #<(_palette)
	ldx     #>(_palette)
	jsr     _pal_bg
;
; oam_clear();
;
	jsr     _oam_clear
;
; playerX = 30;
;
	ldx     #$00
	lda     #$1E
	sta     _playerX
	stx     _playerX+1
;
; playerY = 215;
;
	lda     #$D7
	sta     _playerY
	stx     _playerY+1
;
; currentLevel = 1;
;
	lda     #$01
	sta     _currentLevel
	stx     _currentLevel+1
;
; gameOver = 0;
;
	txa
	sta     _gameOver
	sta     _gameOver+1
;
; vram_adr(NAMETABLE_A);            // Set VRAM address to start of screen
;
	ldx     #$20
	jsr     _vram_adr
;
; vram_fill(0x00, 1024);
;
	lda     #$00
	jsr     pusha
	ldx     #$04
	jsr     _vram_fill
;
; vram_adr(NTADR_A(8, 8)); // places text at screen position
;
	ldx     #$21
	lda     #$08
	jsr     _vram_adr
;
; vram_write(endScreenTitle, sizeof(endScreenTitle) - 1); //write Title to screen
;
	lda     #<(_endScreenTitle)
	ldx     #>(_endScreenTitle)
	jsr     pushax
	ldx     #$00
	lda     #$0A
	jsr     _vram_write
;
; vram_adr(NTADR_A(10, 14));
;
	ldx     #$21
	lda     #$CA
	jsr     _vram_adr
;
; vram_write(titlePrompt, sizeof(titlePrompt) - 1);
;
	lda     #<(_titlePrompt)
	ldx     #>(_titlePrompt)
	jsr     pushax
	ldx     #$00
	lda     #$0B
	jsr     _vram_write
;
; vram_adr(NTADR_A(10, 18));
;
	ldx     #$22
	lda     #$4A
	jsr     _vram_adr
;
; vram_write(endScreenPrompt, sizeof(endScreenPrompt) - 1);
;
	lda     #<(_endScreenPrompt)
	ldx     #>(_endScreenPrompt)
	jsr     pushax
	ldx     #$00
	lda     #$0D
	jsr     _vram_write
;
; ppu_on_all(); // turn on screen
;
	jmp     _ppu_on_all

.endproc

; ---------------------------------------------------------------
; char __near__ OnGround (void)
; ---------------------------------------------------------------

.segment	"CODE"

.proc	_OnGround: near

.segment	"CODE"

;
; return checkIfCollidableTile(currentLevelData[GetTileIndex(playerX, playerY + 9)]);
;
	lda     _currentLevelData
	ldx     _currentLevelData+1
	jsr     pushax
	lda     _playerX
	jsr     pusha
	lda     _playerY
	clc
	adc     #$09
	jsr     _GetTileIndex
	jsr     tosaddax
	sta     ptr1
	stx     ptr1+1
	ldy     #$00
	lda     (ptr1),y
	jmp     _checkIfCollidableTile

.endproc

; ---------------------------------------------------------------
; char __near__ checkIfCollidableTile (unsigned char tile)
; ---------------------------------------------------------------

.segment	"CODE"

.proc	_checkIfCollidableTile: near

.segment	"CODE"

;
; {
;
	jsr     pusha
;
; return tile == 0x80 || tile == 0x81 || tile == 0x82 || tile == 0x83 
;
	ldy     #$00
	lda     (sp),y
	cmp     #$80
	beq     L0004
	cmp     #$81
	beq     L0004
	cmp     #$82
	beq     L0004
;
; || tile == 0x90 || tile == 0x91 || tile == 0x92 || tile == 0x93;
;
	cmp     #$83
	beq     L0004
	cmp     #$90
	beq     L0004
	cmp     #$91
	beq     L0004
	cmp     #$92
	beq     L0004
	cmp     #$93
	beq     L0004
	ldx     #$00
	txa
	jmp     incsp1
L0004:	lda     #$01
	ldx     #$00
;
; }
;
	jmp     incsp1

.endproc

; ---------------------------------------------------------------
; void __near__ HandleRightMovement (unsigned int bound, unsigned int amountToIncrement)
; ---------------------------------------------------------------

.segment	"CODE"

.proc	_HandleRightMovement: near

.segment	"CODE"

;
; {
;
	jsr     pushax
;
; if (playerX > 0 && playerX < 128 || (playerX + scrollX >= 384))
;
	lda     _playerX
	cmp     #$01
	lda     _playerX+1
	sbc     #$00
	bvs     L0003
	eor     #$80
L0003:	bpl     L0004
	lda     _playerX
	cmp     #$80
	lda     _playerX+1
	sbc     #$00
	bvc     L0005
	eor     #$80
L0005:	bmi     L0011
L0004:	lda     _playerX
	clc
	adc     _scrollX
	pha
	lda     _playerX+1
	adc     _scrollX+1
	tax
	pla
	cmp     #$80
	txa
	sbc     #$01
	bcc     L0002
;
; playerX += amountToIncrement;
;
L0011:	ldy     #$01
	lda     (sp),y
	tax
	dey
	lda     (sp),y
	clc
	adc     _playerX
	sta     _playerX
	txa
	adc     _playerX+1
	sta     _playerX+1
;
; else if ((playerX + scrollX) >= 128 && (playerX + scrollX) < 384)
;
	jmp     incsp4
L0002:	lda     _playerX
	clc
	adc     _scrollX
	pha
	lda     _playerX+1
	adc     _scrollX+1
	tax
	pla
	cmp     #$80
	txa
	sbc     #$00
	bcc     L000F
	lda     _playerX
	clc
	adc     _scrollX
	pha
	lda     _playerX+1
	adc     _scrollX+1
	tax
	pla
	cpx     #$01
	bne     L000B
	cmp     #$80
L000B:	bcs     L000F
;
; if (scrollX <= bound) 
;
	lda     _scrollX
	sec
	ldy     #$02
	sbc     (sp),y
	sta     tmp1
	lda     _scrollX+1
	iny
	sbc     (sp),y
	ora     tmp1
	beq     L0010
	bcs     L000E
;
; scrollX += amountToIncrement;
;
L0010:	ldy     #$01
	lda     (sp),y
	tax
	dey
	lda     (sp),y
	clc
	adc     _scrollX
	sta     _scrollX
	txa
	adc     _scrollX+1
	sta     _scrollX+1
;
; else 
;
	jmp     incsp4
;
; scrollX = MAX_SCROLL;
;
L000E:	ldx     #$01
	lda     #$00
	sta     _scrollX
	stx     _scrollX+1
;
; }
;
L000F:	jmp     incsp4

.endproc

; ---------------------------------------------------------------
; void __near__ HandleLeftMovement (unsigned int bound, unsigned int amountToDecrement)
; ---------------------------------------------------------------

.segment	"CODE"

.proc	_HandleLeftMovement: near

.segment	"CODE"

;
; {
;
	jsr     pushax
;
; if (playerX > 0 && playerX < 128 || (playerX + scrollX > 384) || 
;
	lda     _playerX
	cmp     #$01
	lda     _playerX+1
	sbc     #$00
	bvs     L0003
	eor     #$80
L0003:	bpl     L0004
	lda     _playerX
	cmp     #$80
	lda     _playerX+1
	sbc     #$00
	bvc     L0005
	eor     #$80
L0005:	bmi     L0011
L0004:	lda     _playerX
	clc
	adc     _scrollX
	pha
	lda     _playerX+1
	adc     _scrollX+1
	tax
	pla
	cmp     #$81
	txa
	sbc     #$01
	bcs     L0011
;
; (scrollX == MIN_SCROLL))
;
	lda     _scrollX
	ora     _scrollX+1
	bne     L0002
;
; playerX -= amountToDecrement;
;
L0011:	ldy     #$01
	lda     (sp),y
	tax
	dey
	lda     (sp),y
	eor     #$FF
	sec
	adc     _playerX
	sta     _playerX
	txa
	eor     #$FF
	adc     _playerX+1
	sta     _playerX+1
;
; else if ((playerX + scrollX) > 128 && (playerX + scrollX) <= 384)
;
	jmp     incsp4
L0002:	lda     _playerX
	clc
	adc     _scrollX
	pha
	lda     _playerX+1
	adc     _scrollX+1
	tax
	pla
	cmp     #$81
	txa
	sbc     #$00
	bcc     L0010
	lda     _playerX
	clc
	adc     _scrollX
	pha
	lda     _playerX+1
	adc     _scrollX+1
	tax
	pla
	cpx     #$01
	bne     L000C
	cmp     #$81
L000C:	bcs     L0010
;
; if (scrollX >= bound) 
;
	lda     _scrollX
	ldy     #$02
	cmp     (sp),y
	lda     _scrollX+1
	iny
	sbc     (sp),y
	lda     #$00
	bcc     L0015
;
; scrollX -= amountToDecrement;
;
	ldy     #$01
	lda     (sp),y
	tax
	dey
	lda     (sp),y
	eor     #$FF
	sec
	adc     _scrollX
	sta     _scrollX
	txa
	eor     #$FF
	adc     _scrollX+1
;
; else 
;
	jmp     L0016
;
; scrollX = MIN_SCROLL;
;
L0015:	sta     _scrollX
L0016:	sta     _scrollX+1
;
; }
;
L0010:	jmp     incsp4

.endproc

; ---------------------------------------------------------------
; char __near__ checkIfGoalTile (unsigned char tile)
; ---------------------------------------------------------------

.segment	"CODE"

.proc	_checkIfGoalTile: near

.segment	"CODE"

;
; {
;
	jsr     pusha
;
; return tile == 0x06 || tile == 0x07 || tile == 0x16 || tile == 0x17;
;
	ldy     #$00
	lda     (sp),y
	cmp     #$06
	beq     L0004
	cmp     #$07
	beq     L0004
	cmp     #$16
	beq     L0004
	cmp     #$17
	beq     L0004
	ldx     #$00
	txa
	jmp     incsp1
L0004:	lda     #$01
	ldx     #$00
;
; }
;
	jmp     incsp1

.endproc

; ---------------------------------------------------------------
; void __near__ main (void)
; ---------------------------------------------------------------

.segment	"CODE"

.proc	_main: near

.segment	"CODE"

;
; DrawTitleScreen();
;
L000C:	jsr     _DrawTitleScreen
;
; ppu_wait_nmi();
;
L0002:	jsr     _ppu_wait_nmi
;
; movementPad = pad_poll(0);
;
	lda     #$00
	jsr     _pad_poll
	sta     _movementPad
;
; inputPad = get_pad_new(0);
;
	lda     #$00
	jsr     _get_pad_new
	sta     _inputPad
;
; switch(currentGameState)
;
	lda     _currentGameState
;
; }
;
	beq     L000D
	cmp     #$01
	beq     L0009
	cmp     #$02
	beq     L000E
	jmp     L0002
;
; if (inputPad & PAD_START)
;
L000D:	lda     _inputPad
	and     #$10
	beq     L0002
;
; currentGameState = GAME_LOOP;
;
	lda     #$01
	sta     _currentGameState
;
; GameLoop();
;
	jsr     _GameLoop
;
; break;
;
	jmp     L0002
;
; MovePlayer();
;
L0009:	jsr     _MovePlayer
;
; DrawPlayer();
;
	jsr     _DrawPlayer
;
; scroll(scrollX, 0);
;
	lda     _scrollX
	ldx     _scrollX+1
	jsr     pushax
	ldx     #$00
	txa
	jsr     _scroll
;
; CheckIfEnd();
;
	jsr     _CheckIfEnd
;
; break;
;
	jmp     L0002
;
; if (inputPad & PAD_START)
;
L000E:	lda     _inputPad
	and     #$10
	beq     L0002
;
; currentGameState = START_SCREEN;
;
	lda     #$00
	sta     _currentGameState
;
; break;
;
	jmp     L000C

.endproc

