;
; File generated by cc65 v 2.19 - Git 5cb1bc6
;
	.fopt		compiler,"cc65 v 2.19 - Git 5cb1bc6"
	.setcpu		"6502"
	.smart		on
	.autoimport	on
	.case		on
	.debuginfo	off
	.importzp	sp, sreg, regsave, regbank
	.importzp	tmp1, tmp2, tmp3, tmp4, ptr1, ptr2, ptr3, ptr4
	.macpack	longbranch
	.forceimport	__STARTUP__
	.import		_pal_bg
	.import		_pal_spr
	.import		_ppu_wait_nmi
	.import		_ppu_off
	.import		_ppu_on_all
	.import		_oam_clear
	.import		_oam_spr
	.import		_pad_poll
	.import		_scroll
	.import		_vram_adr
	.import		_vram_fill
	.import		_vram_write
	.import		_get_pad_new
	.import		_set_scroll_x
	.export		_Level1Data
	.export		_Level2Data
	.export		_Level3Data
	.export		_Level1A
	.export		_Level1B
	.export		_Level2A
	.export		_Level2B
	.export		_Level3A
	.export		_Level3B
	.export		_palette
	.export		_spritePalette
	.export		_currentGameState
	.export		_text
	.export		_titlePrompt
	.export		_endScreenTitle
	.export		_endScreenPrompt
	.export		_deathScreenTitle
	.export		_inputPad
	.export		_movementPad
	.export		_i
	.export		_currentLevel
	.export		_currentLevelData
	.export		_player
	.export		_DrawTitleScreen
	.export		_GameLoop
	.export		_MovePlayer
	.export		_DrawPlayer
	.export		_GetTileIndex
	.export		_CheckIfEnd
	.export		_DrawEndScreen
	.export		_OnGround
	.export		_CheckIfCollidableTile
	.export		_HandleRightMovement
	.export		_HandleLeftMovement
	.export		_CheckIfGoalTile
	.export		_UpdateColliderPositions
	.export		_DashEnd
	.export		_CheckIfPlatformTile
	.export		_SetPlayerValues
	.export		_CheckIfSpikes
	.export		_DrawDeathScreen
	.export		_damagePlayer
	.export		_main

.segment	"DATA"

_currentGameState:
	.byte	$00
_i:
	.word	$0000
_currentLevel:
	.word	$0001

.segment	"RODATA"

_Level1Data:
	.byte	$a2
	.byte	$a3
	.byte	$a6
	.byte	$a7
	.byte	$a6
	.byte	$a7
	.byte	$a6
	.byte	$a7
	.byte	$a6
	.byte	$a7
	.byte	$a6
	.byte	$a7
	.byte	$a6
	.byte	$a7
	.byte	$a6
	.byte	$a7
	.byte	$a6
	.byte	$a7
	.byte	$a6
	.byte	$a7
	.byte	$a6
	.byte	$a7
	.byte	$a6
	.byte	$a7
	.byte	$a6
	.byte	$a7
	.byte	$a6
	.byte	$a7
	.byte	$a6
	.byte	$a7
	.byte	$a6
	.byte	$a7
	.byte	$a6
	.byte	$a7
	.byte	$a6
	.byte	$a7
	.byte	$a6
	.byte	$a7
	.byte	$a6
	.byte	$a7
	.byte	$a6
	.byte	$a7
	.byte	$a6
	.byte	$a7
	.byte	$a6
	.byte	$a7
	.byte	$a6
	.byte	$a7
	.byte	$a6
	.byte	$a7
	.byte	$a6
	.byte	$a7
	.byte	$a6
	.byte	$a7
	.byte	$a6
	.byte	$a7
	.byte	$a6
	.byte	$a7
	.byte	$a6
	.byte	$a7
	.byte	$a6
	.byte	$a7
	.byte	$a2
	.byte	$a3
	.byte	$b2
	.byte	$b3
	.byte	$91
	.byte	$91
	.byte	$91
	.byte	$91
	.byte	$91
	.byte	$91
	.byte	$91
	.byte	$91
	.byte	$91
	.byte	$91
	.byte	$91
	.byte	$91
	.byte	$91
	.byte	$91
	.byte	$91
	.byte	$91
	.byte	$91
	.byte	$91
	.byte	$91
	.byte	$91
	.byte	$91
	.byte	$91
	.byte	$91
	.byte	$91
	.byte	$91
	.byte	$91
	.byte	$91
	.byte	$91
	.byte	$91
	.byte	$91
	.byte	$91
	.byte	$91
	.byte	$91
	.byte	$91
	.byte	$91
	.byte	$91
	.byte	$91
	.byte	$91
	.byte	$91
	.byte	$91
	.byte	$91
	.byte	$91
	.byte	$91
	.byte	$91
	.byte	$91
	.byte	$91
	.byte	$91
	.byte	$91
	.byte	$91
	.byte	$91
	.byte	$91
	.byte	$91
	.byte	$91
	.byte	$91
	.byte	$91
	.byte	$91
	.byte	$91
	.byte	$91
	.byte	$91
	.byte	$91
	.byte	$b2
	.byte	$b3
	.byte	$82
	.byte	$83
	.byte	$8b
	.byte	$a2
	.byte	$a3
	.byte	$b2
	.byte	$b3
	.byte	$a2
	.byte	$a3
	.byte	$b2
	.byte	$b3
	.byte	$a2
	.byte	$a3
	.byte	$b2
	.byte	$b3
	.byte	$a2
	.byte	$a3
	.byte	$b2
	.byte	$b3
	.byte	$a2
	.byte	$a3
	.byte	$b2
	.byte	$b3
	.byte	$a2
	.byte	$a3
	.byte	$b2
	.byte	$b3
	.byte	$a2
	.byte	$a3
	.byte	$b2
	.byte	$b3
	.byte	$a2
	.byte	$a3
	.byte	$b2
	.byte	$b3
	.byte	$a2
	.byte	$a3
	.byte	$b2
	.byte	$b3
	.byte	$a2
	.byte	$a3
	.byte	$b2
	.byte	$b3
	.byte	$a2
	.byte	$a3
	.byte	$b2
	.byte	$b3
	.byte	$a2
	.byte	$a3
	.byte	$b2
	.byte	$b3
	.byte	$a2
	.byte	$a3
	.byte	$b2
	.byte	$b3
	.byte	$a2
	.byte	$a3
	.byte	$b2
	.byte	$b3
	.byte	$a2
	.byte	$a3
	.byte	$8a
	.byte	$83
	.byte	$82
	.byte	$92
	.byte	$93
	.byte	$9b
	.byte	$b2
	.byte	$b3
	.byte	$a2
	.byte	$a3
	.byte	$b2
	.byte	$b3
	.byte	$a2
	.byte	$a3
	.byte	$b2
	.byte	$b3
	.byte	$a2
	.byte	$a3
	.byte	$b2
	.byte	$b3
	.byte	$a2
	.byte	$a3
	.byte	$b2
	.byte	$b3
	.byte	$a2
	.byte	$a3
	.byte	$b2
	.byte	$b3
	.byte	$a2
	.byte	$a3
	.byte	$b2
	.byte	$b3
	.byte	$a2
	.byte	$a3
	.byte	$b2
	.byte	$b3
	.byte	$a2
	.byte	$a3
	.byte	$b2
	.byte	$b3
	.byte	$a2
	.byte	$a3
	.byte	$b2
	.byte	$b3
	.byte	$a2
	.byte	$a3
	.byte	$b2
	.byte	$b3
	.byte	$a2
	.byte	$a3
	.byte	$b2
	.byte	$b3
	.byte	$a2
	.byte	$a3
	.byte	$b2
	.byte	$b3
	.byte	$a2
	.byte	$a3
	.byte	$b2
	.byte	$b3
	.byte	$a2
	.byte	$a3
	.byte	$b2
	.byte	$b3
	.byte	$9a
	.byte	$93
	.byte	$92
	.byte	$82
	.byte	$83
	.byte	$8b
	.byte	$a3
	.byte	$b2
	.byte	$b3
	.byte	$a2
	.byte	$a3
	.byte	$b2
	.byte	$b3
	.byte	$a2
	.byte	$a3
	.byte	$b2
	.byte	$b3
	.byte	$a2
	.byte	$a3
	.byte	$b2
	.byte	$b3
	.byte	$a2
	.byte	$a3
	.byte	$b2
	.byte	$b3
	.byte	$a2
	.byte	$a3
	.byte	$b2
	.byte	$b3
	.byte	$a2
	.byte	$a3
	.byte	$b2
	.byte	$b3
	.byte	$a2
	.byte	$a3
	.byte	$b2
	.byte	$b3
	.byte	$a2
	.byte	$a3
	.byte	$b2
	.byte	$b3
	.byte	$a2
	.byte	$a3
	.byte	$b2
	.byte	$b3
	.byte	$a2
	.byte	$a3
	.byte	$b2
	.byte	$b3
	.byte	$a2
	.byte	$a3
	.byte	$b2
	.byte	$b3
	.byte	$a2
	.byte	$a3
	.byte	$b2
	.byte	$b3
	.byte	$a2
	.byte	$a3
	.byte	$b2
	.byte	$b3
	.byte	$a2
	.byte	$a3
	.byte	$b2
	.byte	$8a
	.byte	$83
	.byte	$82
	.byte	$92
	.byte	$93
	.byte	$9b
	.byte	$b3
	.byte	$a2
	.byte	$a3
	.byte	$b2
	.byte	$b3
	.byte	$a2
	.byte	$a3
	.byte	$b2
	.byte	$b3
	.byte	$a2
	.byte	$a3
	.byte	$b2
	.byte	$b3
	.byte	$a2
	.byte	$a3
	.byte	$b2
	.byte	$b3
	.byte	$a2
	.byte	$a3
	.byte	$b2
	.byte	$b3
	.byte	$a2
	.byte	$a3
	.byte	$b2
	.byte	$b3
	.byte	$a2
	.byte	$a3
	.byte	$b2
	.byte	$b3
	.byte	$a2
	.byte	$a3
	.byte	$b2
	.byte	$b3
	.byte	$a2
	.byte	$a3
	.byte	$b2
	.byte	$b3
	.byte	$a2
	.byte	$a3
	.byte	$b2
	.byte	$b3
	.byte	$a2
	.byte	$a3
	.byte	$b2
	.byte	$b3
	.byte	$a2
	.byte	$a3
	.byte	$b2
	.byte	$b3
	.byte	$a2
	.byte	$a3
	.byte	$b2
	.byte	$b3
	.byte	$a2
	.byte	$a3
	.byte	$b2
	.byte	$b3
	.byte	$a2
	.byte	$9a
	.byte	$93
	.byte	$92
	.byte	$82
	.byte	$83
	.byte	$8b
	.byte	$a2
	.byte	$a3
	.byte	$b2
	.byte	$b3
	.byte	$a2
	.byte	$a3
	.byte	$b2
	.byte	$b3
	.byte	$a2
	.byte	$a3
	.byte	$b2
	.byte	$b3
	.byte	$a2
	.byte	$a3
	.byte	$b2
	.byte	$b3
	.byte	$a2
	.byte	$a3
	.byte	$b2
	.byte	$b3
	.byte	$a2
	.byte	$a3
	.byte	$b2
	.byte	$b3
	.byte	$a2
	.byte	$a3
	.byte	$b2
	.byte	$b3
	.byte	$a2
	.byte	$a3
	.byte	$b2
	.byte	$b3
	.byte	$a2
	.byte	$a3
	.byte	$b2
	.byte	$b3
	.byte	$a2
	.byte	$a3
	.byte	$b2
	.byte	$b3
	.byte	$a2
	.byte	$a3
	.byte	$b2
	.byte	$b3
	.byte	$a2
	.byte	$a3
	.byte	$b2
	.byte	$b3
	.byte	$a2
	.byte	$a3
	.byte	$b2
	.byte	$04
	.byte	$05
	.byte	$b3
	.byte	$b2
	.byte	$b3
	.byte	$a2
	.byte	$a3
	.byte	$8a
	.byte	$83
	.byte	$82
	.byte	$92
	.byte	$93
	.byte	$9b
	.byte	$b2
	.byte	$b3
	.byte	$a2
	.byte	$a3
	.byte	$b2
	.byte	$b3
	.byte	$a2
	.byte	$a3
	.byte	$b2
	.byte	$b3
	.byte	$a2
	.byte	$a3
	.byte	$b2
	.byte	$b3
	.byte	$a2
	.byte	$a3
	.byte	$b2
	.byte	$b3
	.byte	$a2
	.byte	$a3
	.byte	$b2
	.byte	$b3
	.byte	$a2
	.byte	$a3
	.byte	$b2
	.byte	$b3
	.byte	$a2
	.byte	$a3
	.byte	$b2
	.byte	$b3
	.byte	$a2
	.byte	$a3
	.byte	$b2
	.byte	$b3
	.byte	$a2
	.byte	$a3
	.byte	$b2
	.byte	$b3
	.byte	$a2
	.byte	$a3
	.byte	$b2
	.byte	$b3
	.byte	$a2
	.byte	$a3
	.byte	$b2
	.byte	$b3
	.byte	$a2
	.byte	$a3
	.byte	$b2
	.byte	$b3
	.byte	$a2
	.byte	$14
	.byte	$15
	.byte	$a3
	.byte	$a2
	.byte	$a3
	.byte	$b2
	.byte	$b3
	.byte	$9a
	.byte	$93
	.byte	$92
	.byte	$82
	.byte	$83
	.byte	$8b
	.byte	$a3
	.byte	$b2
	.byte	$b3
	.byte	$a2
	.byte	$a3
	.byte	$b2
	.byte	$b3
	.byte	$a2
	.byte	$a3
	.byte	$b2
	.byte	$b3
	.byte	$a2
	.byte	$a3
	.byte	$b2
	.byte	$b3
	.byte	$a2
	.byte	$a3
	.byte	$b2
	.byte	$b3
	.byte	$a2
	.byte	$a3
	.byte	$b2
	.byte	$b3
	.byte	$a2
	.byte	$a3
	.byte	$b2
	.byte	$b3
	.byte	$a2
	.byte	$a3
	.byte	$b2
	.byte	$b3
	.byte	$a2
	.byte	$a3
	.byte	$b2
	.byte	$b3
	.byte	$a2
	.byte	$a3
	.byte	$b2
	.byte	$b3
	.byte	$a2
	.byte	$a3
	.byte	$b2
	.byte	$b3
	.byte	$a2
	.byte	$a3
	.byte	$b2
	.byte	$b3
	.byte	$a2
	.byte	$a3
	.byte	$84
	.byte	$85
	.byte	$84
	.byte	$85
	.byte	$84
	.byte	$85
	.byte	$a2
	.byte	$a3
	.byte	$b2
	.byte	$8a
	.byte	$83
	.byte	$82
	.byte	$92
	.byte	$93
	.byte	$9b
	.byte	$b3
	.byte	$a2
	.byte	$a3
	.byte	$b2
	.byte	$b3
	.byte	$a2
	.byte	$a3
	.byte	$b2
	.byte	$b3
	.byte	$a2
	.byte	$a3
	.byte	$b2
	.byte	$b3
	.byte	$a2
	.byte	$a3
	.byte	$b2
	.byte	$b3
	.byte	$a2
	.byte	$a3
	.byte	$b2
	.byte	$b3
	.byte	$a2
	.byte	$a3
	.byte	$b2
	.byte	$b3
	.byte	$a2
	.byte	$a3
	.byte	$b2
	.byte	$b3
	.byte	$a2
	.byte	$a3
	.byte	$b2
	.byte	$b3
	.byte	$a2
	.byte	$a3
	.byte	$b2
	.byte	$b3
	.byte	$a2
	.byte	$a3
	.byte	$b2
	.byte	$b3
	.byte	$a2
	.byte	$a3
	.byte	$b2
	.byte	$b3
	.byte	$a2
	.byte	$a3
	.byte	$b2
	.byte	$b3
	.byte	$94
	.byte	$95
	.byte	$94
	.byte	$95
	.byte	$94
	.byte	$95
	.byte	$b2
	.byte	$b3
	.byte	$a2
	.byte	$9a
	.byte	$93
	.byte	$92
	.byte	$82
	.byte	$83
	.byte	$84
	.byte	$85
	.byte	$84
	.byte	$85
	.byte	$84
	.byte	$85
	.byte	$84
	.byte	$85
	.byte	$8b
	.byte	$a2
	.byte	$a3
	.byte	$b2
	.byte	$b3
	.byte	$a2
	.byte	$a3
	.byte	$b2
	.byte	$b3
	.byte	$a2
	.byte	$a3
	.byte	$b2
	.byte	$b3
	.byte	$a2
	.byte	$a3
	.byte	$b2
	.byte	$b3
	.byte	$a2
	.byte	$a3
	.byte	$b2
	.byte	$b3
	.byte	$a2
	.byte	$a3
	.byte	$b2
	.byte	$b3
	.byte	$a2
	.byte	$a3
	.byte	$b2
	.byte	$b3
	.byte	$a2
	.byte	$a3
	.byte	$b2
	.byte	$b3
	.byte	$a2
	.byte	$a3
	.byte	$b2
	.byte	$b3
	.byte	$a2
	.byte	$a3
	.byte	$b2
	.byte	$b3
	.byte	$a2
	.byte	$aa
	.byte	$ab
	.byte	$aa
	.byte	$ab
	.byte	$aa
	.byte	$ab
	.byte	$b3
	.byte	$a2
	.byte	$a3
	.byte	$8a
	.byte	$83
	.byte	$82
	.byte	$92
	.byte	$93
	.byte	$94
	.byte	$95
	.byte	$94
	.byte	$95
	.byte	$94
	.byte	$95
	.byte	$94
	.byte	$95
	.byte	$9b
	.byte	$b2
	.byte	$b3
	.byte	$a2
	.byte	$a3
	.byte	$b2
	.byte	$b3
	.byte	$a2
	.byte	$a3
	.byte	$b2
	.byte	$b3
	.byte	$a2
	.byte	$a3
	.byte	$b2
	.byte	$b3
	.byte	$a2
	.byte	$a3
	.byte	$b2
	.byte	$b3
	.byte	$a2
	.byte	$a3
	.byte	$b2
	.byte	$b3
	.byte	$a2
	.byte	$a3
	.byte	$b2
	.byte	$b3
	.byte	$a2
	.byte	$a3
	.byte	$b2
	.byte	$b3
	.byte	$a2
	.byte	$a3
	.byte	$b2
	.byte	$b3
	.byte	$a2
	.byte	$a3
	.byte	$b2
	.byte	$b3
	.byte	$a2
	.byte	$a3
	.byte	$b2
	.byte	$b3
	.byte	$a2
	.byte	$a3
	.byte	$b2
	.byte	$b3
	.byte	$a2
	.byte	$a3
	.byte	$b2
	.byte	$b3
	.byte	$9a
	.byte	$93
	.byte	$92
	.byte	$82
	.byte	$83
	.byte	$8b
	.byte	$a3
	.byte	$b2
	.byte	$b3
	.byte	$a2
	.byte	$a3
	.byte	$ea
	.byte	$ab
	.byte	$a2
	.byte	$a3
	.byte	$b2
	.byte	$b3
	.byte	$a2
	.byte	$a3
	.byte	$b2
	.byte	$b3
	.byte	$a2
	.byte	$a3
	.byte	$b2
	.byte	$b3
	.byte	$a2
	.byte	$a3
	.byte	$b2
	.byte	$b3
	.byte	$a2
	.byte	$a3
	.byte	$b2
	.byte	$b3
	.byte	$a2
	.byte	$a3
	.byte	$b2
	.byte	$b3
	.byte	$a2
	.byte	$a3
	.byte	$b2
	.byte	$b3
	.byte	$a2
	.byte	$a3
	.byte	$b2
	.byte	$b3
	.byte	$84
	.byte	$85
	.byte	$84
	.byte	$85
	.byte	$84
	.byte	$85
	.byte	$b2
	.byte	$b3
	.byte	$a2
	.byte	$a3
	.byte	$b2
	.byte	$b3
	.byte	$a2
	.byte	$a3
	.byte	$b2
	.byte	$b3
	.byte	$a2
	.byte	$a3
	.byte	$b2
	.byte	$8a
	.byte	$83
	.byte	$82
	.byte	$92
	.byte	$93
	.byte	$9b
	.byte	$b3
	.byte	$a2
	.byte	$a3
	.byte	$b2
	.byte	$b3
	.byte	$a2
	.byte	$a3
	.byte	$b2
	.byte	$b3
	.byte	$a2
	.byte	$a3
	.byte	$b2
	.byte	$b3
	.byte	$a2
	.byte	$a3
	.byte	$b2
	.byte	$b3
	.byte	$a2
	.byte	$a3
	.byte	$b2
	.byte	$b3
	.byte	$a2
	.byte	$a3
	.byte	$b2
	.byte	$b3
	.byte	$a2
	.byte	$a3
	.byte	$b2
	.byte	$b3
	.byte	$a2
	.byte	$a3
	.byte	$b2
	.byte	$b3
	.byte	$a2
	.byte	$a3
	.byte	$b2
	.byte	$b3
	.byte	$a2
	.byte	$a3
	.byte	$94
	.byte	$95
	.byte	$94
	.byte	$95
	.byte	$94
	.byte	$95
	.byte	$a2
	.byte	$a3
	.byte	$b2
	.byte	$b3
	.byte	$a2
	.byte	$a3
	.byte	$b2
	.byte	$b3
	.byte	$a2
	.byte	$a3
	.byte	$b2
	.byte	$b3
	.byte	$a2
	.byte	$9a
	.byte	$93
	.byte	$92
	.byte	$82
	.byte	$83
	.byte	$8b
	.byte	$a2
	.byte	$a3
	.byte	$b2
	.byte	$b3
	.byte	$8a
	.byte	$84
	.byte	$85
	.byte	$84
	.byte	$85
	.byte	$84
	.byte	$85
	.byte	$84
	.byte	$85
	.byte	$8b
	.byte	$b2
	.byte	$b3
	.byte	$a2
	.byte	$a3
	.byte	$b2
	.byte	$b3
	.byte	$a2
	.byte	$a3
	.byte	$b2
	.byte	$b3
	.byte	$a2
	.byte	$a3
	.byte	$b2
	.byte	$b3
	.byte	$a2
	.byte	$a3
	.byte	$b2
	.byte	$b3
	.byte	$a2
	.byte	$a3
	.byte	$b2
	.byte	$b3
	.byte	$a2
	.byte	$a3
	.byte	$b2
	.byte	$aa
	.byte	$ab
	.byte	$aa
	.byte	$ab
	.byte	$aa
	.byte	$ab
	.byte	$a3
	.byte	$b2
	.byte	$b3
	.byte	$a2
	.byte	$a3
	.byte	$b2
	.byte	$b3
	.byte	$a2
	.byte	$a3
	.byte	$b2
	.byte	$b3
	.byte	$a2
	.byte	$a3
	.byte	$8a
	.byte	$83
	.byte	$82
	.byte	$92
	.byte	$93
	.byte	$9b
	.byte	$b2
	.byte	$b3
	.byte	$a2
	.byte	$a3
	.byte	$9a
	.byte	$94
	.byte	$95
	.byte	$94
	.byte	$95
	.byte	$94
	.byte	$95
	.byte	$94
	.byte	$95
	.byte	$9b
	.byte	$a2
	.byte	$a3
	.byte	$b2
	.byte	$b3
	.byte	$a2
	.byte	$a3
	.byte	$b2
	.byte	$b3
	.byte	$a2
	.byte	$a3
	.byte	$b2
	.byte	$b3
	.byte	$a2
	.byte	$a3
	.byte	$b2
	.byte	$b3
	.byte	$a2
	.byte	$d8
	.byte	$d9
	.byte	$b3
	.byte	$a2
	.byte	$a3
	.byte	$b2
	.byte	$b3
	.byte	$a2
	.byte	$a3
	.byte	$b2
	.byte	$b3
	.byte	$a2
	.byte	$a3
	.byte	$b2
	.byte	$b3
	.byte	$a2
	.byte	$a3
	.byte	$b2
	.byte	$b3
	.byte	$a2
	.byte	$a3
	.byte	$b2
	.byte	$b3
	.byte	$a2
	.byte	$a3
	.byte	$b2
	.byte	$b3
	.byte	$9a
	.byte	$93
	.byte	$92
	.byte	$82
	.byte	$83
	.byte	$8b
	.byte	$a3
	.byte	$b2
	.byte	$b3
	.byte	$a2
	.byte	$a3
	.byte	$aa
	.byte	$ab
	.byte	$aa
	.byte	$ab
	.byte	$aa
	.byte	$ab
	.byte	$aa
	.byte	$ab
	.byte	$b2
	.byte	$b3
	.byte	$a2
	.byte	$a3
	.byte	$b2
	.byte	$b3
	.byte	$a2
	.byte	$a3
	.byte	$b2
	.byte	$b3
	.byte	$a2
	.byte	$a3
	.byte	$b2
	.byte	$b3
	.byte	$a2
	.byte	$a3
	.byte	$84
	.byte	$85
	.byte	$84
	.byte	$85
	.byte	$84
	.byte	$85
	.byte	$a2
	.byte	$a3
	.byte	$b2
	.byte	$b3
	.byte	$a2
	.byte	$a3
	.byte	$b2
	.byte	$b3
	.byte	$a2
	.byte	$a3
	.byte	$b2
	.byte	$b3
	.byte	$a2
	.byte	$a3
	.byte	$b2
	.byte	$b3
	.byte	$a2
	.byte	$a3
	.byte	$b2
	.byte	$b3
	.byte	$a2
	.byte	$a3
	.byte	$b2
	.byte	$8a
	.byte	$83
	.byte	$82
	.byte	$92
	.byte	$93
	.byte	$9b
	.byte	$b3
	.byte	$a2
	.byte	$a3
	.byte	$b2
	.byte	$b3
	.byte	$a2
	.byte	$a3
	.byte	$b2
	.byte	$b3
	.byte	$a2
	.byte	$a3
	.byte	$b2
	.byte	$b3
	.byte	$a2
	.byte	$a3
	.byte	$b2
	.byte	$b3
	.byte	$a2
	.byte	$a3
	.byte	$d8
	.byte	$d9
	.byte	$a2
	.byte	$a3
	.byte	$d8
	.byte	$d9
	.byte	$a2
	.byte	$a3
	.byte	$b2
	.byte	$b3
	.byte	$94
	.byte	$95
	.byte	$94
	.byte	$95
	.byte	$94
	.byte	$95
	.byte	$b2
	.byte	$b3
	.byte	$a2
	.byte	$a3
	.byte	$b2
	.byte	$b3
	.byte	$a2
	.byte	$a3
	.byte	$b2
	.byte	$b3
	.byte	$a2
	.byte	$a3
	.byte	$b2
	.byte	$b3
	.byte	$a2
	.byte	$a3
	.byte	$b2
	.byte	$b3
	.byte	$a2
	.byte	$a3
	.byte	$b2
	.byte	$b3
	.byte	$a2
	.byte	$9a
	.byte	$93
	.byte	$92
	.byte	$82
	.byte	$83
	.byte	$8b
	.byte	$a2
	.byte	$a3
	.byte	$b2
	.byte	$b3
	.byte	$a2
	.byte	$a3
	.byte	$b2
	.byte	$b3
	.byte	$a2
	.byte	$a3
	.byte	$b2
	.byte	$b3
	.byte	$a2
	.byte	$a3
	.byte	$b2
	.byte	$b3
	.byte	$8a
	.byte	$84
	.byte	$85
	.byte	$84
	.byte	$85
	.byte	$84
	.byte	$85
	.byte	$84
	.byte	$85
	.byte	$8b
	.byte	$b2
	.byte	$b3
	.byte	$a2
	.byte	$aa
	.byte	$ab
	.byte	$aa
	.byte	$ab
	.byte	$aa
	.byte	$ab
	.byte	$b3
	.byte	$a2
	.byte	$a3
	.byte	$b2
	.byte	$b3
	.byte	$a2
	.byte	$a3
	.byte	$b2
	.byte	$84
	.byte	$85
	.byte	$84
	.byte	$85
	.byte	$84
	.byte	$85
	.byte	$b3
	.byte	$b2
	.byte	$b3
	.byte	$a2
	.byte	$a3
	.byte	$b2
	.byte	$b3
	.byte	$a2
	.byte	$a3
	.byte	$8a
	.byte	$83
	.byte	$82
	.byte	$92
	.byte	$93
	.byte	$9b
	.byte	$b2
	.byte	$b3
	.byte	$a2
	.byte	$a3
	.byte	$b2
	.byte	$b3
	.byte	$a2
	.byte	$a3
	.byte	$b2
	.byte	$b3
	.byte	$a2
	.byte	$a3
	.byte	$b2
	.byte	$b3
	.byte	$a2
	.byte	$a3
	.byte	$9a
	.byte	$94
	.byte	$95
	.byte	$94
	.byte	$95
	.byte	$94
	.byte	$95
	.byte	$94
	.byte	$95
	.byte	$9b
	.byte	$a2
	.byte	$a3
	.byte	$b2
	.byte	$b3
	.byte	$a2
	.byte	$a3
	.byte	$b2
	.byte	$b3
	.byte	$a2
	.byte	$a3
	.byte	$b2
	.byte	$b3
	.byte	$a2
	.byte	$a3
	.byte	$b2
	.byte	$b3
	.byte	$a2
	.byte	$94
	.byte	$95
	.byte	$94
	.byte	$95
	.byte	$94
	.byte	$95
	.byte	$a3
	.byte	$a2
	.byte	$a3
	.byte	$b2
	.byte	$b3
	.byte	$a2
	.byte	$a3
	.byte	$b2
	.byte	$b3
	.byte	$9a
	.byte	$93
	.byte	$92
	.byte	$82
	.byte	$83
	.byte	$8b
	.byte	$a3
	.byte	$b2
	.byte	$b3
	.byte	$a2
	.byte	$a3
	.byte	$b2
	.byte	$b3
	.byte	$a2
	.byte	$a3
	.byte	$b2
	.byte	$b3
	.byte	$a2
	.byte	$a3
	.byte	$b2
	.byte	$b3
	.byte	$a2
	.byte	$a3
	.byte	$aa
	.byte	$ab
	.byte	$aa
	.byte	$ab
	.byte	$aa
	.byte	$ab
	.byte	$aa
	.byte	$ab
	.byte	$b2
	.byte	$b3
	.byte	$a2
	.byte	$a3
	.byte	$b2
	.byte	$b3
	.byte	$a2
	.byte	$a3
	.byte	$b2
	.byte	$b3
	.byte	$a2
	.byte	$a3
	.byte	$b2
	.byte	$b3
	.byte	$a2
	.byte	$a3
	.byte	$b2
	.byte	$b3
	.byte	$aa
	.byte	$ab
	.byte	$aa
	.byte	$ab
	.byte	$aa
	.byte	$ab
	.byte	$b2
	.byte	$b3
	.byte	$a2
	.byte	$a3
	.byte	$b2
	.byte	$b3
	.byte	$a2
	.byte	$a3
	.byte	$b2
	.byte	$8a
	.byte	$83
	.byte	$82
	.byte	$92
	.byte	$93
	.byte	$9b
	.byte	$b3
	.byte	$a2
	.byte	$a3
	.byte	$b2
	.byte	$b3
	.byte	$a2
	.byte	$a3
	.byte	$c8
	.byte	$c9
	.byte	$a2
	.byte	$a3
	.byte	$b2
	.byte	$b3
	.byte	$d8
	.byte	$d9
	.byte	$b2
	.byte	$b3
	.byte	$b3
	.byte	$a2
	.byte	$a3
	.byte	$b2
	.byte	$b3
	.byte	$a2
	.byte	$a3
	.byte	$b2
	.byte	$a2
	.byte	$a3
	.byte	$b2
	.byte	$b3
	.byte	$a2
	.byte	$a3
	.byte	$b2
	.byte	$b3
	.byte	$a2
	.byte	$a3
	.byte	$b2
	.byte	$b3
	.byte	$a2
	.byte	$a3
	.byte	$b2
	.byte	$b3
	.byte	$a2
	.byte	$a3
	.byte	$b2
	.byte	$b3
	.byte	$a2
	.byte	$a3
	.byte	$b2
	.byte	$b3
	.byte	$a2
	.byte	$a3
	.byte	$b2
	.byte	$b3
	.byte	$a2
	.byte	$a3
	.byte	$b2
	.byte	$b3
	.byte	$a2
	.byte	$9a
	.byte	$93
	.byte	$92
	.byte	$82
	.byte	$83
	.byte	$8b
	.byte	$a2
	.byte	$a3
	.byte	$b2
	.byte	$b3
	.byte	$a2
	.byte	$a3
	.byte	$8a
	.byte	$84
	.byte	$85
	.byte	$84
	.byte	$85
	.byte	$84
	.byte	$85
	.byte	$84
	.byte	$85
	.byte	$8b
	.byte	$a2
	.byte	$a3
	.byte	$b2
	.byte	$b3
	.byte	$a2
	.byte	$a3
	.byte	$b2
	.byte	$b3
	.byte	$a2
	.byte	$a3
	.byte	$b2
	.byte	$b3
	.byte	$a2
	.byte	$a3
	.byte	$b2
	.byte	$b3
	.byte	$a2
	.byte	$a3
	.byte	$b2
	.byte	$b3
	.byte	$a2
	.byte	$a3
	.byte	$b2
	.byte	$b3
	.byte	$a2
	.byte	$a3
	.byte	$b2
	.byte	$b3
	.byte	$a2
	.byte	$a3
	.byte	$b2
	.byte	$b3
	.byte	$a2
	.byte	$a3
	.byte	$b2
	.byte	$b3
	.byte	$a2
	.byte	$84
	.byte	$85
	.byte	$84
	.byte	$85
	.byte	$84
	.byte	$85
	.byte	$83
	.byte	$82
	.byte	$92
	.byte	$93
	.byte	$9b
	.byte	$b2
	.byte	$b3
	.byte	$a2
	.byte	$a3
	.byte	$b2
	.byte	$b3
	.byte	$9a
	.byte	$94
	.byte	$95
	.byte	$94
	.byte	$95
	.byte	$94
	.byte	$95
	.byte	$94
	.byte	$95
	.byte	$9b
	.byte	$b2
	.byte	$b3
	.byte	$a2
	.byte	$a3
	.byte	$b2
	.byte	$b3
	.byte	$a2
	.byte	$a3
	.byte	$b2
	.byte	$b3
	.byte	$a2
	.byte	$a3
	.byte	$b2
	.byte	$b3
	.byte	$a2
	.byte	$a3
	.byte	$b2
	.byte	$b3
	.byte	$a2
	.byte	$a3
	.byte	$b2
	.byte	$b3
	.byte	$a2
	.byte	$a3
	.byte	$b2
	.byte	$b3
	.byte	$a2
	.byte	$a3
	.byte	$b2
	.byte	$b3
	.byte	$a2
	.byte	$a3
	.byte	$b2
	.byte	$b3
	.byte	$a2
	.byte	$a3
	.byte	$b2
	.byte	$94
	.byte	$95
	.byte	$94
	.byte	$95
	.byte	$94
	.byte	$95
	.byte	$93
	.byte	$92
	.byte	$82
	.byte	$83
	.byte	$8b
	.byte	$a3
	.byte	$b2
	.byte	$b3
	.byte	$a2
	.byte	$a3
	.byte	$b2
	.byte	$b3
	.byte	$aa
	.byte	$ab
	.byte	$aa
	.byte	$ab
	.byte	$aa
	.byte	$ab
	.byte	$aa
	.byte	$ab
	.byte	$a2
	.byte	$a3
	.byte	$b2
	.byte	$b3
	.byte	$a2
	.byte	$a3
	.byte	$b2
	.byte	$b3
	.byte	$a2
	.byte	$a3
	.byte	$b2
	.byte	$b3
	.byte	$a2
	.byte	$a3
	.byte	$b2
	.byte	$b3
	.byte	$a2
	.byte	$a3
	.byte	$b2
	.byte	$b3
	.byte	$a2
	.byte	$a3
	.byte	$b2
	.byte	$b3
	.byte	$a2
	.byte	$a3
	.byte	$b2
	.byte	$b3
	.byte	$a2
	.byte	$a3
	.byte	$b2
	.byte	$b3
	.byte	$a2
	.byte	$a3
	.byte	$b2
	.byte	$b3
	.byte	$a2
	.byte	$a3
	.byte	$b2
	.byte	$b3
	.byte	$a2
	.byte	$a3
	.byte	$b2
	.byte	$8a
	.byte	$83
	.byte	$82
	.byte	$92
	.byte	$93
	.byte	$9b
	.byte	$b3
	.byte	$a2
	.byte	$a3
	.byte	$b2
	.byte	$b3
	.byte	$a2
	.byte	$a3
	.byte	$b2
	.byte	$b3
	.byte	$a2
	.byte	$a3
	.byte	$b2
	.byte	$b3
	.byte	$a2
	.byte	$a3
	.byte	$b2
	.byte	$b3
	.byte	$a2
	.byte	$a3
	.byte	$b2
	.byte	$b3
	.byte	$a2
	.byte	$a3
	.byte	$b2
	.byte	$b3
	.byte	$a2
	.byte	$a3
	.byte	$b2
	.byte	$b3
	.byte	$a2
	.byte	$a3
	.byte	$b2
	.byte	$b3
	.byte	$a2
	.byte	$a3
	.byte	$b2
	.byte	$b3
	.byte	$a2
	.byte	$a3
	.byte	$b2
	.byte	$b3
	.byte	$a2
	.byte	$a3
	.byte	$b2
	.byte	$b3
	.byte	$a2
	.byte	$a3
	.byte	$b2
	.byte	$b3
	.byte	$a2
	.byte	$a3
	.byte	$b2
	.byte	$b3
	.byte	$a2
	.byte	$a3
	.byte	$b2
	.byte	$b3
	.byte	$a2
	.byte	$9a
	.byte	$93
	.byte	$92
	.byte	$82
	.byte	$83
	.byte	$8b
	.byte	$a2
	.byte	$a3
	.byte	$b2
	.byte	$b3
	.byte	$a2
	.byte	$a3
	.byte	$b2
	.byte	$b3
	.byte	$a2
	.byte	$a3
	.byte	$b2
	.byte	$b3
	.byte	$a2
	.byte	$a3
	.byte	$b2
	.byte	$b3
	.byte	$a2
	.byte	$a3
	.byte	$b2
	.byte	$b3
	.byte	$a2
	.byte	$a3
	.byte	$b2
	.byte	$b3
	.byte	$a2
	.byte	$a3
	.byte	$b2
	.byte	$b3
	.byte	$a2
	.byte	$a3
	.byte	$b2
	.byte	$b3
	.byte	$a2
	.byte	$a3
	.byte	$b2
	.byte	$b3
	.byte	$a2
	.byte	$a3
	.byte	$b2
	.byte	$b3
	.byte	$a2
	.byte	$a3
	.byte	$b2
	.byte	$b3
	.byte	$a2
	.byte	$a3
	.byte	$b2
	.byte	$b3
	.byte	$a2
	.byte	$a3
	.byte	$b2
	.byte	$b3
	.byte	$a2
	.byte	$a3
	.byte	$b2
	.byte	$b3
	.byte	$a2
	.byte	$a3
	.byte	$8a
	.byte	$83
	.byte	$82
	.byte	$92
	.byte	$93
	.byte	$9b
	.byte	$b2
	.byte	$b3
	.byte	$a2
	.byte	$a3
	.byte	$b2
	.byte	$b3
	.byte	$a2
	.byte	$a3
	.byte	$b2
	.byte	$b3
	.byte	$a2
	.byte	$a3
	.byte	$b2
	.byte	$b3
	.byte	$a2
	.byte	$a3
	.byte	$b2
	.byte	$b3
	.byte	$a2
	.byte	$a3
	.byte	$b2
	.byte	$b3
	.byte	$a2
	.byte	$a3
	.byte	$b2
	.byte	$b3
	.byte	$a2
	.byte	$a3
	.byte	$b2
	.byte	$b3
	.byte	$a2
	.byte	$a3
	.byte	$b2
	.byte	$b3
	.byte	$a2
	.byte	$a3
	.byte	$b2
	.byte	$b3
	.byte	$a2
	.byte	$a3
	.byte	$b2
	.byte	$b3
	.byte	$a2
	.byte	$a3
	.byte	$b2
	.byte	$b3
	.byte	$a2
	.byte	$a3
	.byte	$b2
	.byte	$b3
	.byte	$a2
	.byte	$a3
	.byte	$b2
	.byte	$b3
	.byte	$a2
	.byte	$a3
	.byte	$b2
	.byte	$b3
	.byte	$9a
	.byte	$93
	.byte	$92
	.byte	$a2
	.byte	$a3
	.byte	$a0
	.byte	$a1
	.byte	$a0
	.byte	$a1
	.byte	$a0
	.byte	$a1
	.byte	$a0
	.byte	$a1
	.byte	$a0
	.byte	$a1
	.byte	$a0
	.byte	$a1
	.byte	$a0
	.byte	$a1
	.byte	$a0
	.byte	$a1
	.byte	$a0
	.byte	$a1
	.byte	$a0
	.byte	$a1
	.byte	$a0
	.byte	$a1
	.byte	$a0
	.byte	$a1
	.byte	$a0
	.byte	$a1
	.byte	$a0
	.byte	$a1
	.byte	$a0
	.byte	$a1
	.byte	$a0
	.byte	$a1
	.byte	$a0
	.byte	$a1
	.byte	$a0
	.byte	$a1
	.byte	$a0
	.byte	$a1
	.byte	$a0
	.byte	$a1
	.byte	$a0
	.byte	$a1
	.byte	$a0
	.byte	$a1
	.byte	$a0
	.byte	$a1
	.byte	$a0
	.byte	$a1
	.byte	$a0
	.byte	$a1
	.byte	$a0
	.byte	$a1
	.byte	$a0
	.byte	$a1
	.byte	$a0
	.byte	$a1
	.byte	$a0
	.byte	$a1
	.byte	$a0
	.byte	$a1
	.byte	$a2
	.byte	$a3
	.byte	$b2
	.byte	$b3
	.byte	$b0
	.byte	$b1
	.byte	$b0
	.byte	$b1
	.byte	$b0
	.byte	$b1
	.byte	$b0
	.byte	$b1
	.byte	$b0
	.byte	$b1
	.byte	$b0
	.byte	$b1
	.byte	$b0
	.byte	$b1
	.byte	$b0
	.byte	$b1
	.byte	$b0
	.byte	$b1
	.byte	$b0
	.byte	$b1
	.byte	$b0
	.byte	$b1
	.byte	$b0
	.byte	$b1
	.byte	$b0
	.byte	$b1
	.byte	$b0
	.byte	$b1
	.byte	$b0
	.byte	$b1
	.byte	$b0
	.byte	$b1
	.byte	$b0
	.byte	$b1
	.byte	$b0
	.byte	$b1
	.byte	$b0
	.byte	$b1
	.byte	$b0
	.byte	$b1
	.byte	$b0
	.byte	$b1
	.byte	$b0
	.byte	$b1
	.byte	$b0
	.byte	$b1
	.byte	$b0
	.byte	$b1
	.byte	$b0
	.byte	$b1
	.byte	$b0
	.byte	$b1
	.byte	$b0
	.byte	$b1
	.byte	$b0
	.byte	$b1
	.byte	$b0
	.byte	$b1
	.byte	$b0
	.byte	$b1
	.byte	$b2
	.byte	$b3
	.byte	$80
	.byte	$a0
	.byte	$a0
	.byte	$a0
	.byte	$a0
	.byte	$a0
	.byte	$a0
	.byte	$a0
	.byte	$a0
	.byte	$a0
	.byte	$a0
	.byte	$a0
	.byte	$a0
	.byte	$a0
	.byte	$a0
	.byte	$20
	.byte	$88
	.byte	$aa
	.byte	$aa
	.byte	$aa
	.byte	$aa
	.byte	$aa
	.byte	$aa
	.byte	$aa
	.byte	$aa
	.byte	$aa
	.byte	$aa
	.byte	$aa
	.byte	$aa
	.byte	$2a
	.byte	$aa
	.byte	$22
	.byte	$08
	.byte	$0a
	.byte	$8a
	.byte	$aa
	.byte	$aa
	.byte	$aa
	.byte	$aa
	.byte	$aa
	.byte	$aa
	.byte	$aa
	.byte	$aa
	.byte	$aa
	.byte	$aa
	.byte	$a0
	.byte	$a8
	.byte	$22
	.byte	$88
	.byte	$aa
	.byte	$0a
	.byte	$0a
	.byte	$aa
	.byte	$aa
	.byte	$aa
	.byte	$aa
	.byte	$aa
	.byte	$aa
	.byte	$a2
	.byte	$a0
	.byte	$aa
	.byte	$aa
	.byte	$aa
	.byte	$22
	.byte	$88
	.byte	$aa
	.byte	$aa
	.byte	$aa
	.byte	$aa
	.byte	$0a
	.byte	$0a
	.byte	$aa
	.byte	$a0
	.byte	$a8
	.byte	$aa
	.byte	$2a
	.byte	$0a
	.byte	$aa
	.byte	$aa
	.byte	$22
	.byte	$88
	.byte	$aa
	.byte	$2a
	.byte	$0a
	.byte	$8a
	.byte	$aa
	.byte	$aa
	.byte	$aa
	.byte	$aa
	.byte	$aa
	.byte	$aa
	.byte	$aa
	.byte	$aa
	.byte	$aa
	.byte	$0a
	.byte	$02
	.byte	$88
	.byte	$aa
	.byte	$aa
	.byte	$aa
	.byte	$aa
	.byte	$aa
	.byte	$aa
	.byte	$aa
	.byte	$aa
	.byte	$aa
	.byte	$aa
	.byte	$aa
	.byte	$aa
	.byte	$aa
	.byte	$aa
	.byte	$22
	.byte	$00
	.byte	$00
	.byte	$00
	.byte	$00
	.byte	$00
	.byte	$00
	.byte	$00
	.byte	$00
	.byte	$00
	.byte	$00
	.byte	$00
	.byte	$00
	.byte	$00
	.byte	$00
	.byte	$00
	.byte	$00
_Level2Data:
	.byte	$b0
	.byte	$b1
	.byte	$b0
	.byte	$b1
	.byte	$b0
	.byte	$b1
	.byte	$b0
	.byte	$b1
	.byte	$b0
	.byte	$b1
	.byte	$b0
	.byte	$b1
	.byte	$b0
	.byte	$b1
	.byte	$b0
	.byte	$b1
	.byte	$b0
	.byte	$b1
	.byte	$b0
	.byte	$b1
	.byte	$b0
	.byte	$b1
	.byte	$b0
	.byte	$b1
	.byte	$b0
	.byte	$b1
	.byte	$b0
	.byte	$b1
	.byte	$b0
	.byte	$b1
	.byte	$b0
	.byte	$b1
	.byte	$b0
	.byte	$b1
	.byte	$b0
	.byte	$b1
	.byte	$b0
	.byte	$b1
	.byte	$b0
	.byte	$b1
	.byte	$b0
	.byte	$b1
	.byte	$b0
	.byte	$b1
	.byte	$b0
	.byte	$b1
	.byte	$b0
	.byte	$b1
	.byte	$b0
	.byte	$b1
	.byte	$b0
	.byte	$b1
	.byte	$b0
	.byte	$b1
	.byte	$b0
	.byte	$b1
	.byte	$b0
	.byte	$b1
	.byte	$b0
	.byte	$b1
	.byte	$b0
	.byte	$b1
	.byte	$b0
	.byte	$b1
	.byte	$b6
	.byte	$b7
	.byte	$b6
	.byte	$b7
	.byte	$b6
	.byte	$b7
	.byte	$b6
	.byte	$b7
	.byte	$b6
	.byte	$b7
	.byte	$b6
	.byte	$b7
	.byte	$b6
	.byte	$b7
	.byte	$b6
	.byte	$b7
	.byte	$b6
	.byte	$b7
	.byte	$b6
	.byte	$b7
	.byte	$b6
	.byte	$b7
	.byte	$b6
	.byte	$b7
	.byte	$b6
	.byte	$b7
	.byte	$b6
	.byte	$b7
	.byte	$b6
	.byte	$b7
	.byte	$b6
	.byte	$b7
	.byte	$b6
	.byte	$b7
	.byte	$b6
	.byte	$b7
	.byte	$b6
	.byte	$b7
	.byte	$b6
	.byte	$b7
	.byte	$b6
	.byte	$b7
	.byte	$b6
	.byte	$b7
	.byte	$b6
	.byte	$b7
	.byte	$b6
	.byte	$b7
	.byte	$b6
	.byte	$b7
	.byte	$b6
	.byte	$b7
	.byte	$b6
	.byte	$b7
	.byte	$b6
	.byte	$b7
	.byte	$b6
	.byte	$b7
	.byte	$b6
	.byte	$b7
	.byte	$b6
	.byte	$b7
	.byte	$b6
	.byte	$b7
	.byte	$a8
	.byte	$a9
	.byte	$df
	.byte	$ce
	.byte	$cf
	.byte	$de
	.byte	$df
	.byte	$ae
	.byte	$af
	.byte	$de
	.byte	$df
	.byte	$ae
	.byte	$af
	.byte	$de
	.byte	$df
	.byte	$ae
	.byte	$af
	.byte	$de
	.byte	$df
	.byte	$ae
	.byte	$af
	.byte	$de
	.byte	$df
	.byte	$ae
	.byte	$af
	.byte	$de
	.byte	$df
	.byte	$ae
	.byte	$af
	.byte	$de
	.byte	$df
	.byte	$ae
	.byte	$af
	.byte	$de
	.byte	$df
	.byte	$ae
	.byte	$af
	.byte	$de
	.byte	$df
	.byte	$ae
	.byte	$af
	.byte	$de
	.byte	$df
	.byte	$ae
	.byte	$af
	.byte	$de
	.byte	$df
	.byte	$ae
	.byte	$af
	.byte	$de
	.byte	$df
	.byte	$ae
	.byte	$af
	.byte	$de
	.byte	$df
	.byte	$ae
	.byte	$af
	.byte	$de
	.byte	$df
	.byte	$ae
	.byte	$af
	.byte	$de
	.byte	$a4
	.byte	$a5
	.byte	$b8
	.byte	$b9
	.byte	$af
	.byte	$de
	.byte	$df
	.byte	$ae
	.byte	$af
	.byte	$be
	.byte	$bf
	.byte	$ae
	.byte	$af
	.byte	$be
	.byte	$bf
	.byte	$ae
	.byte	$af
	.byte	$be
	.byte	$bf
	.byte	$ae
	.byte	$af
	.byte	$be
	.byte	$bf
	.byte	$ae
	.byte	$af
	.byte	$be
	.byte	$bf
	.byte	$ae
	.byte	$af
	.byte	$be
	.byte	$bf
	.byte	$ae
	.byte	$af
	.byte	$be
	.byte	$bf
	.byte	$ae
	.byte	$af
	.byte	$be
	.byte	$bf
	.byte	$ae
	.byte	$af
	.byte	$be
	.byte	$bf
	.byte	$ae
	.byte	$af
	.byte	$be
	.byte	$bf
	.byte	$ae
	.byte	$af
	.byte	$be
	.byte	$bf
	.byte	$ae
	.byte	$af
	.byte	$be
	.byte	$bf
	.byte	$ae
	.byte	$af
	.byte	$be
	.byte	$bf
	.byte	$ae
	.byte	$af
	.byte	$be
	.byte	$bf
	.byte	$ae
	.byte	$b4
	.byte	$b5
	.byte	$a8
	.byte	$a9
	.byte	$ae
	.byte	$af
	.byte	$be
	.byte	$bf
	.byte	$ce
	.byte	$cf
	.byte	$be
	.byte	$bf
	.byte	$ce
	.byte	$cf
	.byte	$be
	.byte	$bf
	.byte	$ce
	.byte	$cf
	.byte	$be
	.byte	$bf
	.byte	$ce
	.byte	$cf
	.byte	$be
	.byte	$bf
	.byte	$ce
	.byte	$cf
	.byte	$be
	.byte	$bf
	.byte	$ce
	.byte	$cf
	.byte	$be
	.byte	$bf
	.byte	$ce
	.byte	$cf
	.byte	$be
	.byte	$bf
	.byte	$ce
	.byte	$cf
	.byte	$be
	.byte	$bf
	.byte	$ce
	.byte	$cf
	.byte	$be
	.byte	$bf
	.byte	$ce
	.byte	$cf
	.byte	$be
	.byte	$bf
	.byte	$ce
	.byte	$cf
	.byte	$be
	.byte	$bf
	.byte	$ce
	.byte	$cf
	.byte	$be
	.byte	$bf
	.byte	$ce
	.byte	$cf
	.byte	$be
	.byte	$bf
	.byte	$ce
	.byte	$cf
	.byte	$be
	.byte	$bf
	.byte	$a4
	.byte	$a5
	.byte	$b8
	.byte	$b9
	.byte	$be
	.byte	$bf
	.byte	$ce
	.byte	$cf
	.byte	$de
	.byte	$df
	.byte	$ce
	.byte	$cf
	.byte	$de
	.byte	$df
	.byte	$ce
	.byte	$cf
	.byte	$de
	.byte	$df
	.byte	$ce
	.byte	$cf
	.byte	$de
	.byte	$df
	.byte	$ce
	.byte	$cf
	.byte	$de
	.byte	$df
	.byte	$ce
	.byte	$cf
	.byte	$de
	.byte	$df
	.byte	$ce
	.byte	$cf
	.byte	$de
	.byte	$df
	.byte	$ce
	.byte	$cf
	.byte	$de
	.byte	$df
	.byte	$ce
	.byte	$cf
	.byte	$de
	.byte	$df
	.byte	$ce
	.byte	$cf
	.byte	$de
	.byte	$df
	.byte	$ce
	.byte	$cf
	.byte	$de
	.byte	$df
	.byte	$ce
	.byte	$cf
	.byte	$de
	.byte	$df
	.byte	$ce
	.byte	$cf
	.byte	$de
	.byte	$df
	.byte	$ce
	.byte	$cf
	.byte	$de
	.byte	$df
	.byte	$ce
	.byte	$cf
	.byte	$b4
	.byte	$b5
	.byte	$a8
	.byte	$a9
	.byte	$df
	.byte	$ce
	.byte	$cf
	.byte	$de
	.byte	$df
	.byte	$ae
	.byte	$af
	.byte	$de
	.byte	$df
	.byte	$ae
	.byte	$af
	.byte	$de
	.byte	$df
	.byte	$ae
	.byte	$af
	.byte	$de
	.byte	$df
	.byte	$ae
	.byte	$af
	.byte	$de
	.byte	$df
	.byte	$ae
	.byte	$af
	.byte	$de
	.byte	$df
	.byte	$ae
	.byte	$af
	.byte	$de
	.byte	$df
	.byte	$ae
	.byte	$af
	.byte	$de
	.byte	$df
	.byte	$ae
	.byte	$af
	.byte	$de
	.byte	$df
	.byte	$ae
	.byte	$af
	.byte	$de
	.byte	$df
	.byte	$ae
	.byte	$af
	.byte	$de
	.byte	$df
	.byte	$ae
	.byte	$af
	.byte	$de
	.byte	$df
	.byte	$ae
	.byte	$af
	.byte	$de
	.byte	$df
	.byte	$ae
	.byte	$af
	.byte	$de
	.byte	$df
	.byte	$ae
	.byte	$af
	.byte	$de
	.byte	$a4
	.byte	$a5
	.byte	$b8
	.byte	$b9
	.byte	$af
	.byte	$de
	.byte	$df
	.byte	$ae
	.byte	$af
	.byte	$be
	.byte	$bf
	.byte	$ae
	.byte	$af
	.byte	$be
	.byte	$bf
	.byte	$ae
	.byte	$af
	.byte	$be
	.byte	$bf
	.byte	$ae
	.byte	$af
	.byte	$be
	.byte	$bf
	.byte	$ae
	.byte	$af
	.byte	$be
	.byte	$bf
	.byte	$ae
	.byte	$af
	.byte	$be
	.byte	$bf
	.byte	$ae
	.byte	$af
	.byte	$be
	.byte	$bf
	.byte	$ae
	.byte	$af
	.byte	$be
	.byte	$bf
	.byte	$ae
	.byte	$af
	.byte	$be
	.byte	$bf
	.byte	$ae
	.byte	$af
	.byte	$be
	.byte	$bf
	.byte	$ae
	.byte	$af
	.byte	$be
	.byte	$bf
	.byte	$ae
	.byte	$af
	.byte	$be
	.byte	$bf
	.byte	$ae
	.byte	$af
	.byte	$be
	.byte	$bf
	.byte	$ae
	.byte	$af
	.byte	$be
	.byte	$bf
	.byte	$ae
	.byte	$b4
	.byte	$b5
	.byte	$a8
	.byte	$a9
	.byte	$ae
	.byte	$af
	.byte	$be
	.byte	$bf
	.byte	$ce
	.byte	$cf
	.byte	$be
	.byte	$bf
	.byte	$ce
	.byte	$cf
	.byte	$be
	.byte	$bf
	.byte	$ce
	.byte	$cf
	.byte	$be
	.byte	$bf
	.byte	$ce
	.byte	$cf
	.byte	$be
	.byte	$bf
	.byte	$ce
	.byte	$cf
	.byte	$be
	.byte	$bf
	.byte	$ce
	.byte	$cf
	.byte	$be
	.byte	$bf
	.byte	$ce
	.byte	$cf
	.byte	$be
	.byte	$bf
	.byte	$ce
	.byte	$cf
	.byte	$be
	.byte	$bf
	.byte	$ce
	.byte	$cf
	.byte	$be
	.byte	$bf
	.byte	$ce
	.byte	$cf
	.byte	$be
	.byte	$bf
	.byte	$ce
	.byte	$cf
	.byte	$be
	.byte	$bf
	.byte	$ce
	.byte	$cf
	.byte	$be
	.byte	$bf
	.byte	$ce
	.byte	$cf
	.byte	$be
	.byte	$bf
	.byte	$ce
	.byte	$cf
	.byte	$be
	.byte	$bf
	.byte	$a4
	.byte	$a5
	.byte	$b8
	.byte	$b9
	.byte	$be
	.byte	$bf
	.byte	$ce
	.byte	$cf
	.byte	$de
	.byte	$df
	.byte	$ce
	.byte	$cf
	.byte	$de
	.byte	$df
	.byte	$ce
	.byte	$cf
	.byte	$de
	.byte	$df
	.byte	$ce
	.byte	$cf
	.byte	$de
	.byte	$df
	.byte	$ce
	.byte	$cf
	.byte	$de
	.byte	$df
	.byte	$ce
	.byte	$cf
	.byte	$de
	.byte	$df
	.byte	$ce
	.byte	$cf
	.byte	$de
	.byte	$df
	.byte	$ce
	.byte	$cf
	.byte	$de
	.byte	$df
	.byte	$ce
	.byte	$cf
	.byte	$de
	.byte	$df
	.byte	$ce
	.byte	$cf
	.byte	$de
	.byte	$df
	.byte	$ce
	.byte	$cf
	.byte	$de
	.byte	$df
	.byte	$ce
	.byte	$cf
	.byte	$de
	.byte	$df
	.byte	$ce
	.byte	$cf
	.byte	$de
	.byte	$df
	.byte	$ce
	.byte	$cf
	.byte	$de
	.byte	$df
	.byte	$ce
	.byte	$cf
	.byte	$b4
	.byte	$b5
	.byte	$a8
	.byte	$a9
	.byte	$df
	.byte	$ce
	.byte	$cf
	.byte	$de
	.byte	$df
	.byte	$ae
	.byte	$af
	.byte	$de
	.byte	$df
	.byte	$ae
	.byte	$af
	.byte	$de
	.byte	$df
	.byte	$ae
	.byte	$af
	.byte	$de
	.byte	$df
	.byte	$ae
	.byte	$af
	.byte	$de
	.byte	$df
	.byte	$ae
	.byte	$af
	.byte	$de
	.byte	$df
	.byte	$ae
	.byte	$af
	.byte	$de
	.byte	$df
	.byte	$ae
	.byte	$af
	.byte	$de
	.byte	$df
	.byte	$ae
	.byte	$af
	.byte	$de
	.byte	$df
	.byte	$ae
	.byte	$af
	.byte	$de
	.byte	$84
	.byte	$85
	.byte	$84
	.byte	$85
	.byte	$84
	.byte	$85
	.byte	$84
	.byte	$85
	.byte	$ae
	.byte	$af
	.byte	$de
	.byte	$df
	.byte	$ae
	.byte	$af
	.byte	$de
	.byte	$df
	.byte	$ae
	.byte	$af
	.byte	$de
	.byte	$df
	.byte	$a4
	.byte	$a5
	.byte	$b8
	.byte	$b9
	.byte	$af
	.byte	$de
	.byte	$df
	.byte	$ae
	.byte	$af
	.byte	$be
	.byte	$bf
	.byte	$ae
	.byte	$af
	.byte	$be
	.byte	$bf
	.byte	$ae
	.byte	$af
	.byte	$be
	.byte	$bf
	.byte	$ae
	.byte	$af
	.byte	$be
	.byte	$bf
	.byte	$ae
	.byte	$af
	.byte	$be
	.byte	$bf
	.byte	$ae
	.byte	$af
	.byte	$be
	.byte	$bf
	.byte	$ae
	.byte	$af
	.byte	$be
	.byte	$bf
	.byte	$ae
	.byte	$af
	.byte	$be
	.byte	$bf
	.byte	$ae
	.byte	$af
	.byte	$be
	.byte	$bf
	.byte	$ae
	.byte	$94
	.byte	$95
	.byte	$94
	.byte	$95
	.byte	$94
	.byte	$95
	.byte	$94
	.byte	$95
	.byte	$be
	.byte	$bf
	.byte	$ae
	.byte	$af
	.byte	$be
	.byte	$bf
	.byte	$ae
	.byte	$af
	.byte	$be
	.byte	$bf
	.byte	$ae
	.byte	$af
	.byte	$b4
	.byte	$b5
	.byte	$a8
	.byte	$a9
	.byte	$ae
	.byte	$af
	.byte	$be
	.byte	$bf
	.byte	$ce
	.byte	$cf
	.byte	$be
	.byte	$bf
	.byte	$ce
	.byte	$cf
	.byte	$be
	.byte	$bf
	.byte	$ce
	.byte	$cf
	.byte	$be
	.byte	$bf
	.byte	$ce
	.byte	$cf
	.byte	$be
	.byte	$bf
	.byte	$ce
	.byte	$cf
	.byte	$be
	.byte	$bf
	.byte	$ce
	.byte	$cf
	.byte	$be
	.byte	$bf
	.byte	$ce
	.byte	$cf
	.byte	$be
	.byte	$bf
	.byte	$ce
	.byte	$cf
	.byte	$be
	.byte	$bf
	.byte	$ce
	.byte	$cf
	.byte	$be
	.byte	$bf
	.byte	$ae
	.byte	$af
	.byte	$de
	.byte	$df
	.byte	$ae
	.byte	$af
	.byte	$de
	.byte	$df
	.byte	$ce
	.byte	$cf
	.byte	$be
	.byte	$bf
	.byte	$ce
	.byte	$cf
	.byte	$be
	.byte	$bf
	.byte	$ce
	.byte	$cf
	.byte	$be
	.byte	$bf
	.byte	$a4
	.byte	$a5
	.byte	$b8
	.byte	$b9
	.byte	$be
	.byte	$bf
	.byte	$ae
	.byte	$af
	.byte	$de
	.byte	$df
	.byte	$ce
	.byte	$cf
	.byte	$de
	.byte	$df
	.byte	$ce
	.byte	$cf
	.byte	$de
	.byte	$df
	.byte	$ce
	.byte	$cf
	.byte	$de
	.byte	$df
	.byte	$ce
	.byte	$cf
	.byte	$de
	.byte	$df
	.byte	$ce
	.byte	$cf
	.byte	$de
	.byte	$df
	.byte	$ce
	.byte	$cf
	.byte	$de
	.byte	$df
	.byte	$ce
	.byte	$cf
	.byte	$de
	.byte	$df
	.byte	$ce
	.byte	$cf
	.byte	$de
	.byte	$df
	.byte	$ce
	.byte	$cf
	.byte	$be
	.byte	$bf
	.byte	$ae
	.byte	$af
	.byte	$be
	.byte	$bf
	.byte	$ae
	.byte	$af
	.byte	$de
	.byte	$df
	.byte	$ce
	.byte	$cf
	.byte	$de
	.byte	$df
	.byte	$ce
	.byte	$cf
	.byte	$de
	.byte	$df
	.byte	$ce
	.byte	$cf
	.byte	$b4
	.byte	$b5
	.byte	$a8
	.byte	$a9
	.byte	$ce
	.byte	$cf
	.byte	$84
	.byte	$85
	.byte	$84
	.byte	$85
	.byte	$84
	.byte	$85
	.byte	$84
	.byte	$85
	.byte	$de
	.byte	$df
	.byte	$ae
	.byte	$af
	.byte	$de
	.byte	$df
	.byte	$ae
	.byte	$af
	.byte	$de
	.byte	$df
	.byte	$ae
	.byte	$af
	.byte	$de
	.byte	$df
	.byte	$ae
	.byte	$af
	.byte	$de
	.byte	$df
	.byte	$84
	.byte	$85
	.byte	$84
	.byte	$85
	.byte	$84
	.byte	$85
	.byte	$84
	.byte	$85
	.byte	$ae
	.byte	$af
	.byte	$de
	.byte	$df
	.byte	$ce
	.byte	$cf
	.byte	$be
	.byte	$bf
	.byte	$ce
	.byte	$cf
	.byte	$be
	.byte	$bf
	.byte	$ae
	.byte	$af
	.byte	$de
	.byte	$df
	.byte	$ae
	.byte	$af
	.byte	$de
	.byte	$df
	.byte	$ae
	.byte	$af
	.byte	$de
	.byte	$df
	.byte	$a4
	.byte	$a5
	.byte	$b8
	.byte	$b9
	.byte	$de
	.byte	$df
	.byte	$94
	.byte	$95
	.byte	$94
	.byte	$95
	.byte	$94
	.byte	$95
	.byte	$94
	.byte	$95
	.byte	$ae
	.byte	$af
	.byte	$be
	.byte	$bf
	.byte	$ae
	.byte	$af
	.byte	$be
	.byte	$bf
	.byte	$ae
	.byte	$af
	.byte	$be
	.byte	$bf
	.byte	$ae
	.byte	$af
	.byte	$be
	.byte	$bf
	.byte	$ae
	.byte	$af
	.byte	$94
	.byte	$95
	.byte	$94
	.byte	$95
	.byte	$94
	.byte	$95
	.byte	$94
	.byte	$95
	.byte	$be
	.byte	$bf
	.byte	$ae
	.byte	$af
	.byte	$de
	.byte	$df
	.byte	$ce
	.byte	$cf
	.byte	$de
	.byte	$df
	.byte	$ce
	.byte	$cf
	.byte	$be
	.byte	$bf
	.byte	$ae
	.byte	$af
	.byte	$be
	.byte	$bf
	.byte	$ae
	.byte	$af
	.byte	$be
	.byte	$bf
	.byte	$ae
	.byte	$af
	.byte	$b4
	.byte	$b5
	.byte	$a8
	.byte	$a9
	.byte	$ae
	.byte	$af
	.byte	$de
	.byte	$df
	.byte	$ae
	.byte	$af
	.byte	$de
	.byte	$df
	.byte	$ae
	.byte	$af
	.byte	$be
	.byte	$bf
	.byte	$ce
	.byte	$cf
	.byte	$be
	.byte	$bf
	.byte	$ce
	.byte	$cf
	.byte	$be
	.byte	$bf
	.byte	$ce
	.byte	$cf
	.byte	$be
	.byte	$bf
	.byte	$ce
	.byte	$cf
	.byte	$be
	.byte	$bf
	.byte	$ae
	.byte	$af
	.byte	$de
	.byte	$df
	.byte	$ae
	.byte	$af
	.byte	$de
	.byte	$df
	.byte	$ce
	.byte	$cf
	.byte	$be
	.byte	$bf
	.byte	$ae
	.byte	$af
	.byte	$de
	.byte	$df
	.byte	$ae
	.byte	$af
	.byte	$de
	.byte	$df
	.byte	$ce
	.byte	$cf
	.byte	$be
	.byte	$bf
	.byte	$ce
	.byte	$cf
	.byte	$04
	.byte	$05
	.byte	$ce
	.byte	$cf
	.byte	$be
	.byte	$bf
	.byte	$a4
	.byte	$a5
	.byte	$b8
	.byte	$b9
	.byte	$be
	.byte	$bf
	.byte	$ae
	.byte	$af
	.byte	$be
	.byte	$bf
	.byte	$ae
	.byte	$af
	.byte	$be
	.byte	$bf
	.byte	$ce
	.byte	$cf
	.byte	$de
	.byte	$df
	.byte	$ce
	.byte	$cf
	.byte	$de
	.byte	$df
	.byte	$ce
	.byte	$cf
	.byte	$de
	.byte	$df
	.byte	$ce
	.byte	$cf
	.byte	$de
	.byte	$df
	.byte	$ce
	.byte	$cf
	.byte	$be
	.byte	$bf
	.byte	$ae
	.byte	$af
	.byte	$be
	.byte	$bf
	.byte	$ae
	.byte	$af
	.byte	$de
	.byte	$df
	.byte	$ce
	.byte	$cf
	.byte	$be
	.byte	$bf
	.byte	$ae
	.byte	$af
	.byte	$be
	.byte	$bf
	.byte	$ae
	.byte	$af
	.byte	$de
	.byte	$df
	.byte	$ce
	.byte	$cf
	.byte	$de
	.byte	$df
	.byte	$14
	.byte	$15
	.byte	$de
	.byte	$df
	.byte	$ce
	.byte	$cf
	.byte	$b4
	.byte	$b5
	.byte	$a8
	.byte	$a9
	.byte	$ce
	.byte	$cf
	.byte	$be
	.byte	$bf
	.byte	$ce
	.byte	$cf
	.byte	$be
	.byte	$bf
	.byte	$ce
	.byte	$cf
	.byte	$de
	.byte	$df
	.byte	$ae
	.byte	$af
	.byte	$de
	.byte	$df
	.byte	$ae
	.byte	$af
	.byte	$84
	.byte	$85
	.byte	$84
	.byte	$85
	.byte	$84
	.byte	$85
	.byte	$84
	.byte	$85
	.byte	$de
	.byte	$df
	.byte	$ce
	.byte	$cf
	.byte	$be
	.byte	$bf
	.byte	$ce
	.byte	$cf
	.byte	$be
	.byte	$bf
	.byte	$ae
	.byte	$af
	.byte	$de
	.byte	$df
	.byte	$ce
	.byte	$cf
	.byte	$be
	.byte	$bf
	.byte	$ce
	.byte	$cf
	.byte	$be
	.byte	$bf
	.byte	$ae
	.byte	$af
	.byte	$84
	.byte	$85
	.byte	$84
	.byte	$85
	.byte	$84
	.byte	$85
	.byte	$84
	.byte	$85
	.byte	$de
	.byte	$df
	.byte	$a4
	.byte	$a5
	.byte	$b8
	.byte	$b9
	.byte	$de
	.byte	$df
	.byte	$ce
	.byte	$cf
	.byte	$de
	.byte	$df
	.byte	$ce
	.byte	$cf
	.byte	$de
	.byte	$df
	.byte	$ae
	.byte	$af
	.byte	$be
	.byte	$ae
	.byte	$ae
	.byte	$af
	.byte	$be
	.byte	$bf
	.byte	$94
	.byte	$95
	.byte	$94
	.byte	$95
	.byte	$94
	.byte	$95
	.byte	$94
	.byte	$95
	.byte	$ae
	.byte	$af
	.byte	$de
	.byte	$df
	.byte	$ce
	.byte	$cf
	.byte	$de
	.byte	$df
	.byte	$ce
	.byte	$cf
	.byte	$be
	.byte	$bf
	.byte	$ae
	.byte	$af
	.byte	$de
	.byte	$df
	.byte	$ce
	.byte	$cf
	.byte	$de
	.byte	$df
	.byte	$ce
	.byte	$cf
	.byte	$be
	.byte	$bf
	.byte	$94
	.byte	$95
	.byte	$94
	.byte	$95
	.byte	$94
	.byte	$95
	.byte	$94
	.byte	$95
	.byte	$ae
	.byte	$af
	.byte	$b4
	.byte	$b5
	.byte	$a8
	.byte	$a9
	.byte	$af
	.byte	$de
	.byte	$df
	.byte	$ae
	.byte	$af
	.byte	$de
	.byte	$df
	.byte	$ae
	.byte	$af
	.byte	$be
	.byte	$bf
	.byte	$ce
	.byte	$be
	.byte	$be
	.byte	$bf
	.byte	$ce
	.byte	$cf
	.byte	$de
	.byte	$df
	.byte	$ae
	.byte	$af
	.byte	$de
	.byte	$df
	.byte	$ae
	.byte	$af
	.byte	$be
	.byte	$bf
	.byte	$ae
	.byte	$af
	.byte	$de
	.byte	$df
	.byte	$ae
	.byte	$af
	.byte	$de
	.byte	$df
	.byte	$ce
	.byte	$cf
	.byte	$be
	.byte	$bf
	.byte	$ae
	.byte	$af
	.byte	$de
	.byte	$df
	.byte	$ae
	.byte	$af
	.byte	$de
	.byte	$df
	.byte	$ce
	.byte	$cf
	.byte	$de
	.byte	$df
	.byte	$ae
	.byte	$af
	.byte	$de
	.byte	$df
	.byte	$ae
	.byte	$af
	.byte	$be
	.byte	$bf
	.byte	$ae
	.byte	$a4
	.byte	$a5
	.byte	$b8
	.byte	$b9
	.byte	$bf
	.byte	$ae
	.byte	$af
	.byte	$be
	.byte	$bf
	.byte	$ae
	.byte	$af
	.byte	$be
	.byte	$bf
	.byte	$ce
	.byte	$cf
	.byte	$de
	.byte	$ce
	.byte	$ce
	.byte	$cf
	.byte	$de
	.byte	$df
	.byte	$ae
	.byte	$af
	.byte	$be
	.byte	$bf
	.byte	$ae
	.byte	$af
	.byte	$be
	.byte	$bf
	.byte	$ce
	.byte	$cf
	.byte	$be
	.byte	$bf
	.byte	$ae
	.byte	$af
	.byte	$be
	.byte	$bf
	.byte	$ae
	.byte	$af
	.byte	$de
	.byte	$df
	.byte	$ce
	.byte	$cf
	.byte	$be
	.byte	$bf
	.byte	$ae
	.byte	$af
	.byte	$be
	.byte	$bf
	.byte	$ae
	.byte	$af
	.byte	$de
	.byte	$df
	.byte	$ae
	.byte	$af
	.byte	$be
	.byte	$bf
	.byte	$ae
	.byte	$af
	.byte	$be
	.byte	$bf
	.byte	$ce
	.byte	$cf
	.byte	$be
	.byte	$b4
	.byte	$b5
	.byte	$a8
	.byte	$a9
	.byte	$ce
	.byte	$cf
	.byte	$be
	.byte	$bf
	.byte	$ce
	.byte	$cf
	.byte	$be
	.byte	$bf
	.byte	$84
	.byte	$85
	.byte	$84
	.byte	$85
	.byte	$84
	.byte	$85
	.byte	$84
	.byte	$85
	.byte	$ae
	.byte	$af
	.byte	$be
	.byte	$bf
	.byte	$ce
	.byte	$cf
	.byte	$be
	.byte	$bf
	.byte	$ce
	.byte	$cf
	.byte	$de
	.byte	$df
	.byte	$ce
	.byte	$cf
	.byte	$be
	.byte	$bf
	.byte	$ce
	.byte	$cf
	.byte	$be
	.byte	$bf
	.byte	$ae
	.byte	$af
	.byte	$de
	.byte	$df
	.byte	$84
	.byte	$85
	.byte	$84
	.byte	$85
	.byte	$84
	.byte	$85
	.byte	$84
	.byte	$85
	.byte	$ae
	.byte	$af
	.byte	$be
	.byte	$bf
	.byte	$ce
	.byte	$cf
	.byte	$be
	.byte	$bf
	.byte	$ce
	.byte	$cf
	.byte	$de
	.byte	$df
	.byte	$a4
	.byte	$a5
	.byte	$b8
	.byte	$b9
	.byte	$de
	.byte	$df
	.byte	$ce
	.byte	$cf
	.byte	$de
	.byte	$df
	.byte	$ce
	.byte	$cf
	.byte	$94
	.byte	$95
	.byte	$94
	.byte	$95
	.byte	$94
	.byte	$95
	.byte	$94
	.byte	$95
	.byte	$be
	.byte	$bf
	.byte	$ce
	.byte	$cf
	.byte	$de
	.byte	$df
	.byte	$ce
	.byte	$cf
	.byte	$de
	.byte	$df
	.byte	$ae
	.byte	$af
	.byte	$de
	.byte	$df
	.byte	$ce
	.byte	$cf
	.byte	$de
	.byte	$df
	.byte	$ce
	.byte	$cf
	.byte	$be
	.byte	$bf
	.byte	$ae
	.byte	$af
	.byte	$94
	.byte	$95
	.byte	$94
	.byte	$95
	.byte	$94
	.byte	$95
	.byte	$94
	.byte	$95
	.byte	$be
	.byte	$bf
	.byte	$ce
	.byte	$cf
	.byte	$de
	.byte	$df
	.byte	$ce
	.byte	$cf
	.byte	$de
	.byte	$df
	.byte	$ae
	.byte	$af
	.byte	$b4
	.byte	$b5
	.byte	$a8
	.byte	$a9
	.byte	$ae
	.byte	$af
	.byte	$de
	.byte	$df
	.byte	$ae
	.byte	$af
	.byte	$de
	.byte	$df
	.byte	$ae
	.byte	$af
	.byte	$be
	.byte	$bf
	.byte	$ae
	.byte	$af
	.byte	$be
	.byte	$bf
	.byte	$ce
	.byte	$cf
	.byte	$de
	.byte	$df
	.byte	$ae
	.byte	$af
	.byte	$de
	.byte	$df
	.byte	$ae
	.byte	$af
	.byte	$be
	.byte	$bf
	.byte	$ae
	.byte	$af
	.byte	$de
	.byte	$df
	.byte	$ae
	.byte	$af
	.byte	$de
	.byte	$df
	.byte	$ce
	.byte	$cf
	.byte	$be
	.byte	$bf
	.byte	$ae
	.byte	$af
	.byte	$be
	.byte	$bf
	.byte	$ae
	.byte	$af
	.byte	$be
	.byte	$bf
	.byte	$ce
	.byte	$cf
	.byte	$de
	.byte	$df
	.byte	$ae
	.byte	$af
	.byte	$de
	.byte	$df
	.byte	$ae
	.byte	$af
	.byte	$be
	.byte	$bf
	.byte	$a4
	.byte	$a5
	.byte	$b8
	.byte	$b9
	.byte	$be
	.byte	$bf
	.byte	$ae
	.byte	$af
	.byte	$be
	.byte	$bf
	.byte	$ae
	.byte	$af
	.byte	$be
	.byte	$bf
	.byte	$ce
	.byte	$cf
	.byte	$be
	.byte	$bf
	.byte	$ce
	.byte	$cf
	.byte	$de
	.byte	$df
	.byte	$ae
	.byte	$af
	.byte	$be
	.byte	$bf
	.byte	$ae
	.byte	$af
	.byte	$be
	.byte	$bf
	.byte	$ce
	.byte	$cf
	.byte	$be
	.byte	$bf
	.byte	$ae
	.byte	$af
	.byte	$be
	.byte	$bf
	.byte	$ae
	.byte	$af
	.byte	$de
	.byte	$df
	.byte	$ce
	.byte	$cf
	.byte	$be
	.byte	$bf
	.byte	$ce
	.byte	$cf
	.byte	$be
	.byte	$bf
	.byte	$ce
	.byte	$cf
	.byte	$de
	.byte	$df
	.byte	$ae
	.byte	$af
	.byte	$be
	.byte	$bf
	.byte	$ae
	.byte	$af
	.byte	$be
	.byte	$bf
	.byte	$ce
	.byte	$cf
	.byte	$b4
	.byte	$b5
	.byte	$a8
	.byte	$a9
	.byte	$cf
	.byte	$be
	.byte	$bf
	.byte	$ce
	.byte	$cf
	.byte	$be
	.byte	$bf
	.byte	$ce
	.byte	$cf
	.byte	$de
	.byte	$df
	.byte	$ce
	.byte	$cf
	.byte	$de
	.byte	$df
	.byte	$ae
	.byte	$af
	.byte	$be
	.byte	$bf
	.byte	$ce
	.byte	$cf
	.byte	$be
	.byte	$bf
	.byte	$ce
	.byte	$cf
	.byte	$de
	.byte	$df
	.byte	$ce
	.byte	$cf
	.byte	$be
	.byte	$bf
	.byte	$ce
	.byte	$cf
	.byte	$be
	.byte	$bf
	.byte	$ae
	.byte	$af
	.byte	$de
	.byte	$df
	.byte	$ce
	.byte	$cf
	.byte	$de
	.byte	$df
	.byte	$ce
	.byte	$cf
	.byte	$de
	.byte	$df
	.byte	$ae
	.byte	$af
	.byte	$be
	.byte	$bf
	.byte	$ce
	.byte	$cf
	.byte	$be
	.byte	$bf
	.byte	$ce
	.byte	$cf
	.byte	$de
	.byte	$df
	.byte	$ce
	.byte	$a4
	.byte	$a5
	.byte	$b8
	.byte	$b9
	.byte	$df
	.byte	$ce
	.byte	$cf
	.byte	$de
	.byte	$df
	.byte	$ce
	.byte	$cf
	.byte	$de
	.byte	$df
	.byte	$ae
	.byte	$af
	.byte	$de
	.byte	$df
	.byte	$ae
	.byte	$af
	.byte	$be
	.byte	$bf
	.byte	$ce
	.byte	$cf
	.byte	$de
	.byte	$df
	.byte	$ce
	.byte	$cf
	.byte	$de
	.byte	$df
	.byte	$ae
	.byte	$af
	.byte	$de
	.byte	$df
	.byte	$ce
	.byte	$cf
	.byte	$de
	.byte	$df
	.byte	$ce
	.byte	$cf
	.byte	$be
	.byte	$bf
	.byte	$ae
	.byte	$af
	.byte	$de
	.byte	$df
	.byte	$ae
	.byte	$af
	.byte	$de
	.byte	$df
	.byte	$ae
	.byte	$af
	.byte	$be
	.byte	$bf
	.byte	$ce
	.byte	$cf
	.byte	$de
	.byte	$df
	.byte	$ce
	.byte	$cf
	.byte	$de
	.byte	$df
	.byte	$ae
	.byte	$af
	.byte	$de
	.byte	$b4
	.byte	$b5
	.byte	$10
	.byte	$11
	.byte	$10
	.byte	$11
	.byte	$10
	.byte	$11
	.byte	$10
	.byte	$11
	.byte	$10
	.byte	$11
	.byte	$10
	.byte	$11
	.byte	$10
	.byte	$11
	.byte	$10
	.byte	$11
	.byte	$10
	.byte	$11
	.byte	$10
	.byte	$11
	.byte	$10
	.byte	$11
	.byte	$10
	.byte	$11
	.byte	$10
	.byte	$11
	.byte	$10
	.byte	$11
	.byte	$10
	.byte	$11
	.byte	$10
	.byte	$11
	.byte	$10
	.byte	$11
	.byte	$10
	.byte	$11
	.byte	$10
	.byte	$11
	.byte	$10
	.byte	$11
	.byte	$10
	.byte	$11
	.byte	$10
	.byte	$11
	.byte	$10
	.byte	$11
	.byte	$10
	.byte	$11
	.byte	$10
	.byte	$11
	.byte	$10
	.byte	$11
	.byte	$10
	.byte	$11
	.byte	$10
	.byte	$11
	.byte	$10
	.byte	$11
	.byte	$10
	.byte	$11
	.byte	$10
	.byte	$11
	.byte	$10
	.byte	$11
	.byte	$b0
	.byte	$b1
	.byte	$b0
	.byte	$b1
	.byte	$b0
	.byte	$b1
	.byte	$b0
	.byte	$b1
	.byte	$b0
	.byte	$b1
	.byte	$b0
	.byte	$b1
	.byte	$b0
	.byte	$b1
	.byte	$b0
	.byte	$b1
	.byte	$b0
	.byte	$b1
	.byte	$b0
	.byte	$b1
	.byte	$b0
	.byte	$b1
	.byte	$b0
	.byte	$b1
	.byte	$b0
	.byte	$b1
	.byte	$b0
	.byte	$b1
	.byte	$b0
	.byte	$b1
	.byte	$b0
	.byte	$b1
	.byte	$b0
	.byte	$b1
	.byte	$b0
	.byte	$b1
	.byte	$b0
	.byte	$b1
	.byte	$b0
	.byte	$b1
	.byte	$b0
	.byte	$b1
	.byte	$b0
	.byte	$b1
	.byte	$b0
	.byte	$b1
	.byte	$b0
	.byte	$b1
	.byte	$b0
	.byte	$b1
	.byte	$b0
	.byte	$b1
	.byte	$b0
	.byte	$b1
	.byte	$b0
	.byte	$b1
	.byte	$b0
	.byte	$b1
	.byte	$b0
	.byte	$b1
	.byte	$b0
	.byte	$b1
	.byte	$b0
	.byte	$b1
	.byte	$d5
	.byte	$f5
	.byte	$f5
	.byte	$f5
	.byte	$f5
	.byte	$f5
	.byte	$f5
	.byte	$f5
	.byte	$f5
	.byte	$f5
	.byte	$f5
	.byte	$f5
	.byte	$f5
	.byte	$f5
	.byte	$f5
	.byte	$75
	.byte	$dd
	.byte	$ff
	.byte	$ff
	.byte	$ff
	.byte	$ff
	.byte	$ff
	.byte	$ff
	.byte	$ff
	.byte	$ff
	.byte	$ff
	.byte	$ff
	.byte	$ff
	.byte	$ff
	.byte	$ff
	.byte	$ff
	.byte	$77
	.byte	$dd
	.byte	$ff
	.byte	$ff
	.byte	$ff
	.byte	$ff
	.byte	$ff
	.byte	$ff
	.byte	$ff
	.byte	$ff
	.byte	$ff
	.byte	$7f
	.byte	$5f
	.byte	$df
	.byte	$ff
	.byte	$ff
	.byte	$77
	.byte	$dd
	.byte	$5f
	.byte	$5f
	.byte	$ff
	.byte	$ff
	.byte	$ff
	.byte	$ff
	.byte	$7f
	.byte	$5f
	.byte	$df
	.byte	$ff
	.byte	$ff
	.byte	$ff
	.byte	$ff
	.byte	$ff
	.byte	$77
	.byte	$dd
	.byte	$ff
	.byte	$ff
	.byte	$ff
	.byte	$ff
	.byte	$5f
	.byte	$5f
	.byte	$ff
	.byte	$ff
	.byte	$ff
	.byte	$ff
	.byte	$ff
	.byte	$ff
	.byte	$5f
	.byte	$5e
	.byte	$77
	.byte	$dd
	.byte	$ff
	.byte	$7f
	.byte	$5f
	.byte	$df
	.byte	$ff
	.byte	$ff
	.byte	$ff
	.byte	$ff
	.byte	$ff
	.byte	$7f
	.byte	$5f
	.byte	$df
	.byte	$ff
	.byte	$ff
	.byte	$77
	.byte	$dd
	.byte	$ff
	.byte	$ff
	.byte	$ff
	.byte	$ff
	.byte	$ff
	.byte	$ff
	.byte	$ff
	.byte	$ff
	.byte	$ff
	.byte	$ff
	.byte	$ff
	.byte	$ff
	.byte	$ff
	.byte	$ff
	.byte	$77
	.byte	$05
	.byte	$05
	.byte	$05
	.byte	$05
	.byte	$05
	.byte	$05
	.byte	$05
	.byte	$05
	.byte	$05
	.byte	$05
	.byte	$05
	.byte	$05
	.byte	$05
	.byte	$05
	.byte	$05
	.byte	$05
_Level3Data:
	.byte	$a6
	.byte	$a7
	.byte	$a6
	.byte	$a7
	.byte	$a6
	.byte	$a7
	.byte	$a6
	.byte	$a7
	.byte	$a6
	.byte	$a7
	.byte	$a6
	.byte	$a7
	.byte	$a6
	.byte	$a7
	.byte	$a6
	.byte	$a7
	.byte	$a6
	.byte	$a7
	.byte	$a6
	.byte	$a7
	.byte	$a6
	.byte	$a7
	.byte	$a6
	.byte	$a7
	.byte	$a6
	.byte	$a7
	.byte	$a6
	.byte	$a7
	.byte	$a6
	.byte	$a7
	.byte	$a6
	.byte	$a7
	.byte	$a6
	.byte	$a7
	.byte	$a6
	.byte	$a7
	.byte	$a6
	.byte	$a7
	.byte	$a6
	.byte	$a7
	.byte	$a6
	.byte	$a7
	.byte	$a6
	.byte	$a7
	.byte	$a6
	.byte	$a7
	.byte	$a6
	.byte	$a7
	.byte	$a6
	.byte	$a7
	.byte	$a6
	.byte	$a7
	.byte	$a6
	.byte	$a7
	.byte	$a6
	.byte	$a7
	.byte	$a6
	.byte	$a7
	.byte	$a6
	.byte	$a7
	.byte	$a6
	.byte	$a7
	.byte	$a6
	.byte	$a7
	.byte	$b4
	.byte	$b5
	.byte	$b4
	.byte	$b4
	.byte	$b4
	.byte	$b5
	.byte	$b4
	.byte	$b9
	.byte	$b4
	.byte	$b5
	.byte	$b4
	.byte	$b5
	.byte	$b4
	.byte	$b5
	.byte	$b4
	.byte	$b9
	.byte	$b4
	.byte	$b8
	.byte	$b9
	.byte	$b5
	.byte	$b4
	.byte	$b5
	.byte	$b8
	.byte	$b9
	.byte	$b4
	.byte	$b5
	.byte	$b4
	.byte	$b5
	.byte	$b4
	.byte	$b9
	.byte	$b4
	.byte	$b5
	.byte	$b4
	.byte	$b5
	.byte	$b4
	.byte	$b5
	.byte	$b4
	.byte	$b5
	.byte	$b4
	.byte	$b4
	.byte	$b4
	.byte	$b5
	.byte	$b4
	.byte	$b5
	.byte	$b4
	.byte	$b9
	.byte	$b4
	.byte	$b5
	.byte	$b4
	.byte	$b5
	.byte	$b4
	.byte	$b5
	.byte	$b4
	.byte	$b9
	.byte	$b4
	.byte	$b5
	.byte	$b4
	.byte	$b8
	.byte	$b9
	.byte	$b5
	.byte	$b4
	.byte	$b5
	.byte	$b8
	.byte	$b9
	.byte	$10
	.byte	$11
	.byte	$a3
	.byte	$a2
	.byte	$a3
	.byte	$a2
	.byte	$a3
	.byte	$a2
	.byte	$a3
	.byte	$a2
	.byte	$a3
	.byte	$a2
	.byte	$a3
	.byte	$a2
	.byte	$a3
	.byte	$a2
	.byte	$a3
	.byte	$a2
	.byte	$a3
	.byte	$a2
	.byte	$a3
	.byte	$a2
	.byte	$a3
	.byte	$a2
	.byte	$a3
	.byte	$a2
	.byte	$a3
	.byte	$a2
	.byte	$a3
	.byte	$a2
	.byte	$a3
	.byte	$a2
	.byte	$a3
	.byte	$a2
	.byte	$a3
	.byte	$a2
	.byte	$a3
	.byte	$a2
	.byte	$a3
	.byte	$a2
	.byte	$a3
	.byte	$a2
	.byte	$a3
	.byte	$a2
	.byte	$a3
	.byte	$a2
	.byte	$a3
	.byte	$a2
	.byte	$a3
	.byte	$a2
	.byte	$a3
	.byte	$a2
	.byte	$a3
	.byte	$a2
	.byte	$a3
	.byte	$a2
	.byte	$a3
	.byte	$a2
	.byte	$a3
	.byte	$a2
	.byte	$a3
	.byte	$a2
	.byte	$10
	.byte	$11
	.byte	$b6
	.byte	$b7
	.byte	$b2
	.byte	$b3
	.byte	$b2
	.byte	$b3
	.byte	$b2
	.byte	$b3
	.byte	$b2
	.byte	$b3
	.byte	$b2
	.byte	$b3
	.byte	$b2
	.byte	$b3
	.byte	$b2
	.byte	$b3
	.byte	$b2
	.byte	$b3
	.byte	$b2
	.byte	$b3
	.byte	$b2
	.byte	$b3
	.byte	$b2
	.byte	$b3
	.byte	$b2
	.byte	$b3
	.byte	$b2
	.byte	$b3
	.byte	$b2
	.byte	$b3
	.byte	$b2
	.byte	$b3
	.byte	$b2
	.byte	$b3
	.byte	$b2
	.byte	$b3
	.byte	$b2
	.byte	$b3
	.byte	$b2
	.byte	$b3
	.byte	$b2
	.byte	$b3
	.byte	$b2
	.byte	$b3
	.byte	$b2
	.byte	$b3
	.byte	$b2
	.byte	$b3
	.byte	$b2
	.byte	$b3
	.byte	$b2
	.byte	$b3
	.byte	$b2
	.byte	$b3
	.byte	$b2
	.byte	$b3
	.byte	$b2
	.byte	$b3
	.byte	$b2
	.byte	$b3
	.byte	$b2
	.byte	$b3
	.byte	$b6
	.byte	$b7
	.byte	$10
	.byte	$11
	.byte	$a3
	.byte	$a2
	.byte	$a3
	.byte	$a2
	.byte	$a3
	.byte	$a2
	.byte	$a3
	.byte	$a2
	.byte	$a3
	.byte	$a2
	.byte	$a3
	.byte	$a2
	.byte	$a3
	.byte	$a2
	.byte	$a3
	.byte	$a2
	.byte	$a3
	.byte	$a2
	.byte	$a3
	.byte	$a2
	.byte	$a3
	.byte	$a2
	.byte	$a3
	.byte	$a2
	.byte	$a3
	.byte	$a2
	.byte	$a3
	.byte	$a2
	.byte	$a3
	.byte	$a2
	.byte	$a3
	.byte	$a2
	.byte	$a3
	.byte	$a2
	.byte	$a3
	.byte	$a2
	.byte	$a3
	.byte	$a2
	.byte	$a3
	.byte	$a2
	.byte	$a3
	.byte	$a2
	.byte	$a3
	.byte	$a2
	.byte	$a3
	.byte	$a2
	.byte	$a3
	.byte	$a2
	.byte	$a3
	.byte	$a2
	.byte	$a3
	.byte	$a2
	.byte	$a3
	.byte	$a2
	.byte	$a3
	.byte	$a2
	.byte	$04
	.byte	$05
	.byte	$a3
	.byte	$a2
	.byte	$10
	.byte	$11
	.byte	$b6
	.byte	$b7
	.byte	$b2
	.byte	$b3
	.byte	$b2
	.byte	$b3
	.byte	$b2
	.byte	$b3
	.byte	$b2
	.byte	$b3
	.byte	$b2
	.byte	$b3
	.byte	$b2
	.byte	$b3
	.byte	$b2
	.byte	$b3
	.byte	$b2
	.byte	$b3
	.byte	$b2
	.byte	$b3
	.byte	$b2
	.byte	$b3
	.byte	$b2
	.byte	$b3
	.byte	$b2
	.byte	$b3
	.byte	$b2
	.byte	$b3
	.byte	$b2
	.byte	$b3
	.byte	$b2
	.byte	$b3
	.byte	$b2
	.byte	$b3
	.byte	$b2
	.byte	$b3
	.byte	$b2
	.byte	$b3
	.byte	$b2
	.byte	$b3
	.byte	$b2
	.byte	$b3
	.byte	$b2
	.byte	$b3
	.byte	$b2
	.byte	$b3
	.byte	$b2
	.byte	$b3
	.byte	$b2
	.byte	$b3
	.byte	$b2
	.byte	$b3
	.byte	$b2
	.byte	$b3
	.byte	$b2
	.byte	$b3
	.byte	$b2
	.byte	$b3
	.byte	$14
	.byte	$15
	.byte	$b2
	.byte	$b3
	.byte	$b6
	.byte	$b7
	.byte	$10
	.byte	$11
	.byte	$a3
	.byte	$a2
	.byte	$a3
	.byte	$a2
	.byte	$a3
	.byte	$a2
	.byte	$a3
	.byte	$a2
	.byte	$a3
	.byte	$a2
	.byte	$a3
	.byte	$a2
	.byte	$a3
	.byte	$a2
	.byte	$a3
	.byte	$a2
	.byte	$a3
	.byte	$a2
	.byte	$a3
	.byte	$a2
	.byte	$a3
	.byte	$a2
	.byte	$a3
	.byte	$a2
	.byte	$a3
	.byte	$a2
	.byte	$84
	.byte	$85
	.byte	$84
	.byte	$85
	.byte	$84
	.byte	$85
	.byte	$84
	.byte	$85
	.byte	$a3
	.byte	$a2
	.byte	$a3
	.byte	$a2
	.byte	$a3
	.byte	$a2
	.byte	$a3
	.byte	$a2
	.byte	$a3
	.byte	$a2
	.byte	$a3
	.byte	$a2
	.byte	$a3
	.byte	$a2
	.byte	$a3
	.byte	$a2
	.byte	$84
	.byte	$85
	.byte	$84
	.byte	$85
	.byte	$84
	.byte	$85
	.byte	$84
	.byte	$85
	.byte	$a3
	.byte	$a2
	.byte	$10
	.byte	$11
	.byte	$b6
	.byte	$b7
	.byte	$b2
	.byte	$b3
	.byte	$b2
	.byte	$b3
	.byte	$b2
	.byte	$b3
	.byte	$b2
	.byte	$b3
	.byte	$b2
	.byte	$b3
	.byte	$b2
	.byte	$b3
	.byte	$b2
	.byte	$b3
	.byte	$b2
	.byte	$b3
	.byte	$b2
	.byte	$b3
	.byte	$b2
	.byte	$b3
	.byte	$b2
	.byte	$b3
	.byte	$b2
	.byte	$b3
	.byte	$b2
	.byte	$b3
	.byte	$94
	.byte	$95
	.byte	$94
	.byte	$95
	.byte	$94
	.byte	$95
	.byte	$94
	.byte	$95
	.byte	$b2
	.byte	$b3
	.byte	$b2
	.byte	$b3
	.byte	$b2
	.byte	$b3
	.byte	$b2
	.byte	$b3
	.byte	$b2
	.byte	$b3
	.byte	$b2
	.byte	$b3
	.byte	$b2
	.byte	$b3
	.byte	$b2
	.byte	$b3
	.byte	$94
	.byte	$95
	.byte	$94
	.byte	$95
	.byte	$94
	.byte	$95
	.byte	$94
	.byte	$95
	.byte	$b2
	.byte	$b3
	.byte	$b6
	.byte	$b7
	.byte	$10
	.byte	$11
	.byte	$a3
	.byte	$a2
	.byte	$a3
	.byte	$a2
	.byte	$a3
	.byte	$a2
	.byte	$a3
	.byte	$a2
	.byte	$a3
	.byte	$a2
	.byte	$a3
	.byte	$a2
	.byte	$a3
	.byte	$a2
	.byte	$a3
	.byte	$a2
	.byte	$a3
	.byte	$a2
	.byte	$a3
	.byte	$a2
	.byte	$a3
	.byte	$a2
	.byte	$a3
	.byte	$a2
	.byte	$a3
	.byte	$a2
	.byte	$a3
	.byte	$a2
	.byte	$a3
	.byte	$a2
	.byte	$a3
	.byte	$a2
	.byte	$a3
	.byte	$a2
	.byte	$a3
	.byte	$a2
	.byte	$a3
	.byte	$a2
	.byte	$a3
	.byte	$a2
	.byte	$a3
	.byte	$a2
	.byte	$a3
	.byte	$a2
	.byte	$a3
	.byte	$a2
	.byte	$a3
	.byte	$a2
	.byte	$a3
	.byte	$a2
	.byte	$a3
	.byte	$a2
	.byte	$a3
	.byte	$a2
	.byte	$a3
	.byte	$a2
	.byte	$a3
	.byte	$a2
	.byte	$a3
	.byte	$a2
	.byte	$10
	.byte	$11
	.byte	$b6
	.byte	$b7
	.byte	$b2
	.byte	$b3
	.byte	$b2
	.byte	$b3
	.byte	$b2
	.byte	$b3
	.byte	$b2
	.byte	$b3
	.byte	$b2
	.byte	$b3
	.byte	$b2
	.byte	$b3
	.byte	$b2
	.byte	$b3
	.byte	$b2
	.byte	$b3
	.byte	$b2
	.byte	$b3
	.byte	$b2
	.byte	$b3
	.byte	$b2
	.byte	$b3
	.byte	$b2
	.byte	$b3
	.byte	$b2
	.byte	$b3
	.byte	$b2
	.byte	$b3
	.byte	$b2
	.byte	$b3
	.byte	$b2
	.byte	$b3
	.byte	$b2
	.byte	$b3
	.byte	$b2
	.byte	$b3
	.byte	$b2
	.byte	$b3
	.byte	$b2
	.byte	$b3
	.byte	$b2
	.byte	$b3
	.byte	$b2
	.byte	$b3
	.byte	$b2
	.byte	$b3
	.byte	$b2
	.byte	$b3
	.byte	$b2
	.byte	$b3
	.byte	$b2
	.byte	$b3
	.byte	$b2
	.byte	$b3
	.byte	$b2
	.byte	$b3
	.byte	$b2
	.byte	$b3
	.byte	$b2
	.byte	$b3
	.byte	$b6
	.byte	$b7
	.byte	$10
	.byte	$11
	.byte	$a3
	.byte	$a2
	.byte	$a3
	.byte	$a2
	.byte	$a3
	.byte	$a2
	.byte	$a3
	.byte	$a2
	.byte	$a3
	.byte	$a2
	.byte	$a3
	.byte	$a2
	.byte	$a3
	.byte	$a2
	.byte	$84
	.byte	$85
	.byte	$84
	.byte	$85
	.byte	$84
	.byte	$85
	.byte	$84
	.byte	$85
	.byte	$a3
	.byte	$a2
	.byte	$a3
	.byte	$a2
	.byte	$a3
	.byte	$a2
	.byte	$a3
	.byte	$a2
	.byte	$a3
	.byte	$a2
	.byte	$a3
	.byte	$a2
	.byte	$a3
	.byte	$a2
	.byte	$a3
	.byte	$a2
	.byte	$84
	.byte	$85
	.byte	$84
	.byte	$85
	.byte	$84
	.byte	$85
	.byte	$84
	.byte	$85
	.byte	$a3
	.byte	$a2
	.byte	$a3
	.byte	$a2
	.byte	$a3
	.byte	$a2
	.byte	$a3
	.byte	$a2
	.byte	$a3
	.byte	$a2
	.byte	$a3
	.byte	$a2
	.byte	$a3
	.byte	$a2
	.byte	$10
	.byte	$11
	.byte	$b6
	.byte	$b7
	.byte	$b2
	.byte	$b3
	.byte	$b2
	.byte	$b3
	.byte	$b2
	.byte	$b3
	.byte	$b2
	.byte	$b3
	.byte	$b2
	.byte	$b3
	.byte	$b2
	.byte	$b3
	.byte	$b2
	.byte	$b3
	.byte	$94
	.byte	$95
	.byte	$94
	.byte	$95
	.byte	$94
	.byte	$95
	.byte	$94
	.byte	$95
	.byte	$b2
	.byte	$b3
	.byte	$b2
	.byte	$b3
	.byte	$b2
	.byte	$b3
	.byte	$b2
	.byte	$b3
	.byte	$b2
	.byte	$b3
	.byte	$b2
	.byte	$b3
	.byte	$b2
	.byte	$b3
	.byte	$b2
	.byte	$b3
	.byte	$94
	.byte	$95
	.byte	$94
	.byte	$95
	.byte	$94
	.byte	$95
	.byte	$94
	.byte	$95
	.byte	$b2
	.byte	$b3
	.byte	$b2
	.byte	$b3
	.byte	$b2
	.byte	$b3
	.byte	$b2
	.byte	$b3
	.byte	$b2
	.byte	$b3
	.byte	$b2
	.byte	$b3
	.byte	$b2
	.byte	$b3
	.byte	$b6
	.byte	$b7
	.byte	$10
	.byte	$11
	.byte	$a3
	.byte	$a2
	.byte	$a3
	.byte	$a2
	.byte	$a3
	.byte	$a2
	.byte	$a3
	.byte	$a2
	.byte	$a3
	.byte	$a2
	.byte	$a3
	.byte	$a2
	.byte	$a3
	.byte	$a2
	.byte	$a3
	.byte	$a2
	.byte	$a3
	.byte	$a2
	.byte	$a3
	.byte	$a2
	.byte	$a3
	.byte	$a2
	.byte	$a3
	.byte	$a2
	.byte	$a3
	.byte	$a2
	.byte	$a3
	.byte	$a2
	.byte	$a3
	.byte	$a2
	.byte	$a3
	.byte	$a2
	.byte	$a3
	.byte	$a2
	.byte	$a3
	.byte	$a2
	.byte	$a3
	.byte	$a2
	.byte	$a3
	.byte	$a2
	.byte	$a3
	.byte	$a2
	.byte	$a3
	.byte	$a2
	.byte	$a3
	.byte	$a2
	.byte	$a3
	.byte	$a2
	.byte	$a3
	.byte	$a2
	.byte	$a3
	.byte	$a2
	.byte	$a3
	.byte	$a2
	.byte	$a3
	.byte	$a2
	.byte	$a3
	.byte	$a2
	.byte	$a3
	.byte	$a2
	.byte	$10
	.byte	$11
	.byte	$b6
	.byte	$b7
	.byte	$b2
	.byte	$b3
	.byte	$b2
	.byte	$b3
	.byte	$b2
	.byte	$b3
	.byte	$b2
	.byte	$b3
	.byte	$b2
	.byte	$b3
	.byte	$b2
	.byte	$b3
	.byte	$b2
	.byte	$b3
	.byte	$b2
	.byte	$b3
	.byte	$b2
	.byte	$b3
	.byte	$b2
	.byte	$b3
	.byte	$b2
	.byte	$b3
	.byte	$b2
	.byte	$b3
	.byte	$b2
	.byte	$b3
	.byte	$b2
	.byte	$b3
	.byte	$b2
	.byte	$b3
	.byte	$b2
	.byte	$b3
	.byte	$b2
	.byte	$b3
	.byte	$b2
	.byte	$b3
	.byte	$b2
	.byte	$b3
	.byte	$b2
	.byte	$b3
	.byte	$b2
	.byte	$b3
	.byte	$b2
	.byte	$b3
	.byte	$b2
	.byte	$b3
	.byte	$b2
	.byte	$b3
	.byte	$b2
	.byte	$b3
	.byte	$b2
	.byte	$b3
	.byte	$b2
	.byte	$b3
	.byte	$b2
	.byte	$b3
	.byte	$b2
	.byte	$b3
	.byte	$b2
	.byte	$b3
	.byte	$b6
	.byte	$b7
	.byte	$10
	.byte	$11
	.byte	$a3
	.byte	$a2
	.byte	$84
	.byte	$85
	.byte	$84
	.byte	$85
	.byte	$84
	.byte	$85
	.byte	$84
	.byte	$85
	.byte	$a3
	.byte	$a2
	.byte	$a3
	.byte	$a2
	.byte	$a3
	.byte	$a2
	.byte	$a3
	.byte	$a2
	.byte	$a3
	.byte	$a2
	.byte	$a3
	.byte	$a2
	.byte	$a3
	.byte	$a2
	.byte	$a3
	.byte	$a2
	.byte	$a3
	.byte	$a2
	.byte	$a3
	.byte	$a2
	.byte	$a3
	.byte	$a2
	.byte	$a3
	.byte	$a2
	.byte	$a3
	.byte	$a2
	.byte	$a3
	.byte	$a2
	.byte	$a3
	.byte	$a2
	.byte	$a3
	.byte	$a2
	.byte	$a3
	.byte	$a2
	.byte	$a3
	.byte	$a2
	.byte	$84
	.byte	$85
	.byte	$84
	.byte	$85
	.byte	$84
	.byte	$85
	.byte	$a3
	.byte	$a2
	.byte	$a3
	.byte	$a2
	.byte	$a3
	.byte	$a2
	.byte	$a3
	.byte	$a2
	.byte	$10
	.byte	$11
	.byte	$b6
	.byte	$b7
	.byte	$b2
	.byte	$b3
	.byte	$94
	.byte	$95
	.byte	$94
	.byte	$95
	.byte	$94
	.byte	$95
	.byte	$94
	.byte	$95
	.byte	$b2
	.byte	$b3
	.byte	$b2
	.byte	$b3
	.byte	$b2
	.byte	$b3
	.byte	$b2
	.byte	$b3
	.byte	$b2
	.byte	$b3
	.byte	$b2
	.byte	$b3
	.byte	$b2
	.byte	$b3
	.byte	$b2
	.byte	$b3
	.byte	$b2
	.byte	$b3
	.byte	$b2
	.byte	$b3
	.byte	$b2
	.byte	$b3
	.byte	$b2
	.byte	$b3
	.byte	$b2
	.byte	$b3
	.byte	$b2
	.byte	$b3
	.byte	$b2
	.byte	$b3
	.byte	$b2
	.byte	$b3
	.byte	$b2
	.byte	$b3
	.byte	$b2
	.byte	$b3
	.byte	$94
	.byte	$95
	.byte	$94
	.byte	$95
	.byte	$94
	.byte	$95
	.byte	$b2
	.byte	$b3
	.byte	$b2
	.byte	$b3
	.byte	$b2
	.byte	$b3
	.byte	$b2
	.byte	$b3
	.byte	$b6
	.byte	$b7
	.byte	$10
	.byte	$11
	.byte	$a3
	.byte	$a2
	.byte	$a3
	.byte	$a2
	.byte	$a3
	.byte	$a2
	.byte	$a3
	.byte	$a2
	.byte	$a3
	.byte	$a2
	.byte	$a3
	.byte	$a2
	.byte	$a3
	.byte	$a2
	.byte	$a3
	.byte	$a2
	.byte	$a3
	.byte	$a2
	.byte	$a3
	.byte	$a2
	.byte	$a3
	.byte	$a2
	.byte	$a3
	.byte	$a2
	.byte	$a3
	.byte	$a2
	.byte	$a3
	.byte	$a2
	.byte	$a3
	.byte	$a2
	.byte	$a3
	.byte	$a2
	.byte	$a3
	.byte	$a2
	.byte	$a3
	.byte	$a2
	.byte	$a3
	.byte	$a2
	.byte	$a3
	.byte	$a2
	.byte	$a3
	.byte	$a2
	.byte	$a3
	.byte	$a2
	.byte	$a3
	.byte	$a2
	.byte	$a3
	.byte	$a2
	.byte	$a3
	.byte	$a2
	.byte	$a3
	.byte	$a2
	.byte	$a3
	.byte	$a2
	.byte	$a3
	.byte	$a2
	.byte	$a3
	.byte	$a2
	.byte	$a3
	.byte	$a2
	.byte	$10
	.byte	$11
	.byte	$b6
	.byte	$b7
	.byte	$b2
	.byte	$b3
	.byte	$b2
	.byte	$b3
	.byte	$b2
	.byte	$b3
	.byte	$b2
	.byte	$b3
	.byte	$b2
	.byte	$b3
	.byte	$b2
	.byte	$b3
	.byte	$b2
	.byte	$b3
	.byte	$b2
	.byte	$b3
	.byte	$b2
	.byte	$b3
	.byte	$b2
	.byte	$b3
	.byte	$b2
	.byte	$b3
	.byte	$b2
	.byte	$b3
	.byte	$b2
	.byte	$b3
	.byte	$b2
	.byte	$b3
	.byte	$b2
	.byte	$b3
	.byte	$b2
	.byte	$b3
	.byte	$b2
	.byte	$b3
	.byte	$b2
	.byte	$b3
	.byte	$b2
	.byte	$b3
	.byte	$b2
	.byte	$b3
	.byte	$b2
	.byte	$b3
	.byte	$b2
	.byte	$b3
	.byte	$b2
	.byte	$b3
	.byte	$b2
	.byte	$b3
	.byte	$b2
	.byte	$b3
	.byte	$b2
	.byte	$b3
	.byte	$b2
	.byte	$b3
	.byte	$b2
	.byte	$b3
	.byte	$b2
	.byte	$b3
	.byte	$b2
	.byte	$b3
	.byte	$b6
	.byte	$b7
	.byte	$10
	.byte	$11
	.byte	$a3
	.byte	$a2
	.byte	$a3
	.byte	$a2
	.byte	$a3
	.byte	$a2
	.byte	$a3
	.byte	$a2
	.byte	$a3
	.byte	$a2
	.byte	$a3
	.byte	$a2
	.byte	$a3
	.byte	$a2
	.byte	$84
	.byte	$85
	.byte	$84
	.byte	$85
	.byte	$84
	.byte	$85
	.byte	$84
	.byte	$85
	.byte	$a3
	.byte	$a2
	.byte	$a3
	.byte	$a2
	.byte	$a3
	.byte	$a2
	.byte	$84
	.byte	$85
	.byte	$84
	.byte	$85
	.byte	$84
	.byte	$85
	.byte	$84
	.byte	$85
	.byte	$a3
	.byte	$a2
	.byte	$a3
	.byte	$a2
	.byte	$a3
	.byte	$a2
	.byte	$a3
	.byte	$a2
	.byte	$a3
	.byte	$a2
	.byte	$a3
	.byte	$a2
	.byte	$a3
	.byte	$a2
	.byte	$a3
	.byte	$a2
	.byte	$a3
	.byte	$a2
	.byte	$84
	.byte	$85
	.byte	$84
	.byte	$85
	.byte	$84
	.byte	$85
	.byte	$10
	.byte	$11
	.byte	$b6
	.byte	$b7
	.byte	$b2
	.byte	$b3
	.byte	$b2
	.byte	$b3
	.byte	$b2
	.byte	$b3
	.byte	$b2
	.byte	$b3
	.byte	$b2
	.byte	$b3
	.byte	$b2
	.byte	$b3
	.byte	$b2
	.byte	$b3
	.byte	$94
	.byte	$95
	.byte	$94
	.byte	$95
	.byte	$94
	.byte	$95
	.byte	$94
	.byte	$95
	.byte	$b2
	.byte	$b3
	.byte	$b2
	.byte	$b3
	.byte	$b2
	.byte	$b3
	.byte	$94
	.byte	$95
	.byte	$94
	.byte	$95
	.byte	$94
	.byte	$95
	.byte	$94
	.byte	$95
	.byte	$b2
	.byte	$b3
	.byte	$b2
	.byte	$b3
	.byte	$b2
	.byte	$b3
	.byte	$b2
	.byte	$b3
	.byte	$b2
	.byte	$b3
	.byte	$b2
	.byte	$b3
	.byte	$b2
	.byte	$b3
	.byte	$b2
	.byte	$b3
	.byte	$b2
	.byte	$b3
	.byte	$94
	.byte	$95
	.byte	$94
	.byte	$95
	.byte	$94
	.byte	$95
	.byte	$b6
	.byte	$b7
	.byte	$10
	.byte	$11
	.byte	$a3
	.byte	$a2
	.byte	$a3
	.byte	$a2
	.byte	$a3
	.byte	$a2
	.byte	$a3
	.byte	$a2
	.byte	$a3
	.byte	$a2
	.byte	$a3
	.byte	$a2
	.byte	$a3
	.byte	$a2
	.byte	$a3
	.byte	$a2
	.byte	$a3
	.byte	$a2
	.byte	$a3
	.byte	$a2
	.byte	$a3
	.byte	$a2
	.byte	$a3
	.byte	$a2
	.byte	$a3
	.byte	$a2
	.byte	$a3
	.byte	$a2
	.byte	$a3
	.byte	$a2
	.byte	$a3
	.byte	$a2
	.byte	$a3
	.byte	$a2
	.byte	$a3
	.byte	$a2
	.byte	$a3
	.byte	$a2
	.byte	$a3
	.byte	$a2
	.byte	$a3
	.byte	$a2
	.byte	$a3
	.byte	$a2
	.byte	$a3
	.byte	$a2
	.byte	$a3
	.byte	$a2
	.byte	$a3
	.byte	$a2
	.byte	$a3
	.byte	$a2
	.byte	$a3
	.byte	$a2
	.byte	$a3
	.byte	$a2
	.byte	$a3
	.byte	$a2
	.byte	$a3
	.byte	$a2
	.byte	$10
	.byte	$11
	.byte	$b6
	.byte	$b7
	.byte	$b2
	.byte	$b3
	.byte	$b2
	.byte	$b3
	.byte	$b2
	.byte	$b3
	.byte	$b2
	.byte	$b3
	.byte	$b2
	.byte	$b3
	.byte	$b2
	.byte	$b3
	.byte	$b2
	.byte	$b3
	.byte	$b2
	.byte	$b3
	.byte	$b2
	.byte	$b3
	.byte	$b2
	.byte	$b3
	.byte	$b2
	.byte	$b3
	.byte	$b2
	.byte	$b3
	.byte	$b2
	.byte	$b3
	.byte	$b2
	.byte	$b3
	.byte	$b2
	.byte	$b3
	.byte	$b2
	.byte	$b3
	.byte	$b2
	.byte	$b3
	.byte	$b2
	.byte	$b3
	.byte	$b2
	.byte	$b3
	.byte	$b2
	.byte	$b3
	.byte	$b2
	.byte	$b3
	.byte	$b2
	.byte	$b3
	.byte	$b2
	.byte	$b3
	.byte	$b2
	.byte	$b3
	.byte	$b2
	.byte	$b3
	.byte	$b2
	.byte	$b3
	.byte	$b2
	.byte	$b3
	.byte	$b2
	.byte	$b3
	.byte	$b2
	.byte	$b3
	.byte	$b2
	.byte	$b3
	.byte	$b6
	.byte	$b7
	.byte	$10
	.byte	$11
	.byte	$a3
	.byte	$a2
	.byte	$a3
	.byte	$a2
	.byte	$a3
	.byte	$a2
	.byte	$a3
	.byte	$a2
	.byte	$a3
	.byte	$a2
	.byte	$a3
	.byte	$a2
	.byte	$a3
	.byte	$a2
	.byte	$a3
	.byte	$a2
	.byte	$a3
	.byte	$a2
	.byte	$a3
	.byte	$a2
	.byte	$a3
	.byte	$a2
	.byte	$a3
	.byte	$a2
	.byte	$a3
	.byte	$a2
	.byte	$a3
	.byte	$a2
	.byte	$a3
	.byte	$a2
	.byte	$a3
	.byte	$a2
	.byte	$a3
	.byte	$a2
	.byte	$a3
	.byte	$a2
	.byte	$a3
	.byte	$a2
	.byte	$a3
	.byte	$a2
	.byte	$84
	.byte	$85
	.byte	$84
	.byte	$85
	.byte	$84
	.byte	$85
	.byte	$84
	.byte	$85
	.byte	$a3
	.byte	$a2
	.byte	$a3
	.byte	$a2
	.byte	$a3
	.byte	$a2
	.byte	$a3
	.byte	$a2
	.byte	$a3
	.byte	$a2
	.byte	$a3
	.byte	$a2
	.byte	$10
	.byte	$11
	.byte	$b6
	.byte	$b7
	.byte	$b2
	.byte	$b3
	.byte	$b2
	.byte	$b3
	.byte	$b2
	.byte	$b3
	.byte	$b2
	.byte	$b3
	.byte	$b2
	.byte	$b3
	.byte	$b2
	.byte	$b3
	.byte	$b2
	.byte	$b3
	.byte	$b2
	.byte	$b3
	.byte	$b2
	.byte	$b3
	.byte	$b2
	.byte	$b3
	.byte	$b2
	.byte	$b3
	.byte	$b2
	.byte	$b3
	.byte	$b2
	.byte	$b3
	.byte	$b2
	.byte	$b3
	.byte	$b2
	.byte	$b3
	.byte	$b2
	.byte	$b3
	.byte	$b2
	.byte	$b3
	.byte	$b2
	.byte	$b3
	.byte	$b2
	.byte	$b3
	.byte	$b2
	.byte	$b3
	.byte	$94
	.byte	$95
	.byte	$94
	.byte	$95
	.byte	$94
	.byte	$95
	.byte	$94
	.byte	$95
	.byte	$b2
	.byte	$b3
	.byte	$b2
	.byte	$b3
	.byte	$b2
	.byte	$b3
	.byte	$b2
	.byte	$b3
	.byte	$b2
	.byte	$b3
	.byte	$b2
	.byte	$b3
	.byte	$b6
	.byte	$b7
	.byte	$10
	.byte	$11
	.byte	$a3
	.byte	$a2
	.byte	$a3
	.byte	$a2
	.byte	$a3
	.byte	$a2
	.byte	$a3
	.byte	$a2
	.byte	$a3
	.byte	$a2
	.byte	$a3
	.byte	$a2
	.byte	$a3
	.byte	$a2
	.byte	$a3
	.byte	$a2
	.byte	$a3
	.byte	$a2
	.byte	$a3
	.byte	$a2
	.byte	$a3
	.byte	$a2
	.byte	$a3
	.byte	$a2
	.byte	$a3
	.byte	$a2
	.byte	$a3
	.byte	$a2
	.byte	$a3
	.byte	$a2
	.byte	$a3
	.byte	$a2
	.byte	$a3
	.byte	$a2
	.byte	$a3
	.byte	$a2
	.byte	$a3
	.byte	$a2
	.byte	$a3
	.byte	$a2
	.byte	$a3
	.byte	$a2
	.byte	$a3
	.byte	$a2
	.byte	$a3
	.byte	$a2
	.byte	$a3
	.byte	$a2
	.byte	$a3
	.byte	$a2
	.byte	$a3
	.byte	$a2
	.byte	$a3
	.byte	$a2
	.byte	$a3
	.byte	$a2
	.byte	$a3
	.byte	$a2
	.byte	$a3
	.byte	$a2
	.byte	$10
	.byte	$11
	.byte	$b6
	.byte	$b7
	.byte	$b2
	.byte	$b3
	.byte	$b2
	.byte	$b3
	.byte	$b2
	.byte	$b3
	.byte	$b2
	.byte	$b3
	.byte	$b2
	.byte	$b3
	.byte	$b2
	.byte	$b3
	.byte	$b2
	.byte	$b3
	.byte	$b2
	.byte	$b3
	.byte	$b2
	.byte	$b3
	.byte	$b2
	.byte	$b3
	.byte	$b2
	.byte	$b3
	.byte	$b2
	.byte	$b3
	.byte	$b2
	.byte	$b3
	.byte	$b2
	.byte	$b3
	.byte	$b2
	.byte	$b3
	.byte	$b2
	.byte	$b3
	.byte	$b2
	.byte	$b3
	.byte	$b2
	.byte	$b3
	.byte	$b2
	.byte	$b3
	.byte	$b2
	.byte	$b3
	.byte	$b2
	.byte	$b3
	.byte	$b2
	.byte	$b3
	.byte	$b2
	.byte	$b3
	.byte	$b2
	.byte	$b3
	.byte	$b2
	.byte	$b3
	.byte	$b2
	.byte	$b3
	.byte	$b2
	.byte	$b3
	.byte	$b2
	.byte	$b3
	.byte	$b2
	.byte	$b3
	.byte	$b2
	.byte	$b3
	.byte	$b6
	.byte	$b7
	.byte	$10
	.byte	$11
	.byte	$a3
	.byte	$a2
	.byte	$a3
	.byte	$a2
	.byte	$a3
	.byte	$a2
	.byte	$a3
	.byte	$a2
	.byte	$a3
	.byte	$a2
	.byte	$a3
	.byte	$a2
	.byte	$a3
	.byte	$a2
	.byte	$a3
	.byte	$a2
	.byte	$a3
	.byte	$a2
	.byte	$a3
	.byte	$a2
	.byte	$a3
	.byte	$a2
	.byte	$a3
	.byte	$a2
	.byte	$a3
	.byte	$a2
	.byte	$a3
	.byte	$a2
	.byte	$a3
	.byte	$a2
	.byte	$a3
	.byte	$a2
	.byte	$a3
	.byte	$a2
	.byte	$a3
	.byte	$a2
	.byte	$a3
	.byte	$a2
	.byte	$a3
	.byte	$a2
	.byte	$a3
	.byte	$a2
	.byte	$a3
	.byte	$a2
	.byte	$a3
	.byte	$a2
	.byte	$a3
	.byte	$a2
	.byte	$a3
	.byte	$a2
	.byte	$a3
	.byte	$a2
	.byte	$a3
	.byte	$a2
	.byte	$a3
	.byte	$a2
	.byte	$a3
	.byte	$a2
	.byte	$a3
	.byte	$a2
	.byte	$10
	.byte	$11
	.byte	$b6
	.byte	$b7
	.byte	$b2
	.byte	$b3
	.byte	$b2
	.byte	$b3
	.byte	$b2
	.byte	$b3
	.byte	$b2
	.byte	$b3
	.byte	$b2
	.byte	$b3
	.byte	$b2
	.byte	$b3
	.byte	$b2
	.byte	$b3
	.byte	$b2
	.byte	$b3
	.byte	$b2
	.byte	$b3
	.byte	$b2
	.byte	$b3
	.byte	$b2
	.byte	$b3
	.byte	$b2
	.byte	$b3
	.byte	$b2
	.byte	$b3
	.byte	$b2
	.byte	$b3
	.byte	$b2
	.byte	$b3
	.byte	$b2
	.byte	$b3
	.byte	$b2
	.byte	$b3
	.byte	$b2
	.byte	$b3
	.byte	$b2
	.byte	$b3
	.byte	$b2
	.byte	$b3
	.byte	$b2
	.byte	$b3
	.byte	$b2
	.byte	$b3
	.byte	$b2
	.byte	$b3
	.byte	$b2
	.byte	$b3
	.byte	$b2
	.byte	$b3
	.byte	$b2
	.byte	$b3
	.byte	$b2
	.byte	$b3
	.byte	$b2
	.byte	$b3
	.byte	$b2
	.byte	$b3
	.byte	$b2
	.byte	$b3
	.byte	$b6
	.byte	$b7
	.byte	$a0
	.byte	$a1
	.byte	$a0
	.byte	$a1
	.byte	$a0
	.byte	$a1
	.byte	$a0
	.byte	$a1
	.byte	$a0
	.byte	$a1
	.byte	$a0
	.byte	$a1
	.byte	$a0
	.byte	$a1
	.byte	$a0
	.byte	$a1
	.byte	$a0
	.byte	$a1
	.byte	$a0
	.byte	$a1
	.byte	$a0
	.byte	$a1
	.byte	$a0
	.byte	$a1
	.byte	$a0
	.byte	$a1
	.byte	$a0
	.byte	$a1
	.byte	$a0
	.byte	$a1
	.byte	$a0
	.byte	$a1
	.byte	$a0
	.byte	$a1
	.byte	$a0
	.byte	$a1
	.byte	$a0
	.byte	$a1
	.byte	$a0
	.byte	$a1
	.byte	$a0
	.byte	$a1
	.byte	$a0
	.byte	$a1
	.byte	$a0
	.byte	$a1
	.byte	$a0
	.byte	$a1
	.byte	$a0
	.byte	$a1
	.byte	$a0
	.byte	$a1
	.byte	$a0
	.byte	$a1
	.byte	$a0
	.byte	$a1
	.byte	$a0
	.byte	$a1
	.byte	$a0
	.byte	$a1
	.byte	$a0
	.byte	$a1
	.byte	$a0
	.byte	$a1
	.byte	$b0
	.byte	$b1
	.byte	$b0
	.byte	$b1
	.byte	$b0
	.byte	$b1
	.byte	$b0
	.byte	$b1
	.byte	$b0
	.byte	$b1
	.byte	$b0
	.byte	$b1
	.byte	$b0
	.byte	$b1
	.byte	$b0
	.byte	$b1
	.byte	$b0
	.byte	$b1
	.byte	$b0
	.byte	$b1
	.byte	$b0
	.byte	$b1
	.byte	$b0
	.byte	$b1
	.byte	$b0
	.byte	$b1
	.byte	$b0
	.byte	$b1
	.byte	$b0
	.byte	$b1
	.byte	$b0
	.byte	$b1
	.byte	$b0
	.byte	$b1
	.byte	$b0
	.byte	$b1
	.byte	$b0
	.byte	$b1
	.byte	$b0
	.byte	$b1
	.byte	$b0
	.byte	$b1
	.byte	$b0
	.byte	$b1
	.byte	$b0
	.byte	$b1
	.byte	$b0
	.byte	$b1
	.byte	$b0
	.byte	$b1
	.byte	$b0
	.byte	$b1
	.byte	$b0
	.byte	$b1
	.byte	$b0
	.byte	$b1
	.byte	$b0
	.byte	$b1
	.byte	$b0
	.byte	$b1
	.byte	$b0
	.byte	$b1
	.byte	$b0
	.byte	$b1
	.byte	$7f
	.byte	$5f
	.byte	$5f
	.byte	$5f
	.byte	$5f
	.byte	$5f
	.byte	$5f
	.byte	$5f
	.byte	$5f
	.byte	$5f
	.byte	$5f
	.byte	$5f
	.byte	$5f
	.byte	$5f
	.byte	$5f
	.byte	$df
	.byte	$77
	.byte	$55
	.byte	$55
	.byte	$55
	.byte	$55
	.byte	$55
	.byte	$55
	.byte	$f5
	.byte	$f5
	.byte	$55
	.byte	$55
	.byte	$55
	.byte	$55
	.byte	$f5
	.byte	$f1
	.byte	$dd
	.byte	$77
	.byte	$55
	.byte	$55
	.byte	$55
	.byte	$f5
	.byte	$f5
	.byte	$55
	.byte	$55
	.byte	$55
	.byte	$55
	.byte	$f5
	.byte	$f5
	.byte	$55
	.byte	$55
	.byte	$55
	.byte	$dd
	.byte	$77
	.byte	$f5
	.byte	$f5
	.byte	$55
	.byte	$55
	.byte	$55
	.byte	$55
	.byte	$55
	.byte	$55
	.byte	$55
	.byte	$55
	.byte	$55
	.byte	$f5
	.byte	$75
	.byte	$55
	.byte	$dd
	.byte	$77
	.byte	$55
	.byte	$55
	.byte	$55
	.byte	$f5
	.byte	$f5
	.byte	$55
	.byte	$d5
	.byte	$f5
	.byte	$75
	.byte	$55
	.byte	$55
	.byte	$55
	.byte	$55
	.byte	$f5
	.byte	$fd
	.byte	$77
	.byte	$55
	.byte	$55
	.byte	$55
	.byte	$55
	.byte	$55
	.byte	$55
	.byte	$55
	.byte	$55
	.byte	$55
	.byte	$d5
	.byte	$f5
	.byte	$75
	.byte	$55
	.byte	$55
	.byte	$dd
	.byte	$77
	.byte	$55
	.byte	$55
	.byte	$55
	.byte	$55
	.byte	$55
	.byte	$55
	.byte	$55
	.byte	$55
	.byte	$55
	.byte	$55
	.byte	$55
	.byte	$55
	.byte	$55
	.byte	$55
	.byte	$dd
	.byte	$0f
	.byte	$0f
	.byte	$0f
	.byte	$0f
	.byte	$0f
	.byte	$0f
	.byte	$0f
	.byte	$0f
	.byte	$0f
	.byte	$0f
	.byte	$0f
	.byte	$0f
	.byte	$0f
	.byte	$0f
	.byte	$0f
	.byte	$0f
_Level1A:
	.byte	$a2
	.byte	$a3
	.byte	$a6
	.byte	$a7
	.byte	$a6
	.byte	$a7
	.byte	$a6
	.byte	$a7
	.byte	$a6
	.byte	$a7
	.byte	$a6
	.byte	$a7
	.byte	$a6
	.byte	$a7
	.byte	$a6
	.byte	$a7
	.byte	$a6
	.byte	$a7
	.byte	$a6
	.byte	$a7
	.byte	$a6
	.byte	$a7
	.byte	$a6
	.byte	$a7
	.byte	$a6
	.byte	$a7
	.byte	$a6
	.byte	$a7
	.byte	$a6
	.byte	$a7
	.byte	$a6
	.byte	$a7
	.byte	$b2
	.byte	$b3
	.byte	$91
	.byte	$91
	.byte	$91
	.byte	$91
	.byte	$91
	.byte	$91
	.byte	$91
	.byte	$91
	.byte	$91
	.byte	$91
	.byte	$91
	.byte	$91
	.byte	$91
	.byte	$91
	.byte	$91
	.byte	$91
	.byte	$91
	.byte	$91
	.byte	$91
	.byte	$91
	.byte	$91
	.byte	$91
	.byte	$91
	.byte	$91
	.byte	$91
	.byte	$91
	.byte	$91
	.byte	$91
	.byte	$91
	.byte	$91
	.byte	$82
	.byte	$83
	.byte	$8b
	.byte	$a2
	.byte	$a3
	.byte	$b2
	.byte	$b3
	.byte	$a2
	.byte	$a3
	.byte	$b2
	.byte	$b3
	.byte	$a2
	.byte	$a3
	.byte	$b2
	.byte	$b3
	.byte	$a2
	.byte	$a3
	.byte	$b2
	.byte	$b3
	.byte	$a2
	.byte	$a3
	.byte	$b2
	.byte	$b3
	.byte	$a2
	.byte	$a3
	.byte	$b2
	.byte	$b3
	.byte	$a2
	.byte	$a3
	.byte	$b2
	.byte	$b3
	.byte	$a2
	.byte	$92
	.byte	$93
	.byte	$9b
	.byte	$b2
	.byte	$b3
	.byte	$a2
	.byte	$a3
	.byte	$b2
	.byte	$b3
	.byte	$a2
	.byte	$a3
	.byte	$b2
	.byte	$b3
	.byte	$a2
	.byte	$a3
	.byte	$b2
	.byte	$b3
	.byte	$a2
	.byte	$a3
	.byte	$b2
	.byte	$b3
	.byte	$a2
	.byte	$a3
	.byte	$b2
	.byte	$b3
	.byte	$a2
	.byte	$a3
	.byte	$b2
	.byte	$b3
	.byte	$a2
	.byte	$a3
	.byte	$b2
	.byte	$82
	.byte	$83
	.byte	$8b
	.byte	$a3
	.byte	$b2
	.byte	$b3
	.byte	$a2
	.byte	$a3
	.byte	$b2
	.byte	$b3
	.byte	$a2
	.byte	$a3
	.byte	$b2
	.byte	$b3
	.byte	$a2
	.byte	$a3
	.byte	$b2
	.byte	$b3
	.byte	$a2
	.byte	$a3
	.byte	$b2
	.byte	$b3
	.byte	$a2
	.byte	$a3
	.byte	$b2
	.byte	$b3
	.byte	$a2
	.byte	$a3
	.byte	$b2
	.byte	$b3
	.byte	$a2
	.byte	$a3
	.byte	$92
	.byte	$93
	.byte	$9b
	.byte	$b3
	.byte	$a2
	.byte	$a3
	.byte	$b2
	.byte	$b3
	.byte	$a2
	.byte	$a3
	.byte	$b2
	.byte	$b3
	.byte	$a2
	.byte	$a3
	.byte	$b2
	.byte	$b3
	.byte	$a2
	.byte	$a3
	.byte	$b2
	.byte	$b3
	.byte	$a2
	.byte	$a3
	.byte	$b2
	.byte	$b3
	.byte	$a2
	.byte	$a3
	.byte	$b2
	.byte	$b3
	.byte	$a2
	.byte	$a3
	.byte	$b2
	.byte	$b3
	.byte	$82
	.byte	$83
	.byte	$8b
	.byte	$a2
	.byte	$a3
	.byte	$b2
	.byte	$b3
	.byte	$a2
	.byte	$a3
	.byte	$b2
	.byte	$b3
	.byte	$a2
	.byte	$a3
	.byte	$b2
	.byte	$b3
	.byte	$a2
	.byte	$a3
	.byte	$b2
	.byte	$b3
	.byte	$a2
	.byte	$a3
	.byte	$b2
	.byte	$b3
	.byte	$a2
	.byte	$a3
	.byte	$b2
	.byte	$b3
	.byte	$a2
	.byte	$a3
	.byte	$b2
	.byte	$b3
	.byte	$a2
	.byte	$92
	.byte	$93
	.byte	$9b
	.byte	$b2
	.byte	$b3
	.byte	$a2
	.byte	$a3
	.byte	$b2
	.byte	$b3
	.byte	$a2
	.byte	$a3
	.byte	$b2
	.byte	$b3
	.byte	$a2
	.byte	$a3
	.byte	$b2
	.byte	$b3
	.byte	$a2
	.byte	$a3
	.byte	$b2
	.byte	$b3
	.byte	$a2
	.byte	$a3
	.byte	$b2
	.byte	$b3
	.byte	$a2
	.byte	$a3
	.byte	$b2
	.byte	$b3
	.byte	$a2
	.byte	$a3
	.byte	$b2
	.byte	$82
	.byte	$83
	.byte	$8b
	.byte	$a3
	.byte	$b2
	.byte	$b3
	.byte	$a2
	.byte	$a3
	.byte	$b2
	.byte	$b3
	.byte	$a2
	.byte	$a3
	.byte	$b2
	.byte	$b3
	.byte	$a2
	.byte	$a3
	.byte	$b2
	.byte	$b3
	.byte	$a2
	.byte	$a3
	.byte	$b2
	.byte	$b3
	.byte	$a2
	.byte	$a3
	.byte	$b2
	.byte	$b3
	.byte	$a2
	.byte	$a3
	.byte	$b2
	.byte	$b3
	.byte	$a2
	.byte	$a3
	.byte	$92
	.byte	$93
	.byte	$9b
	.byte	$b3
	.byte	$a2
	.byte	$a3
	.byte	$b2
	.byte	$b3
	.byte	$a2
	.byte	$a3
	.byte	$b2
	.byte	$b3
	.byte	$a2
	.byte	$a3
	.byte	$b2
	.byte	$b3
	.byte	$a2
	.byte	$a3
	.byte	$b2
	.byte	$b3
	.byte	$a2
	.byte	$a3
	.byte	$b2
	.byte	$b3
	.byte	$a2
	.byte	$a3
	.byte	$b2
	.byte	$b3
	.byte	$a2
	.byte	$a3
	.byte	$b2
	.byte	$b3
	.byte	$82
	.byte	$83
	.byte	$84
	.byte	$85
	.byte	$84
	.byte	$85
	.byte	$84
	.byte	$85
	.byte	$84
	.byte	$85
	.byte	$8b
	.byte	$a2
	.byte	$a3
	.byte	$b2
	.byte	$b3
	.byte	$a2
	.byte	$a3
	.byte	$b2
	.byte	$b3
	.byte	$a2
	.byte	$a3
	.byte	$b2
	.byte	$b3
	.byte	$a2
	.byte	$a3
	.byte	$b2
	.byte	$b3
	.byte	$a2
	.byte	$a3
	.byte	$b2
	.byte	$b3
	.byte	$a2
	.byte	$92
	.byte	$93
	.byte	$94
	.byte	$95
	.byte	$94
	.byte	$95
	.byte	$94
	.byte	$95
	.byte	$94
	.byte	$95
	.byte	$9b
	.byte	$b2
	.byte	$b3
	.byte	$a2
	.byte	$a3
	.byte	$b2
	.byte	$b3
	.byte	$a2
	.byte	$a3
	.byte	$b2
	.byte	$b3
	.byte	$a2
	.byte	$a3
	.byte	$b2
	.byte	$b3
	.byte	$a2
	.byte	$a3
	.byte	$b2
	.byte	$b3
	.byte	$a2
	.byte	$a3
	.byte	$b2
	.byte	$82
	.byte	$83
	.byte	$8b
	.byte	$a3
	.byte	$b2
	.byte	$b3
	.byte	$a2
	.byte	$a3
	.byte	$ea
	.byte	$ab
	.byte	$a2
	.byte	$a3
	.byte	$b2
	.byte	$b3
	.byte	$a2
	.byte	$a3
	.byte	$b2
	.byte	$b3
	.byte	$a2
	.byte	$a3
	.byte	$b2
	.byte	$b3
	.byte	$a2
	.byte	$a3
	.byte	$b2
	.byte	$b3
	.byte	$a2
	.byte	$a3
	.byte	$b2
	.byte	$b3
	.byte	$a2
	.byte	$a3
	.byte	$92
	.byte	$93
	.byte	$9b
	.byte	$b3
	.byte	$a2
	.byte	$a3
	.byte	$b2
	.byte	$b3
	.byte	$a2
	.byte	$a3
	.byte	$b2
	.byte	$b3
	.byte	$a2
	.byte	$a3
	.byte	$b2
	.byte	$b3
	.byte	$a2
	.byte	$a3
	.byte	$b2
	.byte	$b3
	.byte	$a2
	.byte	$a3
	.byte	$b2
	.byte	$b3
	.byte	$a2
	.byte	$a3
	.byte	$b2
	.byte	$b3
	.byte	$a2
	.byte	$a3
	.byte	$b2
	.byte	$b3
	.byte	$82
	.byte	$83
	.byte	$8b
	.byte	$a2
	.byte	$a3
	.byte	$b2
	.byte	$b3
	.byte	$8a
	.byte	$84
	.byte	$85
	.byte	$84
	.byte	$85
	.byte	$84
	.byte	$85
	.byte	$84
	.byte	$85
	.byte	$8b
	.byte	$b2
	.byte	$b3
	.byte	$a2
	.byte	$a3
	.byte	$b2
	.byte	$b3
	.byte	$a2
	.byte	$a3
	.byte	$b2
	.byte	$b3
	.byte	$a2
	.byte	$a3
	.byte	$b2
	.byte	$b3
	.byte	$a2
	.byte	$92
	.byte	$93
	.byte	$9b
	.byte	$b2
	.byte	$b3
	.byte	$a2
	.byte	$a3
	.byte	$9a
	.byte	$94
	.byte	$95
	.byte	$94
	.byte	$95
	.byte	$94
	.byte	$95
	.byte	$94
	.byte	$95
	.byte	$9b
	.byte	$a2
	.byte	$a3
	.byte	$b2
	.byte	$b3
	.byte	$a2
	.byte	$a3
	.byte	$b2
	.byte	$b3
	.byte	$a2
	.byte	$a3
	.byte	$b2
	.byte	$b3
	.byte	$a2
	.byte	$a3
	.byte	$b2
	.byte	$82
	.byte	$83
	.byte	$8b
	.byte	$a3
	.byte	$b2
	.byte	$b3
	.byte	$a2
	.byte	$a3
	.byte	$aa
	.byte	$ab
	.byte	$aa
	.byte	$ab
	.byte	$aa
	.byte	$ab
	.byte	$aa
	.byte	$ab
	.byte	$b2
	.byte	$b3
	.byte	$a2
	.byte	$a3
	.byte	$b2
	.byte	$b3
	.byte	$a2
	.byte	$a3
	.byte	$b2
	.byte	$b3
	.byte	$a2
	.byte	$a3
	.byte	$b2
	.byte	$b3
	.byte	$a2
	.byte	$a3
	.byte	$92
	.byte	$93
	.byte	$9b
	.byte	$b3
	.byte	$a2
	.byte	$a3
	.byte	$b2
	.byte	$b3
	.byte	$a2
	.byte	$a3
	.byte	$b2
	.byte	$b3
	.byte	$a2
	.byte	$a3
	.byte	$b2
	.byte	$b3
	.byte	$a2
	.byte	$a3
	.byte	$b2
	.byte	$b3
	.byte	$a2
	.byte	$a3
	.byte	$d8
	.byte	$d9
	.byte	$a2
	.byte	$a3
	.byte	$d8
	.byte	$d9
	.byte	$a2
	.byte	$a3
	.byte	$b2
	.byte	$b3
	.byte	$82
	.byte	$83
	.byte	$8b
	.byte	$a2
	.byte	$a3
	.byte	$b2
	.byte	$b3
	.byte	$a2
	.byte	$a3
	.byte	$b2
	.byte	$b3
	.byte	$a2
	.byte	$a3
	.byte	$b2
	.byte	$b3
	.byte	$a2
	.byte	$a3
	.byte	$b2
	.byte	$b3
	.byte	$8a
	.byte	$84
	.byte	$85
	.byte	$84
	.byte	$85
	.byte	$84
	.byte	$85
	.byte	$84
	.byte	$85
	.byte	$8b
	.byte	$b2
	.byte	$b3
	.byte	$a2
	.byte	$92
	.byte	$93
	.byte	$9b
	.byte	$b2
	.byte	$b3
	.byte	$a2
	.byte	$a3
	.byte	$b2
	.byte	$b3
	.byte	$a2
	.byte	$a3
	.byte	$b2
	.byte	$b3
	.byte	$a2
	.byte	$a3
	.byte	$b2
	.byte	$b3
	.byte	$a2
	.byte	$a3
	.byte	$9a
	.byte	$94
	.byte	$95
	.byte	$94
	.byte	$95
	.byte	$94
	.byte	$95
	.byte	$94
	.byte	$95
	.byte	$9b
	.byte	$a2
	.byte	$a3
	.byte	$b2
	.byte	$82
	.byte	$83
	.byte	$8b
	.byte	$a3
	.byte	$b2
	.byte	$b3
	.byte	$a2
	.byte	$a3
	.byte	$b2
	.byte	$b3
	.byte	$a2
	.byte	$a3
	.byte	$b2
	.byte	$b3
	.byte	$a2
	.byte	$a3
	.byte	$b2
	.byte	$b3
	.byte	$a2
	.byte	$a3
	.byte	$aa
	.byte	$ab
	.byte	$aa
	.byte	$ab
	.byte	$aa
	.byte	$ab
	.byte	$aa
	.byte	$ab
	.byte	$b2
	.byte	$b3
	.byte	$a2
	.byte	$a3
	.byte	$92
	.byte	$93
	.byte	$9b
	.byte	$b3
	.byte	$a2
	.byte	$a3
	.byte	$b2
	.byte	$b3
	.byte	$a2
	.byte	$a3
	.byte	$c8
	.byte	$c9
	.byte	$a2
	.byte	$a3
	.byte	$b2
	.byte	$b3
	.byte	$d8
	.byte	$d9
	.byte	$b2
	.byte	$b3
	.byte	$b3
	.byte	$a2
	.byte	$a3
	.byte	$b2
	.byte	$b3
	.byte	$a2
	.byte	$a3
	.byte	$b2
	.byte	$a2
	.byte	$a3
	.byte	$b2
	.byte	$b3
	.byte	$82
	.byte	$83
	.byte	$8b
	.byte	$a2
	.byte	$a3
	.byte	$b2
	.byte	$b3
	.byte	$a2
	.byte	$a3
	.byte	$8a
	.byte	$84
	.byte	$85
	.byte	$84
	.byte	$85
	.byte	$84
	.byte	$85
	.byte	$84
	.byte	$85
	.byte	$8b
	.byte	$a2
	.byte	$a3
	.byte	$b2
	.byte	$b3
	.byte	$a2
	.byte	$a3
	.byte	$b2
	.byte	$b3
	.byte	$a2
	.byte	$a3
	.byte	$b2
	.byte	$b3
	.byte	$a2
	.byte	$92
	.byte	$93
	.byte	$9b
	.byte	$b2
	.byte	$b3
	.byte	$a2
	.byte	$a3
	.byte	$b2
	.byte	$b3
	.byte	$9a
	.byte	$94
	.byte	$95
	.byte	$94
	.byte	$95
	.byte	$94
	.byte	$95
	.byte	$94
	.byte	$95
	.byte	$9b
	.byte	$b2
	.byte	$b3
	.byte	$a2
	.byte	$a3
	.byte	$b2
	.byte	$b3
	.byte	$a2
	.byte	$a3
	.byte	$b2
	.byte	$b3
	.byte	$a2
	.byte	$a3
	.byte	$b2
	.byte	$82
	.byte	$83
	.byte	$8b
	.byte	$a3
	.byte	$b2
	.byte	$b3
	.byte	$a2
	.byte	$a3
	.byte	$b2
	.byte	$b3
	.byte	$aa
	.byte	$ab
	.byte	$aa
	.byte	$ab
	.byte	$aa
	.byte	$ab
	.byte	$aa
	.byte	$ab
	.byte	$a2
	.byte	$a3
	.byte	$b2
	.byte	$b3
	.byte	$a2
	.byte	$a3
	.byte	$b2
	.byte	$b3
	.byte	$a2
	.byte	$a3
	.byte	$b2
	.byte	$b3
	.byte	$a2
	.byte	$a3
	.byte	$92
	.byte	$93
	.byte	$9b
	.byte	$b3
	.byte	$a2
	.byte	$a3
	.byte	$b2
	.byte	$b3
	.byte	$a2
	.byte	$a3
	.byte	$b2
	.byte	$b3
	.byte	$a2
	.byte	$a3
	.byte	$b2
	.byte	$b3
	.byte	$a2
	.byte	$a3
	.byte	$b2
	.byte	$b3
	.byte	$a2
	.byte	$a3
	.byte	$b2
	.byte	$b3
	.byte	$a2
	.byte	$a3
	.byte	$b2
	.byte	$b3
	.byte	$a2
	.byte	$a3
	.byte	$b2
	.byte	$b3
	.byte	$82
	.byte	$83
	.byte	$8b
	.byte	$a2
	.byte	$a3
	.byte	$b2
	.byte	$b3
	.byte	$a2
	.byte	$a3
	.byte	$b2
	.byte	$b3
	.byte	$a2
	.byte	$a3
	.byte	$b2
	.byte	$b3
	.byte	$a2
	.byte	$a3
	.byte	$b2
	.byte	$b3
	.byte	$a2
	.byte	$a3
	.byte	$b2
	.byte	$b3
	.byte	$a2
	.byte	$a3
	.byte	$b2
	.byte	$b3
	.byte	$a2
	.byte	$a3
	.byte	$b2
	.byte	$b3
	.byte	$a2
	.byte	$92
	.byte	$93
	.byte	$9b
	.byte	$b2
	.byte	$b3
	.byte	$a2
	.byte	$a3
	.byte	$b2
	.byte	$b3
	.byte	$a2
	.byte	$a3
	.byte	$b2
	.byte	$b3
	.byte	$a2
	.byte	$a3
	.byte	$b2
	.byte	$b3
	.byte	$a2
	.byte	$a3
	.byte	$b2
	.byte	$b3
	.byte	$a2
	.byte	$a3
	.byte	$b2
	.byte	$b3
	.byte	$a2
	.byte	$a3
	.byte	$b2
	.byte	$b3
	.byte	$a2
	.byte	$a3
	.byte	$b2
	.byte	$a2
	.byte	$a3
	.byte	$a0
	.byte	$a1
	.byte	$a0
	.byte	$a1
	.byte	$a0
	.byte	$a1
	.byte	$a0
	.byte	$a1
	.byte	$a0
	.byte	$a1
	.byte	$a0
	.byte	$a1
	.byte	$a0
	.byte	$a1
	.byte	$a0
	.byte	$a1
	.byte	$a0
	.byte	$a1
	.byte	$a0
	.byte	$a1
	.byte	$a0
	.byte	$a1
	.byte	$a0
	.byte	$a1
	.byte	$a0
	.byte	$a1
	.byte	$a0
	.byte	$a1
	.byte	$a0
	.byte	$a1
	.byte	$b2
	.byte	$b3
	.byte	$b0
	.byte	$b1
	.byte	$b0
	.byte	$b1
	.byte	$b0
	.byte	$b1
	.byte	$b0
	.byte	$b1
	.byte	$b0
	.byte	$b1
	.byte	$b0
	.byte	$b1
	.byte	$b0
	.byte	$b1
	.byte	$b0
	.byte	$b1
	.byte	$b0
	.byte	$b1
	.byte	$b0
	.byte	$b1
	.byte	$b0
	.byte	$b1
	.byte	$b0
	.byte	$b1
	.byte	$b0
	.byte	$b1
	.byte	$b0
	.byte	$b1
	.byte	$b0
	.byte	$b1
	.byte	$80
	.byte	$a0
	.byte	$a0
	.byte	$a0
	.byte	$a0
	.byte	$a0
	.byte	$a0
	.byte	$a0
	.byte	$88
	.byte	$aa
	.byte	$aa
	.byte	$aa
	.byte	$aa
	.byte	$aa
	.byte	$aa
	.byte	$aa
	.byte	$08
	.byte	$0a
	.byte	$8a
	.byte	$aa
	.byte	$aa
	.byte	$aa
	.byte	$aa
	.byte	$aa
	.byte	$88
	.byte	$aa
	.byte	$0a
	.byte	$0a
	.byte	$aa
	.byte	$aa
	.byte	$aa
	.byte	$aa
	.byte	$88
	.byte	$aa
	.byte	$aa
	.byte	$aa
	.byte	$aa
	.byte	$0a
	.byte	$0a
	.byte	$aa
	.byte	$88
	.byte	$aa
	.byte	$2a
	.byte	$0a
	.byte	$8a
	.byte	$aa
	.byte	$aa
	.byte	$aa
	.byte	$88
	.byte	$aa
	.byte	$aa
	.byte	$aa
	.byte	$aa
	.byte	$aa
	.byte	$aa
	.byte	$aa
	.byte	$00
	.byte	$00
	.byte	$00
	.byte	$00
	.byte	$00
	.byte	$00
	.byte	$00
	.byte	$00
_Level1B:
	.byte	$a6
	.byte	$a7
	.byte	$a6
	.byte	$a7
	.byte	$a6
	.byte	$a7
	.byte	$a6
	.byte	$a7
	.byte	$a6
	.byte	$a7
	.byte	$a6
	.byte	$a7
	.byte	$a6
	.byte	$a7
	.byte	$a6
	.byte	$a7
	.byte	$a6
	.byte	$a7
	.byte	$a6
	.byte	$a7
	.byte	$a6
	.byte	$a7
	.byte	$a6
	.byte	$a7
	.byte	$a6
	.byte	$a7
	.byte	$a6
	.byte	$a7
	.byte	$a6
	.byte	$a7
	.byte	$a2
	.byte	$a3
	.byte	$91
	.byte	$91
	.byte	$91
	.byte	$91
	.byte	$91
	.byte	$91
	.byte	$91
	.byte	$91
	.byte	$91
	.byte	$91
	.byte	$91
	.byte	$91
	.byte	$91
	.byte	$91
	.byte	$91
	.byte	$91
	.byte	$91
	.byte	$91
	.byte	$91
	.byte	$91
	.byte	$91
	.byte	$91
	.byte	$91
	.byte	$91
	.byte	$91
	.byte	$91
	.byte	$91
	.byte	$91
	.byte	$91
	.byte	$91
	.byte	$b2
	.byte	$b3
	.byte	$a3
	.byte	$b2
	.byte	$b3
	.byte	$a2
	.byte	$a3
	.byte	$b2
	.byte	$b3
	.byte	$a2
	.byte	$a3
	.byte	$b2
	.byte	$b3
	.byte	$a2
	.byte	$a3
	.byte	$b2
	.byte	$b3
	.byte	$a2
	.byte	$a3
	.byte	$b2
	.byte	$b3
	.byte	$a2
	.byte	$a3
	.byte	$b2
	.byte	$b3
	.byte	$a2
	.byte	$a3
	.byte	$b2
	.byte	$b3
	.byte	$a2
	.byte	$a3
	.byte	$8a
	.byte	$83
	.byte	$82
	.byte	$b3
	.byte	$a2
	.byte	$a3
	.byte	$b2
	.byte	$b3
	.byte	$a2
	.byte	$a3
	.byte	$b2
	.byte	$b3
	.byte	$a2
	.byte	$a3
	.byte	$b2
	.byte	$b3
	.byte	$a2
	.byte	$a3
	.byte	$b2
	.byte	$b3
	.byte	$a2
	.byte	$a3
	.byte	$b2
	.byte	$b3
	.byte	$a2
	.byte	$a3
	.byte	$b2
	.byte	$b3
	.byte	$a2
	.byte	$a3
	.byte	$b2
	.byte	$b3
	.byte	$9a
	.byte	$93
	.byte	$92
	.byte	$b2
	.byte	$b3
	.byte	$a2
	.byte	$a3
	.byte	$b2
	.byte	$b3
	.byte	$a2
	.byte	$a3
	.byte	$b2
	.byte	$b3
	.byte	$a2
	.byte	$a3
	.byte	$b2
	.byte	$b3
	.byte	$a2
	.byte	$a3
	.byte	$b2
	.byte	$b3
	.byte	$a2
	.byte	$a3
	.byte	$b2
	.byte	$b3
	.byte	$a2
	.byte	$a3
	.byte	$b2
	.byte	$b3
	.byte	$a2
	.byte	$a3
	.byte	$b2
	.byte	$8a
	.byte	$83
	.byte	$82
	.byte	$a2
	.byte	$a3
	.byte	$b2
	.byte	$b3
	.byte	$a2
	.byte	$a3
	.byte	$b2
	.byte	$b3
	.byte	$a2
	.byte	$a3
	.byte	$b2
	.byte	$b3
	.byte	$a2
	.byte	$a3
	.byte	$b2
	.byte	$b3
	.byte	$a2
	.byte	$a3
	.byte	$b2
	.byte	$b3
	.byte	$a2
	.byte	$a3
	.byte	$b2
	.byte	$b3
	.byte	$a2
	.byte	$a3
	.byte	$b2
	.byte	$b3
	.byte	$a2
	.byte	$9a
	.byte	$93
	.byte	$92
	.byte	$a3
	.byte	$b2
	.byte	$b3
	.byte	$a2
	.byte	$a3
	.byte	$b2
	.byte	$b3
	.byte	$a2
	.byte	$a3
	.byte	$b2
	.byte	$b3
	.byte	$a2
	.byte	$a3
	.byte	$b2
	.byte	$b3
	.byte	$a2
	.byte	$a3
	.byte	$b2
	.byte	$b3
	.byte	$a2
	.byte	$a3
	.byte	$b2
	.byte	$04
	.byte	$05
	.byte	$b3
	.byte	$b2
	.byte	$b3
	.byte	$a2
	.byte	$a3
	.byte	$8a
	.byte	$83
	.byte	$82
	.byte	$b3
	.byte	$a2
	.byte	$a3
	.byte	$b2
	.byte	$b3
	.byte	$a2
	.byte	$a3
	.byte	$b2
	.byte	$b3
	.byte	$a2
	.byte	$a3
	.byte	$b2
	.byte	$b3
	.byte	$a2
	.byte	$a3
	.byte	$b2
	.byte	$b3
	.byte	$a2
	.byte	$a3
	.byte	$b2
	.byte	$b3
	.byte	$a2
	.byte	$14
	.byte	$15
	.byte	$a3
	.byte	$a2
	.byte	$a3
	.byte	$b2
	.byte	$b3
	.byte	$9a
	.byte	$93
	.byte	$92
	.byte	$b2
	.byte	$b3
	.byte	$a2
	.byte	$a3
	.byte	$b2
	.byte	$b3
	.byte	$a2
	.byte	$a3
	.byte	$b2
	.byte	$b3
	.byte	$a2
	.byte	$a3
	.byte	$b2
	.byte	$b3
	.byte	$a2
	.byte	$a3
	.byte	$b2
	.byte	$b3
	.byte	$a2
	.byte	$a3
	.byte	$84
	.byte	$85
	.byte	$84
	.byte	$85
	.byte	$84
	.byte	$85
	.byte	$a2
	.byte	$a3
	.byte	$b2
	.byte	$8a
	.byte	$83
	.byte	$82
	.byte	$a2
	.byte	$a3
	.byte	$b2
	.byte	$b3
	.byte	$a2
	.byte	$a3
	.byte	$b2
	.byte	$b3
	.byte	$a2
	.byte	$a3
	.byte	$b2
	.byte	$b3
	.byte	$a2
	.byte	$a3
	.byte	$b2
	.byte	$b3
	.byte	$a2
	.byte	$a3
	.byte	$b2
	.byte	$b3
	.byte	$94
	.byte	$95
	.byte	$94
	.byte	$95
	.byte	$94
	.byte	$95
	.byte	$b2
	.byte	$b3
	.byte	$a2
	.byte	$9a
	.byte	$93
	.byte	$92
	.byte	$a3
	.byte	$b2
	.byte	$b3
	.byte	$a2
	.byte	$a3
	.byte	$b2
	.byte	$b3
	.byte	$a2
	.byte	$a3
	.byte	$b2
	.byte	$b3
	.byte	$a2
	.byte	$a3
	.byte	$b2
	.byte	$b3
	.byte	$a2
	.byte	$a3
	.byte	$b2
	.byte	$b3
	.byte	$a2
	.byte	$aa
	.byte	$ab
	.byte	$aa
	.byte	$ab
	.byte	$aa
	.byte	$ab
	.byte	$b3
	.byte	$a2
	.byte	$a3
	.byte	$8a
	.byte	$83
	.byte	$82
	.byte	$b3
	.byte	$a2
	.byte	$a3
	.byte	$b2
	.byte	$b3
	.byte	$a2
	.byte	$a3
	.byte	$b2
	.byte	$b3
	.byte	$a2
	.byte	$a3
	.byte	$b2
	.byte	$b3
	.byte	$a2
	.byte	$a3
	.byte	$b2
	.byte	$b3
	.byte	$a2
	.byte	$a3
	.byte	$b2
	.byte	$b3
	.byte	$a2
	.byte	$a3
	.byte	$b2
	.byte	$b3
	.byte	$a2
	.byte	$a3
	.byte	$b2
	.byte	$b3
	.byte	$9a
	.byte	$93
	.byte	$92
	.byte	$b2
	.byte	$b3
	.byte	$a2
	.byte	$a3
	.byte	$b2
	.byte	$b3
	.byte	$a2
	.byte	$a3
	.byte	$b2
	.byte	$b3
	.byte	$84
	.byte	$85
	.byte	$84
	.byte	$85
	.byte	$84
	.byte	$85
	.byte	$b2
	.byte	$b3
	.byte	$a2
	.byte	$a3
	.byte	$b2
	.byte	$b3
	.byte	$a2
	.byte	$a3
	.byte	$b2
	.byte	$b3
	.byte	$a2
	.byte	$a3
	.byte	$b2
	.byte	$8a
	.byte	$83
	.byte	$82
	.byte	$a2
	.byte	$a3
	.byte	$b2
	.byte	$b3
	.byte	$a2
	.byte	$a3
	.byte	$b2
	.byte	$b3
	.byte	$a2
	.byte	$a3
	.byte	$94
	.byte	$95
	.byte	$94
	.byte	$95
	.byte	$94
	.byte	$95
	.byte	$a2
	.byte	$a3
	.byte	$b2
	.byte	$b3
	.byte	$a2
	.byte	$a3
	.byte	$b2
	.byte	$b3
	.byte	$a2
	.byte	$a3
	.byte	$b2
	.byte	$b3
	.byte	$a2
	.byte	$9a
	.byte	$93
	.byte	$92
	.byte	$a3
	.byte	$b2
	.byte	$b3
	.byte	$a2
	.byte	$a3
	.byte	$b2
	.byte	$b3
	.byte	$a2
	.byte	$a3
	.byte	$b2
	.byte	$aa
	.byte	$ab
	.byte	$aa
	.byte	$ab
	.byte	$aa
	.byte	$ab
	.byte	$a3
	.byte	$b2
	.byte	$b3
	.byte	$a2
	.byte	$a3
	.byte	$b2
	.byte	$b3
	.byte	$a2
	.byte	$a3
	.byte	$b2
	.byte	$b3
	.byte	$a2
	.byte	$a3
	.byte	$8a
	.byte	$83
	.byte	$82
	.byte	$b3
	.byte	$a2
	.byte	$d8
	.byte	$d9
	.byte	$b3
	.byte	$a2
	.byte	$a3
	.byte	$b2
	.byte	$b3
	.byte	$a2
	.byte	$a3
	.byte	$b2
	.byte	$b3
	.byte	$a2
	.byte	$a3
	.byte	$b2
	.byte	$b3
	.byte	$a2
	.byte	$a3
	.byte	$b2
	.byte	$b3
	.byte	$a2
	.byte	$a3
	.byte	$b2
	.byte	$b3
	.byte	$a2
	.byte	$a3
	.byte	$b2
	.byte	$b3
	.byte	$9a
	.byte	$93
	.byte	$92
	.byte	$84
	.byte	$85
	.byte	$84
	.byte	$85
	.byte	$84
	.byte	$85
	.byte	$a2
	.byte	$a3
	.byte	$b2
	.byte	$b3
	.byte	$a2
	.byte	$a3
	.byte	$b2
	.byte	$b3
	.byte	$a2
	.byte	$a3
	.byte	$b2
	.byte	$b3
	.byte	$a2
	.byte	$a3
	.byte	$b2
	.byte	$b3
	.byte	$a2
	.byte	$a3
	.byte	$b2
	.byte	$b3
	.byte	$a2
	.byte	$a3
	.byte	$b2
	.byte	$8a
	.byte	$83
	.byte	$82
	.byte	$94
	.byte	$95
	.byte	$94
	.byte	$95
	.byte	$94
	.byte	$95
	.byte	$b2
	.byte	$b3
	.byte	$a2
	.byte	$a3
	.byte	$b2
	.byte	$b3
	.byte	$a2
	.byte	$a3
	.byte	$b2
	.byte	$b3
	.byte	$a2
	.byte	$a3
	.byte	$b2
	.byte	$b3
	.byte	$a2
	.byte	$a3
	.byte	$b2
	.byte	$b3
	.byte	$a2
	.byte	$a3
	.byte	$b2
	.byte	$b3
	.byte	$a2
	.byte	$9a
	.byte	$93
	.byte	$92
	.byte	$aa
	.byte	$ab
	.byte	$aa
	.byte	$ab
	.byte	$aa
	.byte	$ab
	.byte	$b3
	.byte	$a2
	.byte	$a3
	.byte	$b2
	.byte	$b3
	.byte	$a2
	.byte	$a3
	.byte	$b2
	.byte	$84
	.byte	$85
	.byte	$84
	.byte	$85
	.byte	$84
	.byte	$85
	.byte	$b3
	.byte	$b2
	.byte	$b3
	.byte	$a2
	.byte	$a3
	.byte	$b2
	.byte	$b3
	.byte	$a2
	.byte	$a3
	.byte	$8a
	.byte	$83
	.byte	$82
	.byte	$b3
	.byte	$a2
	.byte	$a3
	.byte	$b2
	.byte	$b3
	.byte	$a2
	.byte	$a3
	.byte	$b2
	.byte	$b3
	.byte	$a2
	.byte	$a3
	.byte	$b2
	.byte	$b3
	.byte	$a2
	.byte	$94
	.byte	$95
	.byte	$94
	.byte	$95
	.byte	$94
	.byte	$95
	.byte	$a3
	.byte	$a2
	.byte	$a3
	.byte	$b2
	.byte	$b3
	.byte	$a2
	.byte	$a3
	.byte	$b2
	.byte	$b3
	.byte	$9a
	.byte	$93
	.byte	$92
	.byte	$b2
	.byte	$b3
	.byte	$a2
	.byte	$a3
	.byte	$b2
	.byte	$b3
	.byte	$a2
	.byte	$a3
	.byte	$b2
	.byte	$b3
	.byte	$a2
	.byte	$a3
	.byte	$b2
	.byte	$b3
	.byte	$aa
	.byte	$ab
	.byte	$aa
	.byte	$ab
	.byte	$aa
	.byte	$ab
	.byte	$b2
	.byte	$b3
	.byte	$a2
	.byte	$a3
	.byte	$b2
	.byte	$b3
	.byte	$a2
	.byte	$a3
	.byte	$b2
	.byte	$8a
	.byte	$83
	.byte	$82
	.byte	$a2
	.byte	$a3
	.byte	$b2
	.byte	$b3
	.byte	$a2
	.byte	$a3
	.byte	$b2
	.byte	$b3
	.byte	$a2
	.byte	$a3
	.byte	$b2
	.byte	$b3
	.byte	$a2
	.byte	$a3
	.byte	$b2
	.byte	$b3
	.byte	$a2
	.byte	$a3
	.byte	$b2
	.byte	$b3
	.byte	$a2
	.byte	$a3
	.byte	$b2
	.byte	$b3
	.byte	$a2
	.byte	$a3
	.byte	$b2
	.byte	$b3
	.byte	$a2
	.byte	$9a
	.byte	$93
	.byte	$92
	.byte	$a3
	.byte	$b2
	.byte	$b3
	.byte	$a2
	.byte	$a3
	.byte	$b2
	.byte	$b3
	.byte	$a2
	.byte	$a3
	.byte	$b2
	.byte	$b3
	.byte	$a2
	.byte	$a3
	.byte	$b2
	.byte	$b3
	.byte	$a2
	.byte	$a3
	.byte	$b2
	.byte	$b3
	.byte	$a2
	.byte	$a3
	.byte	$b2
	.byte	$b3
	.byte	$a2
	.byte	$84
	.byte	$85
	.byte	$84
	.byte	$85
	.byte	$84
	.byte	$85
	.byte	$83
	.byte	$82
	.byte	$b3
	.byte	$a2
	.byte	$a3
	.byte	$b2
	.byte	$b3
	.byte	$a2
	.byte	$a3
	.byte	$b2
	.byte	$b3
	.byte	$a2
	.byte	$a3
	.byte	$b2
	.byte	$b3
	.byte	$a2
	.byte	$a3
	.byte	$b2
	.byte	$b3
	.byte	$a2
	.byte	$a3
	.byte	$b2
	.byte	$b3
	.byte	$a2
	.byte	$a3
	.byte	$b2
	.byte	$94
	.byte	$95
	.byte	$94
	.byte	$95
	.byte	$94
	.byte	$95
	.byte	$93
	.byte	$92
	.byte	$b2
	.byte	$b3
	.byte	$a2
	.byte	$a3
	.byte	$b2
	.byte	$b3
	.byte	$a2
	.byte	$a3
	.byte	$b2
	.byte	$b3
	.byte	$a2
	.byte	$a3
	.byte	$b2
	.byte	$b3
	.byte	$a2
	.byte	$a3
	.byte	$b2
	.byte	$b3
	.byte	$a2
	.byte	$a3
	.byte	$b2
	.byte	$b3
	.byte	$a2
	.byte	$a3
	.byte	$b2
	.byte	$b3
	.byte	$a2
	.byte	$a3
	.byte	$b2
	.byte	$8a
	.byte	$83
	.byte	$82
	.byte	$a2
	.byte	$a3
	.byte	$b2
	.byte	$b3
	.byte	$a2
	.byte	$a3
	.byte	$b2
	.byte	$b3
	.byte	$a2
	.byte	$a3
	.byte	$b2
	.byte	$b3
	.byte	$a2
	.byte	$a3
	.byte	$b2
	.byte	$b3
	.byte	$a2
	.byte	$a3
	.byte	$b2
	.byte	$b3
	.byte	$a2
	.byte	$a3
	.byte	$b2
	.byte	$b3
	.byte	$a2
	.byte	$a3
	.byte	$b2
	.byte	$b3
	.byte	$a2
	.byte	$9a
	.byte	$93
	.byte	$92
	.byte	$a3
	.byte	$b2
	.byte	$b3
	.byte	$a2
	.byte	$a3
	.byte	$b2
	.byte	$b3
	.byte	$a2
	.byte	$a3
	.byte	$b2
	.byte	$b3
	.byte	$a2
	.byte	$a3
	.byte	$b2
	.byte	$b3
	.byte	$a2
	.byte	$a3
	.byte	$b2
	.byte	$b3
	.byte	$a2
	.byte	$a3
	.byte	$b2
	.byte	$b3
	.byte	$a2
	.byte	$a3
	.byte	$b2
	.byte	$b3
	.byte	$a2
	.byte	$a3
	.byte	$8a
	.byte	$83
	.byte	$82
	.byte	$b3
	.byte	$a2
	.byte	$a3
	.byte	$b2
	.byte	$b3
	.byte	$a2
	.byte	$a3
	.byte	$b2
	.byte	$b3
	.byte	$a2
	.byte	$a3
	.byte	$b2
	.byte	$b3
	.byte	$a2
	.byte	$a3
	.byte	$b2
	.byte	$b3
	.byte	$a2
	.byte	$a3
	.byte	$b2
	.byte	$b3
	.byte	$a2
	.byte	$a3
	.byte	$b2
	.byte	$b3
	.byte	$a2
	.byte	$a3
	.byte	$b2
	.byte	$b3
	.byte	$9a
	.byte	$93
	.byte	$92
	.byte	$a0
	.byte	$a1
	.byte	$a0
	.byte	$a1
	.byte	$a0
	.byte	$a1
	.byte	$a0
	.byte	$a1
	.byte	$a0
	.byte	$a1
	.byte	$a0
	.byte	$a1
	.byte	$a0
	.byte	$a1
	.byte	$a0
	.byte	$a1
	.byte	$a0
	.byte	$a1
	.byte	$a0
	.byte	$a1
	.byte	$a0
	.byte	$a1
	.byte	$a0
	.byte	$a1
	.byte	$a0
	.byte	$a1
	.byte	$a0
	.byte	$a1
	.byte	$a0
	.byte	$a1
	.byte	$a2
	.byte	$a3
	.byte	$b0
	.byte	$b1
	.byte	$b0
	.byte	$b1
	.byte	$b0
	.byte	$b1
	.byte	$b0
	.byte	$b1
	.byte	$b0
	.byte	$b1
	.byte	$b0
	.byte	$b1
	.byte	$b0
	.byte	$b1
	.byte	$b0
	.byte	$b1
	.byte	$b0
	.byte	$b1
	.byte	$b0
	.byte	$b1
	.byte	$b0
	.byte	$b1
	.byte	$b0
	.byte	$b1
	.byte	$b0
	.byte	$b1
	.byte	$b0
	.byte	$b1
	.byte	$b0
	.byte	$b1
	.byte	$b2
	.byte	$b3
	.byte	$a0
	.byte	$a0
	.byte	$a0
	.byte	$a0
	.byte	$a0
	.byte	$a0
	.byte	$a0
	.byte	$20
	.byte	$aa
	.byte	$aa
	.byte	$aa
	.byte	$aa
	.byte	$aa
	.byte	$2a
	.byte	$aa
	.byte	$22
	.byte	$aa
	.byte	$aa
	.byte	$aa
	.byte	$aa
	.byte	$aa
	.byte	$a0
	.byte	$a8
	.byte	$22
	.byte	$aa
	.byte	$aa
	.byte	$a2
	.byte	$a0
	.byte	$aa
	.byte	$aa
	.byte	$aa
	.byte	$22
	.byte	$a0
	.byte	$a8
	.byte	$aa
	.byte	$2a
	.byte	$0a
	.byte	$aa
	.byte	$aa
	.byte	$22
	.byte	$aa
	.byte	$aa
	.byte	$aa
	.byte	$aa
	.byte	$aa
	.byte	$aa
	.byte	$0a
	.byte	$02
	.byte	$aa
	.byte	$aa
	.byte	$aa
	.byte	$aa
	.byte	$aa
	.byte	$aa
	.byte	$aa
	.byte	$22
	.byte	$00
	.byte	$00
	.byte	$00
	.byte	$00
	.byte	$00
	.byte	$00
	.byte	$00
	.byte	$00
_Level2A:
	.byte	$b0
	.byte	$b1
	.byte	$b0
	.byte	$b1
	.byte	$b0
	.byte	$b1
	.byte	$b0
	.byte	$b1
	.byte	$b0
	.byte	$b1
	.byte	$b0
	.byte	$b1
	.byte	$b0
	.byte	$b1
	.byte	$b0
	.byte	$b1
	.byte	$b0
	.byte	$b1
	.byte	$b0
	.byte	$b1
	.byte	$b0
	.byte	$b1
	.byte	$b0
	.byte	$b1
	.byte	$b0
	.byte	$b1
	.byte	$b0
	.byte	$b1
	.byte	$b0
	.byte	$b1
	.byte	$b0
	.byte	$b1
	.byte	$b6
	.byte	$b7
	.byte	$b6
	.byte	$b7
	.byte	$b6
	.byte	$b7
	.byte	$b6
	.byte	$b7
	.byte	$b6
	.byte	$b7
	.byte	$b6
	.byte	$b7
	.byte	$b6
	.byte	$b7
	.byte	$b6
	.byte	$b7
	.byte	$b6
	.byte	$b7
	.byte	$b6
	.byte	$b7
	.byte	$b6
	.byte	$b7
	.byte	$b6
	.byte	$b7
	.byte	$b6
	.byte	$b7
	.byte	$b6
	.byte	$b7
	.byte	$b6
	.byte	$b7
	.byte	$b6
	.byte	$b7
	.byte	$a8
	.byte	$a9
	.byte	$df
	.byte	$ce
	.byte	$cf
	.byte	$de
	.byte	$df
	.byte	$ae
	.byte	$af
	.byte	$de
	.byte	$df
	.byte	$ae
	.byte	$af
	.byte	$de
	.byte	$df
	.byte	$ae
	.byte	$af
	.byte	$de
	.byte	$df
	.byte	$ae
	.byte	$af
	.byte	$de
	.byte	$df
	.byte	$ae
	.byte	$af
	.byte	$de
	.byte	$df
	.byte	$ae
	.byte	$af
	.byte	$de
	.byte	$df
	.byte	$ae
	.byte	$b8
	.byte	$b9
	.byte	$af
	.byte	$de
	.byte	$df
	.byte	$ae
	.byte	$af
	.byte	$be
	.byte	$bf
	.byte	$ae
	.byte	$af
	.byte	$be
	.byte	$bf
	.byte	$ae
	.byte	$af
	.byte	$be
	.byte	$bf
	.byte	$ae
	.byte	$af
	.byte	$be
	.byte	$bf
	.byte	$ae
	.byte	$af
	.byte	$be
	.byte	$bf
	.byte	$ae
	.byte	$af
	.byte	$be
	.byte	$bf
	.byte	$ae
	.byte	$af
	.byte	$be
	.byte	$a8
	.byte	$a9
	.byte	$ae
	.byte	$af
	.byte	$be
	.byte	$bf
	.byte	$ce
	.byte	$cf
	.byte	$be
	.byte	$bf
	.byte	$ce
	.byte	$cf
	.byte	$be
	.byte	$bf
	.byte	$ce
	.byte	$cf
	.byte	$be
	.byte	$bf
	.byte	$ce
	.byte	$cf
	.byte	$be
	.byte	$bf
	.byte	$ce
	.byte	$cf
	.byte	$be
	.byte	$bf
	.byte	$ce
	.byte	$cf
	.byte	$be
	.byte	$bf
	.byte	$ce
	.byte	$cf
	.byte	$b8
	.byte	$b9
	.byte	$be
	.byte	$bf
	.byte	$ce
	.byte	$cf
	.byte	$de
	.byte	$df
	.byte	$ce
	.byte	$cf
	.byte	$de
	.byte	$df
	.byte	$ce
	.byte	$cf
	.byte	$de
	.byte	$df
	.byte	$ce
	.byte	$cf
	.byte	$de
	.byte	$df
	.byte	$ce
	.byte	$cf
	.byte	$de
	.byte	$df
	.byte	$ce
	.byte	$cf
	.byte	$de
	.byte	$df
	.byte	$ce
	.byte	$cf
	.byte	$de
	.byte	$df
	.byte	$a8
	.byte	$a9
	.byte	$df
	.byte	$ce
	.byte	$cf
	.byte	$de
	.byte	$df
	.byte	$ae
	.byte	$af
	.byte	$de
	.byte	$df
	.byte	$ae
	.byte	$af
	.byte	$de
	.byte	$df
	.byte	$ae
	.byte	$af
	.byte	$de
	.byte	$df
	.byte	$ae
	.byte	$af
	.byte	$de
	.byte	$df
	.byte	$ae
	.byte	$af
	.byte	$de
	.byte	$df
	.byte	$ae
	.byte	$af
	.byte	$de
	.byte	$df
	.byte	$ae
	.byte	$b8
	.byte	$b9
	.byte	$af
	.byte	$de
	.byte	$df
	.byte	$ae
	.byte	$af
	.byte	$be
	.byte	$bf
	.byte	$ae
	.byte	$af
	.byte	$be
	.byte	$bf
	.byte	$ae
	.byte	$af
	.byte	$be
	.byte	$bf
	.byte	$ae
	.byte	$af
	.byte	$be
	.byte	$bf
	.byte	$ae
	.byte	$af
	.byte	$be
	.byte	$bf
	.byte	$ae
	.byte	$af
	.byte	$be
	.byte	$bf
	.byte	$ae
	.byte	$af
	.byte	$be
	.byte	$a8
	.byte	$a9
	.byte	$ae
	.byte	$af
	.byte	$be
	.byte	$bf
	.byte	$ce
	.byte	$cf
	.byte	$be
	.byte	$bf
	.byte	$ce
	.byte	$cf
	.byte	$be
	.byte	$bf
	.byte	$ce
	.byte	$cf
	.byte	$be
	.byte	$bf
	.byte	$ce
	.byte	$cf
	.byte	$be
	.byte	$bf
	.byte	$ce
	.byte	$cf
	.byte	$be
	.byte	$bf
	.byte	$ce
	.byte	$cf
	.byte	$be
	.byte	$bf
	.byte	$ce
	.byte	$cf
	.byte	$b8
	.byte	$b9
	.byte	$be
	.byte	$bf
	.byte	$ce
	.byte	$cf
	.byte	$de
	.byte	$df
	.byte	$ce
	.byte	$cf
	.byte	$de
	.byte	$df
	.byte	$ce
	.byte	$cf
	.byte	$de
	.byte	$df
	.byte	$ce
	.byte	$cf
	.byte	$de
	.byte	$df
	.byte	$ce
	.byte	$cf
	.byte	$de
	.byte	$df
	.byte	$ce
	.byte	$cf
	.byte	$de
	.byte	$df
	.byte	$ce
	.byte	$cf
	.byte	$de
	.byte	$df
	.byte	$a8
	.byte	$a9
	.byte	$df
	.byte	$ce
	.byte	$cf
	.byte	$de
	.byte	$df
	.byte	$ae
	.byte	$af
	.byte	$de
	.byte	$df
	.byte	$ae
	.byte	$af
	.byte	$de
	.byte	$df
	.byte	$ae
	.byte	$af
	.byte	$de
	.byte	$df
	.byte	$ae
	.byte	$af
	.byte	$de
	.byte	$df
	.byte	$ae
	.byte	$af
	.byte	$de
	.byte	$df
	.byte	$ae
	.byte	$af
	.byte	$de
	.byte	$df
	.byte	$ae
	.byte	$b8
	.byte	$b9
	.byte	$af
	.byte	$de
	.byte	$df
	.byte	$ae
	.byte	$af
	.byte	$be
	.byte	$bf
	.byte	$ae
	.byte	$af
	.byte	$be
	.byte	$bf
	.byte	$ae
	.byte	$af
	.byte	$be
	.byte	$bf
	.byte	$ae
	.byte	$af
	.byte	$be
	.byte	$bf
	.byte	$ae
	.byte	$af
	.byte	$be
	.byte	$bf
	.byte	$ae
	.byte	$af
	.byte	$be
	.byte	$bf
	.byte	$ae
	.byte	$af
	.byte	$be
	.byte	$a8
	.byte	$a9
	.byte	$ae
	.byte	$af
	.byte	$be
	.byte	$bf
	.byte	$ce
	.byte	$cf
	.byte	$be
	.byte	$bf
	.byte	$ce
	.byte	$cf
	.byte	$be
	.byte	$bf
	.byte	$ce
	.byte	$cf
	.byte	$be
	.byte	$bf
	.byte	$ce
	.byte	$cf
	.byte	$be
	.byte	$bf
	.byte	$ce
	.byte	$cf
	.byte	$be
	.byte	$bf
	.byte	$ce
	.byte	$cf
	.byte	$be
	.byte	$bf
	.byte	$ce
	.byte	$cf
	.byte	$b8
	.byte	$b9
	.byte	$be
	.byte	$bf
	.byte	$ae
	.byte	$af
	.byte	$de
	.byte	$df
	.byte	$ce
	.byte	$cf
	.byte	$de
	.byte	$df
	.byte	$ce
	.byte	$cf
	.byte	$de
	.byte	$df
	.byte	$ce
	.byte	$cf
	.byte	$de
	.byte	$df
	.byte	$ce
	.byte	$cf
	.byte	$de
	.byte	$df
	.byte	$ce
	.byte	$cf
	.byte	$de
	.byte	$df
	.byte	$ce
	.byte	$cf
	.byte	$de
	.byte	$df
	.byte	$a8
	.byte	$a9
	.byte	$ce
	.byte	$cf
	.byte	$84
	.byte	$85
	.byte	$84
	.byte	$85
	.byte	$84
	.byte	$85
	.byte	$84
	.byte	$85
	.byte	$de
	.byte	$df
	.byte	$ae
	.byte	$af
	.byte	$de
	.byte	$df
	.byte	$ae
	.byte	$af
	.byte	$de
	.byte	$df
	.byte	$ae
	.byte	$af
	.byte	$de
	.byte	$df
	.byte	$ae
	.byte	$af
	.byte	$de
	.byte	$df
	.byte	$84
	.byte	$85
	.byte	$b8
	.byte	$b9
	.byte	$de
	.byte	$df
	.byte	$94
	.byte	$95
	.byte	$94
	.byte	$95
	.byte	$94
	.byte	$95
	.byte	$94
	.byte	$95
	.byte	$ae
	.byte	$af
	.byte	$be
	.byte	$bf
	.byte	$ae
	.byte	$af
	.byte	$be
	.byte	$bf
	.byte	$ae
	.byte	$af
	.byte	$be
	.byte	$bf
	.byte	$ae
	.byte	$af
	.byte	$be
	.byte	$bf
	.byte	$ae
	.byte	$af
	.byte	$94
	.byte	$95
	.byte	$a8
	.byte	$a9
	.byte	$ae
	.byte	$af
	.byte	$de
	.byte	$df
	.byte	$ae
	.byte	$af
	.byte	$de
	.byte	$df
	.byte	$ae
	.byte	$af
	.byte	$be
	.byte	$bf
	.byte	$ce
	.byte	$cf
	.byte	$be
	.byte	$bf
	.byte	$ce
	.byte	$cf
	.byte	$be
	.byte	$bf
	.byte	$ce
	.byte	$cf
	.byte	$be
	.byte	$bf
	.byte	$ce
	.byte	$cf
	.byte	$be
	.byte	$bf
	.byte	$ae
	.byte	$af
	.byte	$b8
	.byte	$b9
	.byte	$be
	.byte	$bf
	.byte	$ae
	.byte	$af
	.byte	$be
	.byte	$bf
	.byte	$ae
	.byte	$af
	.byte	$be
	.byte	$bf
	.byte	$ce
	.byte	$cf
	.byte	$de
	.byte	$df
	.byte	$ce
	.byte	$cf
	.byte	$de
	.byte	$df
	.byte	$ce
	.byte	$cf
	.byte	$de
	.byte	$df
	.byte	$ce
	.byte	$cf
	.byte	$de
	.byte	$df
	.byte	$ce
	.byte	$cf
	.byte	$be
	.byte	$bf
	.byte	$a8
	.byte	$a9
	.byte	$ce
	.byte	$cf
	.byte	$be
	.byte	$bf
	.byte	$ce
	.byte	$cf
	.byte	$be
	.byte	$bf
	.byte	$ce
	.byte	$cf
	.byte	$de
	.byte	$df
	.byte	$ae
	.byte	$af
	.byte	$de
	.byte	$df
	.byte	$ae
	.byte	$af
	.byte	$84
	.byte	$85
	.byte	$84
	.byte	$85
	.byte	$84
	.byte	$85
	.byte	$84
	.byte	$85
	.byte	$de
	.byte	$df
	.byte	$ce
	.byte	$cf
	.byte	$b8
	.byte	$b9
	.byte	$de
	.byte	$df
	.byte	$ce
	.byte	$cf
	.byte	$de
	.byte	$df
	.byte	$ce
	.byte	$cf
	.byte	$de
	.byte	$df
	.byte	$ae
	.byte	$af
	.byte	$be
	.byte	$ae
	.byte	$ae
	.byte	$af
	.byte	$be
	.byte	$bf
	.byte	$94
	.byte	$95
	.byte	$94
	.byte	$95
	.byte	$94
	.byte	$95
	.byte	$94
	.byte	$95
	.byte	$ae
	.byte	$af
	.byte	$de
	.byte	$df
	.byte	$a8
	.byte	$a9
	.byte	$af
	.byte	$de
	.byte	$df
	.byte	$ae
	.byte	$af
	.byte	$de
	.byte	$df
	.byte	$ae
	.byte	$af
	.byte	$be
	.byte	$bf
	.byte	$ce
	.byte	$be
	.byte	$be
	.byte	$bf
	.byte	$ce
	.byte	$cf
	.byte	$de
	.byte	$df
	.byte	$ae
	.byte	$af
	.byte	$de
	.byte	$df
	.byte	$ae
	.byte	$af
	.byte	$be
	.byte	$bf
	.byte	$ae
	.byte	$af
	.byte	$de
	.byte	$b8
	.byte	$b9
	.byte	$bf
	.byte	$ae
	.byte	$af
	.byte	$be
	.byte	$bf
	.byte	$ae
	.byte	$af
	.byte	$be
	.byte	$bf
	.byte	$ce
	.byte	$cf
	.byte	$de
	.byte	$ce
	.byte	$ce
	.byte	$cf
	.byte	$de
	.byte	$df
	.byte	$ae
	.byte	$af
	.byte	$be
	.byte	$bf
	.byte	$ae
	.byte	$af
	.byte	$be
	.byte	$bf
	.byte	$ce
	.byte	$cf
	.byte	$be
	.byte	$bf
	.byte	$ae
	.byte	$a8
	.byte	$a9
	.byte	$ce
	.byte	$cf
	.byte	$be
	.byte	$bf
	.byte	$ce
	.byte	$cf
	.byte	$be
	.byte	$bf
	.byte	$84
	.byte	$85
	.byte	$84
	.byte	$85
	.byte	$84
	.byte	$85
	.byte	$84
	.byte	$85
	.byte	$ae
	.byte	$af
	.byte	$be
	.byte	$bf
	.byte	$ce
	.byte	$cf
	.byte	$be
	.byte	$bf
	.byte	$ce
	.byte	$cf
	.byte	$de
	.byte	$df
	.byte	$ce
	.byte	$cf
	.byte	$b8
	.byte	$b9
	.byte	$de
	.byte	$df
	.byte	$ce
	.byte	$cf
	.byte	$de
	.byte	$df
	.byte	$ce
	.byte	$cf
	.byte	$94
	.byte	$95
	.byte	$94
	.byte	$95
	.byte	$94
	.byte	$95
	.byte	$94
	.byte	$95
	.byte	$be
	.byte	$bf
	.byte	$ce
	.byte	$cf
	.byte	$de
	.byte	$df
	.byte	$ce
	.byte	$cf
	.byte	$de
	.byte	$df
	.byte	$ae
	.byte	$af
	.byte	$de
	.byte	$df
	.byte	$a8
	.byte	$a9
	.byte	$ae
	.byte	$af
	.byte	$de
	.byte	$df
	.byte	$ae
	.byte	$af
	.byte	$de
	.byte	$df
	.byte	$ae
	.byte	$af
	.byte	$be
	.byte	$bf
	.byte	$ae
	.byte	$af
	.byte	$be
	.byte	$bf
	.byte	$ce
	.byte	$cf
	.byte	$de
	.byte	$df
	.byte	$ae
	.byte	$af
	.byte	$de
	.byte	$df
	.byte	$ae
	.byte	$af
	.byte	$be
	.byte	$bf
	.byte	$ae
	.byte	$af
	.byte	$b8
	.byte	$b9
	.byte	$be
	.byte	$bf
	.byte	$ae
	.byte	$af
	.byte	$be
	.byte	$bf
	.byte	$ae
	.byte	$af
	.byte	$be
	.byte	$bf
	.byte	$ce
	.byte	$cf
	.byte	$be
	.byte	$bf
	.byte	$ce
	.byte	$cf
	.byte	$de
	.byte	$df
	.byte	$ae
	.byte	$af
	.byte	$be
	.byte	$bf
	.byte	$ae
	.byte	$af
	.byte	$be
	.byte	$bf
	.byte	$ce
	.byte	$cf
	.byte	$be
	.byte	$bf
	.byte	$a8
	.byte	$a9
	.byte	$cf
	.byte	$be
	.byte	$bf
	.byte	$ce
	.byte	$cf
	.byte	$be
	.byte	$bf
	.byte	$ce
	.byte	$cf
	.byte	$de
	.byte	$df
	.byte	$ce
	.byte	$cf
	.byte	$de
	.byte	$df
	.byte	$ae
	.byte	$af
	.byte	$be
	.byte	$bf
	.byte	$ce
	.byte	$cf
	.byte	$be
	.byte	$bf
	.byte	$ce
	.byte	$cf
	.byte	$de
	.byte	$df
	.byte	$ce
	.byte	$cf
	.byte	$be
	.byte	$b8
	.byte	$b9
	.byte	$df
	.byte	$ce
	.byte	$cf
	.byte	$de
	.byte	$df
	.byte	$ce
	.byte	$cf
	.byte	$de
	.byte	$df
	.byte	$ae
	.byte	$af
	.byte	$de
	.byte	$df
	.byte	$ae
	.byte	$af
	.byte	$be
	.byte	$bf
	.byte	$ce
	.byte	$cf
	.byte	$de
	.byte	$df
	.byte	$ce
	.byte	$cf
	.byte	$de
	.byte	$df
	.byte	$ae
	.byte	$af
	.byte	$de
	.byte	$df
	.byte	$ce
	.byte	$10
	.byte	$11
	.byte	$10
	.byte	$11
	.byte	$10
	.byte	$11
	.byte	$10
	.byte	$11
	.byte	$10
	.byte	$11
	.byte	$10
	.byte	$11
	.byte	$10
	.byte	$11
	.byte	$10
	.byte	$11
	.byte	$10
	.byte	$11
	.byte	$10
	.byte	$11
	.byte	$10
	.byte	$11
	.byte	$10
	.byte	$11
	.byte	$10
	.byte	$11
	.byte	$10
	.byte	$11
	.byte	$10
	.byte	$11
	.byte	$10
	.byte	$11
	.byte	$b0
	.byte	$b1
	.byte	$b0
	.byte	$b1
	.byte	$b0
	.byte	$b1
	.byte	$b0
	.byte	$b1
	.byte	$b0
	.byte	$b1
	.byte	$b0
	.byte	$b1
	.byte	$b0
	.byte	$b1
	.byte	$b0
	.byte	$b1
	.byte	$b0
	.byte	$b1
	.byte	$b0
	.byte	$b1
	.byte	$b0
	.byte	$b1
	.byte	$b0
	.byte	$b1
	.byte	$b0
	.byte	$b1
	.byte	$b0
	.byte	$b1
	.byte	$b0
	.byte	$b1
	.byte	$b0
	.byte	$b1
	.byte	$15
	.byte	$05
	.byte	$05
	.byte	$05
	.byte	$05
	.byte	$05
	.byte	$05
	.byte	$05
	.byte	$11
	.byte	$00
	.byte	$00
	.byte	$00
	.byte	$00
	.byte	$00
	.byte	$00
	.byte	$00
	.byte	$11
	.byte	$00
	.byte	$00
	.byte	$00
	.byte	$00
	.byte	$00
	.byte	$00
	.byte	$00
	.byte	$11
	.byte	$50
	.byte	$50
	.byte	$00
	.byte	$00
	.byte	$00
	.byte	$00
	.byte	$40
	.byte	$11
	.byte	$00
	.byte	$00
	.byte	$00
	.byte	$00
	.byte	$50
	.byte	$50
	.byte	$00
	.byte	$11
	.byte	$00
	.byte	$40
	.byte	$50
	.byte	$10
	.byte	$00
	.byte	$00
	.byte	$00
	.byte	$11
	.byte	$00
	.byte	$00
	.byte	$00
	.byte	$00
	.byte	$00
	.byte	$00
	.byte	$00
	.byte	$05
	.byte	$05
	.byte	$05
	.byte	$05
	.byte	$05
	.byte	$05
	.byte	$05
	.byte	$05
_Level2B:
	.byte	$b0
	.byte	$b1
	.byte	$b0
	.byte	$b1
	.byte	$b0
	.byte	$b1
	.byte	$b0
	.byte	$b1
	.byte	$b0
	.byte	$b1
	.byte	$b0
	.byte	$b1
	.byte	$b0
	.byte	$b1
	.byte	$b0
	.byte	$b1
	.byte	$b0
	.byte	$b1
	.byte	$b0
	.byte	$b1
	.byte	$b0
	.byte	$b1
	.byte	$b0
	.byte	$b1
	.byte	$b0
	.byte	$b1
	.byte	$b0
	.byte	$b1
	.byte	$b0
	.byte	$b1
	.byte	$b0
	.byte	$b1
	.byte	$b6
	.byte	$b7
	.byte	$b6
	.byte	$b7
	.byte	$b6
	.byte	$b7
	.byte	$b6
	.byte	$b7
	.byte	$b6
	.byte	$b7
	.byte	$b6
	.byte	$b7
	.byte	$b6
	.byte	$b7
	.byte	$b6
	.byte	$b7
	.byte	$b6
	.byte	$b7
	.byte	$b6
	.byte	$b7
	.byte	$b6
	.byte	$b7
	.byte	$b6
	.byte	$b7
	.byte	$b6
	.byte	$b7
	.byte	$b6
	.byte	$b7
	.byte	$b6
	.byte	$b7
	.byte	$b6
	.byte	$b7
	.byte	$af
	.byte	$de
	.byte	$df
	.byte	$ae
	.byte	$af
	.byte	$de
	.byte	$df
	.byte	$ae
	.byte	$af
	.byte	$de
	.byte	$df
	.byte	$ae
	.byte	$af
	.byte	$de
	.byte	$df
	.byte	$ae
	.byte	$af
	.byte	$de
	.byte	$df
	.byte	$ae
	.byte	$af
	.byte	$de
	.byte	$df
	.byte	$ae
	.byte	$af
	.byte	$de
	.byte	$df
	.byte	$ae
	.byte	$af
	.byte	$de
	.byte	$a4
	.byte	$a5
	.byte	$bf
	.byte	$ae
	.byte	$af
	.byte	$be
	.byte	$bf
	.byte	$ae
	.byte	$af
	.byte	$be
	.byte	$bf
	.byte	$ae
	.byte	$af
	.byte	$be
	.byte	$bf
	.byte	$ae
	.byte	$af
	.byte	$be
	.byte	$bf
	.byte	$ae
	.byte	$af
	.byte	$be
	.byte	$bf
	.byte	$ae
	.byte	$af
	.byte	$be
	.byte	$bf
	.byte	$ae
	.byte	$af
	.byte	$be
	.byte	$bf
	.byte	$ae
	.byte	$b4
	.byte	$b5
	.byte	$be
	.byte	$bf
	.byte	$ce
	.byte	$cf
	.byte	$be
	.byte	$bf
	.byte	$ce
	.byte	$cf
	.byte	$be
	.byte	$bf
	.byte	$ce
	.byte	$cf
	.byte	$be
	.byte	$bf
	.byte	$ce
	.byte	$cf
	.byte	$be
	.byte	$bf
	.byte	$ce
	.byte	$cf
	.byte	$be
	.byte	$bf
	.byte	$ce
	.byte	$cf
	.byte	$be
	.byte	$bf
	.byte	$ce
	.byte	$cf
	.byte	$be
	.byte	$bf
	.byte	$a4
	.byte	$a5
	.byte	$ce
	.byte	$cf
	.byte	$de
	.byte	$df
	.byte	$ce
	.byte	$cf
	.byte	$de
	.byte	$df
	.byte	$ce
	.byte	$cf
	.byte	$de
	.byte	$df
	.byte	$ce
	.byte	$cf
	.byte	$de
	.byte	$df
	.byte	$ce
	.byte	$cf
	.byte	$de
	.byte	$df
	.byte	$ce
	.byte	$cf
	.byte	$de
	.byte	$df
	.byte	$ce
	.byte	$cf
	.byte	$de
	.byte	$df
	.byte	$ce
	.byte	$cf
	.byte	$b4
	.byte	$b5
	.byte	$af
	.byte	$de
	.byte	$df
	.byte	$ae
	.byte	$af
	.byte	$de
	.byte	$df
	.byte	$ae
	.byte	$af
	.byte	$de
	.byte	$df
	.byte	$ae
	.byte	$af
	.byte	$de
	.byte	$df
	.byte	$ae
	.byte	$af
	.byte	$de
	.byte	$df
	.byte	$ae
	.byte	$af
	.byte	$de
	.byte	$df
	.byte	$ae
	.byte	$af
	.byte	$de
	.byte	$df
	.byte	$ae
	.byte	$af
	.byte	$de
	.byte	$a4
	.byte	$a5
	.byte	$bf
	.byte	$ae
	.byte	$af
	.byte	$be
	.byte	$bf
	.byte	$ae
	.byte	$af
	.byte	$be
	.byte	$bf
	.byte	$ae
	.byte	$af
	.byte	$be
	.byte	$bf
	.byte	$ae
	.byte	$af
	.byte	$be
	.byte	$bf
	.byte	$ae
	.byte	$af
	.byte	$be
	.byte	$bf
	.byte	$ae
	.byte	$af
	.byte	$be
	.byte	$bf
	.byte	$ae
	.byte	$af
	.byte	$be
	.byte	$bf
	.byte	$ae
	.byte	$b4
	.byte	$b5
	.byte	$be
	.byte	$bf
	.byte	$ce
	.byte	$cf
	.byte	$be
	.byte	$bf
	.byte	$ce
	.byte	$cf
	.byte	$be
	.byte	$bf
	.byte	$ce
	.byte	$cf
	.byte	$be
	.byte	$bf
	.byte	$ce
	.byte	$cf
	.byte	$be
	.byte	$bf
	.byte	$ce
	.byte	$cf
	.byte	$be
	.byte	$bf
	.byte	$ce
	.byte	$cf
	.byte	$be
	.byte	$bf
	.byte	$ce
	.byte	$cf
	.byte	$be
	.byte	$bf
	.byte	$a4
	.byte	$a5
	.byte	$ce
	.byte	$cf
	.byte	$de
	.byte	$df
	.byte	$ce
	.byte	$cf
	.byte	$de
	.byte	$df
	.byte	$ce
	.byte	$cf
	.byte	$de
	.byte	$df
	.byte	$ce
	.byte	$cf
	.byte	$de
	.byte	$df
	.byte	$ce
	.byte	$cf
	.byte	$de
	.byte	$df
	.byte	$ce
	.byte	$cf
	.byte	$de
	.byte	$df
	.byte	$ce
	.byte	$cf
	.byte	$de
	.byte	$df
	.byte	$ce
	.byte	$cf
	.byte	$b4
	.byte	$b5
	.byte	$af
	.byte	$de
	.byte	$df
	.byte	$ae
	.byte	$af
	.byte	$de
	.byte	$df
	.byte	$ae
	.byte	$af
	.byte	$de
	.byte	$84
	.byte	$85
	.byte	$84
	.byte	$85
	.byte	$84
	.byte	$85
	.byte	$84
	.byte	$85
	.byte	$ae
	.byte	$af
	.byte	$de
	.byte	$df
	.byte	$ae
	.byte	$af
	.byte	$de
	.byte	$df
	.byte	$ae
	.byte	$af
	.byte	$de
	.byte	$df
	.byte	$a4
	.byte	$a5
	.byte	$bf
	.byte	$ae
	.byte	$af
	.byte	$be
	.byte	$bf
	.byte	$ae
	.byte	$af
	.byte	$be
	.byte	$bf
	.byte	$ae
	.byte	$94
	.byte	$95
	.byte	$94
	.byte	$95
	.byte	$94
	.byte	$95
	.byte	$94
	.byte	$95
	.byte	$be
	.byte	$bf
	.byte	$ae
	.byte	$af
	.byte	$be
	.byte	$bf
	.byte	$ae
	.byte	$af
	.byte	$be
	.byte	$bf
	.byte	$ae
	.byte	$af
	.byte	$b4
	.byte	$b5
	.byte	$be
	.byte	$bf
	.byte	$ce
	.byte	$cf
	.byte	$be
	.byte	$bf
	.byte	$ce
	.byte	$cf
	.byte	$be
	.byte	$bf
	.byte	$ae
	.byte	$af
	.byte	$de
	.byte	$df
	.byte	$ae
	.byte	$af
	.byte	$de
	.byte	$df
	.byte	$ce
	.byte	$cf
	.byte	$be
	.byte	$bf
	.byte	$ce
	.byte	$cf
	.byte	$be
	.byte	$bf
	.byte	$ce
	.byte	$cf
	.byte	$be
	.byte	$bf
	.byte	$a4
	.byte	$a5
	.byte	$ce
	.byte	$cf
	.byte	$de
	.byte	$df
	.byte	$ce
	.byte	$cf
	.byte	$de
	.byte	$df
	.byte	$ce
	.byte	$cf
	.byte	$be
	.byte	$bf
	.byte	$ae
	.byte	$af
	.byte	$be
	.byte	$bf
	.byte	$ae
	.byte	$af
	.byte	$de
	.byte	$df
	.byte	$ce
	.byte	$cf
	.byte	$de
	.byte	$df
	.byte	$ce
	.byte	$cf
	.byte	$de
	.byte	$df
	.byte	$ce
	.byte	$cf
	.byte	$b4
	.byte	$b5
	.byte	$84
	.byte	$85
	.byte	$84
	.byte	$85
	.byte	$84
	.byte	$85
	.byte	$ae
	.byte	$af
	.byte	$de
	.byte	$df
	.byte	$ce
	.byte	$cf
	.byte	$be
	.byte	$bf
	.byte	$ce
	.byte	$cf
	.byte	$be
	.byte	$bf
	.byte	$ae
	.byte	$af
	.byte	$de
	.byte	$df
	.byte	$ae
	.byte	$af
	.byte	$de
	.byte	$df
	.byte	$ae
	.byte	$af
	.byte	$de
	.byte	$df
	.byte	$a4
	.byte	$a5
	.byte	$94
	.byte	$95
	.byte	$94
	.byte	$95
	.byte	$94
	.byte	$95
	.byte	$be
	.byte	$bf
	.byte	$ae
	.byte	$af
	.byte	$de
	.byte	$df
	.byte	$ce
	.byte	$cf
	.byte	$de
	.byte	$df
	.byte	$ce
	.byte	$cf
	.byte	$be
	.byte	$bf
	.byte	$ae
	.byte	$af
	.byte	$be
	.byte	$bf
	.byte	$ae
	.byte	$af
	.byte	$be
	.byte	$bf
	.byte	$ae
	.byte	$af
	.byte	$b4
	.byte	$b5
	.byte	$de
	.byte	$df
	.byte	$ae
	.byte	$af
	.byte	$de
	.byte	$df
	.byte	$ce
	.byte	$cf
	.byte	$be
	.byte	$bf
	.byte	$ae
	.byte	$af
	.byte	$de
	.byte	$df
	.byte	$ae
	.byte	$af
	.byte	$de
	.byte	$df
	.byte	$ce
	.byte	$cf
	.byte	$be
	.byte	$bf
	.byte	$ce
	.byte	$cf
	.byte	$04
	.byte	$05
	.byte	$ce
	.byte	$cf
	.byte	$be
	.byte	$bf
	.byte	$a4
	.byte	$a5
	.byte	$ae
	.byte	$af
	.byte	$be
	.byte	$bf
	.byte	$ae
	.byte	$af
	.byte	$de
	.byte	$df
	.byte	$ce
	.byte	$cf
	.byte	$be
	.byte	$bf
	.byte	$ae
	.byte	$af
	.byte	$be
	.byte	$bf
	.byte	$ae
	.byte	$af
	.byte	$de
	.byte	$df
	.byte	$ce
	.byte	$cf
	.byte	$de
	.byte	$df
	.byte	$14
	.byte	$15
	.byte	$de
	.byte	$df
	.byte	$ce
	.byte	$cf
	.byte	$b4
	.byte	$b5
	.byte	$be
	.byte	$bf
	.byte	$ce
	.byte	$cf
	.byte	$be
	.byte	$bf
	.byte	$ae
	.byte	$af
	.byte	$de
	.byte	$df
	.byte	$ce
	.byte	$cf
	.byte	$be
	.byte	$bf
	.byte	$ce
	.byte	$cf
	.byte	$be
	.byte	$bf
	.byte	$ae
	.byte	$af
	.byte	$84
	.byte	$85
	.byte	$84
	.byte	$85
	.byte	$84
	.byte	$85
	.byte	$84
	.byte	$85
	.byte	$de
	.byte	$df
	.byte	$a4
	.byte	$a5
	.byte	$ce
	.byte	$cf
	.byte	$de
	.byte	$df
	.byte	$ce
	.byte	$cf
	.byte	$be
	.byte	$bf
	.byte	$ae
	.byte	$af
	.byte	$de
	.byte	$df
	.byte	$ce
	.byte	$cf
	.byte	$de
	.byte	$df
	.byte	$ce
	.byte	$cf
	.byte	$be
	.byte	$bf
	.byte	$94
	.byte	$95
	.byte	$94
	.byte	$95
	.byte	$94
	.byte	$95
	.byte	$94
	.byte	$95
	.byte	$ae
	.byte	$af
	.byte	$b4
	.byte	$b5
	.byte	$df
	.byte	$ae
	.byte	$af
	.byte	$de
	.byte	$df
	.byte	$ce
	.byte	$cf
	.byte	$be
	.byte	$bf
	.byte	$ae
	.byte	$af
	.byte	$de
	.byte	$df
	.byte	$ae
	.byte	$af
	.byte	$de
	.byte	$df
	.byte	$ce
	.byte	$cf
	.byte	$de
	.byte	$df
	.byte	$ae
	.byte	$af
	.byte	$de
	.byte	$df
	.byte	$ae
	.byte	$af
	.byte	$be
	.byte	$bf
	.byte	$ae
	.byte	$a4
	.byte	$a5
	.byte	$af
	.byte	$be
	.byte	$bf
	.byte	$ae
	.byte	$af
	.byte	$de
	.byte	$df
	.byte	$ce
	.byte	$cf
	.byte	$be
	.byte	$bf
	.byte	$ae
	.byte	$af
	.byte	$be
	.byte	$bf
	.byte	$ae
	.byte	$af
	.byte	$de
	.byte	$df
	.byte	$ae
	.byte	$af
	.byte	$be
	.byte	$bf
	.byte	$ae
	.byte	$af
	.byte	$be
	.byte	$bf
	.byte	$ce
	.byte	$cf
	.byte	$be
	.byte	$b4
	.byte	$b5
	.byte	$be
	.byte	$bf
	.byte	$ce
	.byte	$cf
	.byte	$be
	.byte	$bf
	.byte	$ae
	.byte	$af
	.byte	$de
	.byte	$df
	.byte	$84
	.byte	$85
	.byte	$84
	.byte	$85
	.byte	$84
	.byte	$85
	.byte	$84
	.byte	$85
	.byte	$ae
	.byte	$af
	.byte	$be
	.byte	$bf
	.byte	$ce
	.byte	$cf
	.byte	$be
	.byte	$bf
	.byte	$ce
	.byte	$cf
	.byte	$de
	.byte	$df
	.byte	$a4
	.byte	$a5
	.byte	$ce
	.byte	$cf
	.byte	$de
	.byte	$df
	.byte	$ce
	.byte	$cf
	.byte	$be
	.byte	$bf
	.byte	$ae
	.byte	$af
	.byte	$94
	.byte	$95
	.byte	$94
	.byte	$95
	.byte	$94
	.byte	$95
	.byte	$94
	.byte	$95
	.byte	$be
	.byte	$bf
	.byte	$ce
	.byte	$cf
	.byte	$de
	.byte	$df
	.byte	$ce
	.byte	$cf
	.byte	$de
	.byte	$df
	.byte	$ae
	.byte	$af
	.byte	$b4
	.byte	$b5
	.byte	$de
	.byte	$df
	.byte	$ae
	.byte	$af
	.byte	$de
	.byte	$df
	.byte	$ce
	.byte	$cf
	.byte	$be
	.byte	$bf
	.byte	$ae
	.byte	$af
	.byte	$be
	.byte	$bf
	.byte	$ae
	.byte	$af
	.byte	$be
	.byte	$bf
	.byte	$ce
	.byte	$cf
	.byte	$de
	.byte	$df
	.byte	$ae
	.byte	$af
	.byte	$de
	.byte	$df
	.byte	$ae
	.byte	$af
	.byte	$be
	.byte	$bf
	.byte	$a4
	.byte	$a5
	.byte	$ae
	.byte	$af
	.byte	$be
	.byte	$bf
	.byte	$ae
	.byte	$af
	.byte	$de
	.byte	$df
	.byte	$ce
	.byte	$cf
	.byte	$be
	.byte	$bf
	.byte	$ce
	.byte	$cf
	.byte	$be
	.byte	$bf
	.byte	$ce
	.byte	$cf
	.byte	$de
	.byte	$df
	.byte	$ae
	.byte	$af
	.byte	$be
	.byte	$bf
	.byte	$ae
	.byte	$af
	.byte	$be
	.byte	$bf
	.byte	$ce
	.byte	$cf
	.byte	$b4
	.byte	$b5
	.byte	$bf
	.byte	$ce
	.byte	$cf
	.byte	$be
	.byte	$bf
	.byte	$ae
	.byte	$af
	.byte	$de
	.byte	$df
	.byte	$ce
	.byte	$cf
	.byte	$de
	.byte	$df
	.byte	$ce
	.byte	$cf
	.byte	$de
	.byte	$df
	.byte	$ae
	.byte	$af
	.byte	$be
	.byte	$bf
	.byte	$ce
	.byte	$cf
	.byte	$be
	.byte	$bf
	.byte	$ce
	.byte	$cf
	.byte	$de
	.byte	$df
	.byte	$ce
	.byte	$a4
	.byte	$a5
	.byte	$cf
	.byte	$de
	.byte	$df
	.byte	$ce
	.byte	$cf
	.byte	$be
	.byte	$bf
	.byte	$ae
	.byte	$af
	.byte	$de
	.byte	$df
	.byte	$ae
	.byte	$af
	.byte	$de
	.byte	$df
	.byte	$ae
	.byte	$af
	.byte	$be
	.byte	$bf
	.byte	$ce
	.byte	$cf
	.byte	$de
	.byte	$df
	.byte	$ce
	.byte	$cf
	.byte	$de
	.byte	$df
	.byte	$ae
	.byte	$af
	.byte	$de
	.byte	$b4
	.byte	$b5
	.byte	$10
	.byte	$11
	.byte	$10
	.byte	$11
	.byte	$10
	.byte	$11
	.byte	$10
	.byte	$11
	.byte	$10
	.byte	$11
	.byte	$10
	.byte	$11
	.byte	$10
	.byte	$11
	.byte	$10
	.byte	$11
	.byte	$10
	.byte	$11
	.byte	$10
	.byte	$11
	.byte	$10
	.byte	$11
	.byte	$10
	.byte	$11
	.byte	$10
	.byte	$11
	.byte	$10
	.byte	$11
	.byte	$10
	.byte	$11
	.byte	$10
	.byte	$11
	.byte	$b0
	.byte	$b1
	.byte	$b0
	.byte	$b1
	.byte	$b0
	.byte	$b1
	.byte	$b0
	.byte	$b1
	.byte	$b0
	.byte	$b1
	.byte	$b0
	.byte	$b1
	.byte	$b0
	.byte	$b1
	.byte	$b0
	.byte	$b1
	.byte	$b0
	.byte	$b1
	.byte	$b0
	.byte	$b1
	.byte	$b0
	.byte	$b1
	.byte	$b0
	.byte	$b1
	.byte	$b0
	.byte	$b1
	.byte	$b0
	.byte	$b1
	.byte	$b0
	.byte	$b1
	.byte	$b0
	.byte	$b1
	.byte	$05
	.byte	$05
	.byte	$05
	.byte	$05
	.byte	$05
	.byte	$05
	.byte	$05
	.byte	$45
	.byte	$00
	.byte	$00
	.byte	$00
	.byte	$00
	.byte	$00
	.byte	$00
	.byte	$00
	.byte	$44
	.byte	$00
	.byte	$00
	.byte	$40
	.byte	$50
	.byte	$10
	.byte	$00
	.byte	$00
	.byte	$44
	.byte	$50
	.byte	$10
	.byte	$00
	.byte	$00
	.byte	$00
	.byte	$00
	.byte	$00
	.byte	$44
	.byte	$00
	.byte	$00
	.byte	$00
	.byte	$00
	.byte	$00
	.byte	$50
	.byte	$52
	.byte	$44
	.byte	$00
	.byte	$00
	.byte	$40
	.byte	$50
	.byte	$10
	.byte	$00
	.byte	$00
	.byte	$44
	.byte	$00
	.byte	$00
	.byte	$00
	.byte	$00
	.byte	$00
	.byte	$00
	.byte	$00
	.byte	$44
	.byte	$05
	.byte	$05
	.byte	$05
	.byte	$05
	.byte	$05
	.byte	$05
	.byte	$05
	.byte	$05
_Level3A:
	.byte	$a6
	.byte	$a7
	.byte	$a6
	.byte	$a7
	.byte	$a6
	.byte	$a7
	.byte	$a6
	.byte	$a7
	.byte	$a6
	.byte	$a7
	.byte	$a6
	.byte	$a7
	.byte	$a6
	.byte	$a7
	.byte	$a6
	.byte	$a7
	.byte	$a6
	.byte	$a7
	.byte	$a6
	.byte	$a7
	.byte	$a6
	.byte	$a7
	.byte	$a6
	.byte	$a7
	.byte	$a6
	.byte	$a7
	.byte	$a6
	.byte	$a7
	.byte	$a6
	.byte	$a7
	.byte	$a6
	.byte	$a7
	.byte	$b4
	.byte	$b5
	.byte	$b4
	.byte	$b4
	.byte	$b4
	.byte	$b5
	.byte	$b4
	.byte	$b9
	.byte	$b4
	.byte	$b5
	.byte	$b4
	.byte	$b5
	.byte	$b4
	.byte	$b5
	.byte	$b4
	.byte	$b9
	.byte	$b4
	.byte	$b8
	.byte	$b9
	.byte	$b5
	.byte	$b4
	.byte	$b5
	.byte	$b8
	.byte	$b9
	.byte	$b4
	.byte	$b5
	.byte	$b4
	.byte	$b5
	.byte	$b4
	.byte	$b9
	.byte	$b4
	.byte	$b5
	.byte	$10
	.byte	$11
	.byte	$a3
	.byte	$a2
	.byte	$a3
	.byte	$a2
	.byte	$a3
	.byte	$a2
	.byte	$a3
	.byte	$a2
	.byte	$a3
	.byte	$a2
	.byte	$a3
	.byte	$a2
	.byte	$a3
	.byte	$a2
	.byte	$a3
	.byte	$a2
	.byte	$a3
	.byte	$a2
	.byte	$a3
	.byte	$a2
	.byte	$a3
	.byte	$a2
	.byte	$a3
	.byte	$a2
	.byte	$a3
	.byte	$a2
	.byte	$a3
	.byte	$a2
	.byte	$a3
	.byte	$a2
	.byte	$b6
	.byte	$b7
	.byte	$b2
	.byte	$b3
	.byte	$b2
	.byte	$b3
	.byte	$b2
	.byte	$b3
	.byte	$b2
	.byte	$b3
	.byte	$b2
	.byte	$b3
	.byte	$b2
	.byte	$b3
	.byte	$b2
	.byte	$b3
	.byte	$b2
	.byte	$b3
	.byte	$b2
	.byte	$b3
	.byte	$b2
	.byte	$b3
	.byte	$b2
	.byte	$b3
	.byte	$b2
	.byte	$b3
	.byte	$b2
	.byte	$b3
	.byte	$b2
	.byte	$b3
	.byte	$b2
	.byte	$b3
	.byte	$10
	.byte	$11
	.byte	$a3
	.byte	$a2
	.byte	$a3
	.byte	$a2
	.byte	$a3
	.byte	$a2
	.byte	$a3
	.byte	$a2
	.byte	$a3
	.byte	$a2
	.byte	$a3
	.byte	$a2
	.byte	$a3
	.byte	$a2
	.byte	$a3
	.byte	$a2
	.byte	$a3
	.byte	$a2
	.byte	$a3
	.byte	$a2
	.byte	$a3
	.byte	$a2
	.byte	$a3
	.byte	$a2
	.byte	$a3
	.byte	$a2
	.byte	$a3
	.byte	$a2
	.byte	$a3
	.byte	$a2
	.byte	$b6
	.byte	$b7
	.byte	$b2
	.byte	$b3
	.byte	$b2
	.byte	$b3
	.byte	$b2
	.byte	$b3
	.byte	$b2
	.byte	$b3
	.byte	$b2
	.byte	$b3
	.byte	$b2
	.byte	$b3
	.byte	$b2
	.byte	$b3
	.byte	$b2
	.byte	$b3
	.byte	$b2
	.byte	$b3
	.byte	$b2
	.byte	$b3
	.byte	$b2
	.byte	$b3
	.byte	$b2
	.byte	$b3
	.byte	$b2
	.byte	$b3
	.byte	$b2
	.byte	$b3
	.byte	$b2
	.byte	$b3
	.byte	$10
	.byte	$11
	.byte	$a3
	.byte	$a2
	.byte	$a3
	.byte	$a2
	.byte	$a3
	.byte	$a2
	.byte	$a3
	.byte	$a2
	.byte	$a3
	.byte	$a2
	.byte	$a3
	.byte	$a2
	.byte	$a3
	.byte	$a2
	.byte	$a3
	.byte	$a2
	.byte	$a3
	.byte	$a2
	.byte	$a3
	.byte	$a2
	.byte	$a3
	.byte	$a2
	.byte	$a3
	.byte	$a2
	.byte	$a3
	.byte	$a2
	.byte	$84
	.byte	$85
	.byte	$84
	.byte	$85
	.byte	$b6
	.byte	$b7
	.byte	$b2
	.byte	$b3
	.byte	$b2
	.byte	$b3
	.byte	$b2
	.byte	$b3
	.byte	$b2
	.byte	$b3
	.byte	$b2
	.byte	$b3
	.byte	$b2
	.byte	$b3
	.byte	$b2
	.byte	$b3
	.byte	$b2
	.byte	$b3
	.byte	$b2
	.byte	$b3
	.byte	$b2
	.byte	$b3
	.byte	$b2
	.byte	$b3
	.byte	$b2
	.byte	$b3
	.byte	$b2
	.byte	$b3
	.byte	$94
	.byte	$95
	.byte	$94
	.byte	$95
	.byte	$10
	.byte	$11
	.byte	$a3
	.byte	$a2
	.byte	$a3
	.byte	$a2
	.byte	$a3
	.byte	$a2
	.byte	$a3
	.byte	$a2
	.byte	$a3
	.byte	$a2
	.byte	$a3
	.byte	$a2
	.byte	$a3
	.byte	$a2
	.byte	$a3
	.byte	$a2
	.byte	$a3
	.byte	$a2
	.byte	$a3
	.byte	$a2
	.byte	$a3
	.byte	$a2
	.byte	$a3
	.byte	$a2
	.byte	$a3
	.byte	$a2
	.byte	$a3
	.byte	$a2
	.byte	$a3
	.byte	$a2
	.byte	$b6
	.byte	$b7
	.byte	$b2
	.byte	$b3
	.byte	$b2
	.byte	$b3
	.byte	$b2
	.byte	$b3
	.byte	$b2
	.byte	$b3
	.byte	$b2
	.byte	$b3
	.byte	$b2
	.byte	$b3
	.byte	$b2
	.byte	$b3
	.byte	$b2
	.byte	$b3
	.byte	$b2
	.byte	$b3
	.byte	$b2
	.byte	$b3
	.byte	$b2
	.byte	$b3
	.byte	$b2
	.byte	$b3
	.byte	$b2
	.byte	$b3
	.byte	$b2
	.byte	$b3
	.byte	$b2
	.byte	$b3
	.byte	$10
	.byte	$11
	.byte	$a3
	.byte	$a2
	.byte	$a3
	.byte	$a2
	.byte	$a3
	.byte	$a2
	.byte	$a3
	.byte	$a2
	.byte	$a3
	.byte	$a2
	.byte	$a3
	.byte	$a2
	.byte	$a3
	.byte	$a2
	.byte	$84
	.byte	$85
	.byte	$84
	.byte	$85
	.byte	$84
	.byte	$85
	.byte	$84
	.byte	$85
	.byte	$a3
	.byte	$a2
	.byte	$a3
	.byte	$a2
	.byte	$a3
	.byte	$a2
	.byte	$a3
	.byte	$a2
	.byte	$b6
	.byte	$b7
	.byte	$b2
	.byte	$b3
	.byte	$b2
	.byte	$b3
	.byte	$b2
	.byte	$b3
	.byte	$b2
	.byte	$b3
	.byte	$b2
	.byte	$b3
	.byte	$b2
	.byte	$b3
	.byte	$b2
	.byte	$b3
	.byte	$94
	.byte	$95
	.byte	$94
	.byte	$95
	.byte	$94
	.byte	$95
	.byte	$94
	.byte	$95
	.byte	$b2
	.byte	$b3
	.byte	$b2
	.byte	$b3
	.byte	$b2
	.byte	$b3
	.byte	$b2
	.byte	$b3
	.byte	$10
	.byte	$11
	.byte	$a3
	.byte	$a2
	.byte	$a3
	.byte	$a2
	.byte	$a3
	.byte	$a2
	.byte	$a3
	.byte	$a2
	.byte	$a3
	.byte	$a2
	.byte	$a3
	.byte	$a2
	.byte	$a3
	.byte	$a2
	.byte	$a3
	.byte	$a2
	.byte	$a3
	.byte	$a2
	.byte	$a3
	.byte	$a2
	.byte	$a3
	.byte	$a2
	.byte	$a3
	.byte	$a2
	.byte	$a3
	.byte	$a2
	.byte	$a3
	.byte	$a2
	.byte	$a3
	.byte	$a2
	.byte	$b6
	.byte	$b7
	.byte	$b2
	.byte	$b3
	.byte	$b2
	.byte	$b3
	.byte	$b2
	.byte	$b3
	.byte	$b2
	.byte	$b3
	.byte	$b2
	.byte	$b3
	.byte	$b2
	.byte	$b3
	.byte	$b2
	.byte	$b3
	.byte	$b2
	.byte	$b3
	.byte	$b2
	.byte	$b3
	.byte	$b2
	.byte	$b3
	.byte	$b2
	.byte	$b3
	.byte	$b2
	.byte	$b3
	.byte	$b2
	.byte	$b3
	.byte	$b2
	.byte	$b3
	.byte	$b2
	.byte	$b3
	.byte	$10
	.byte	$11
	.byte	$a3
	.byte	$a2
	.byte	$84
	.byte	$85
	.byte	$84
	.byte	$85
	.byte	$84
	.byte	$85
	.byte	$84
	.byte	$85
	.byte	$a3
	.byte	$a2
	.byte	$a3
	.byte	$a2
	.byte	$a3
	.byte	$a2
	.byte	$a3
	.byte	$a2
	.byte	$a3
	.byte	$a2
	.byte	$a3
	.byte	$a2
	.byte	$a3
	.byte	$a2
	.byte	$a3
	.byte	$a2
	.byte	$a3
	.byte	$a2
	.byte	$a3
	.byte	$a2
	.byte	$b6
	.byte	$b7
	.byte	$b2
	.byte	$b3
	.byte	$94
	.byte	$95
	.byte	$94
	.byte	$95
	.byte	$94
	.byte	$95
	.byte	$94
	.byte	$95
	.byte	$b2
	.byte	$b3
	.byte	$b2
	.byte	$b3
	.byte	$b2
	.byte	$b3
	.byte	$b2
	.byte	$b3
	.byte	$b2
	.byte	$b3
	.byte	$b2
	.byte	$b3
	.byte	$b2
	.byte	$b3
	.byte	$b2
	.byte	$b3
	.byte	$b2
	.byte	$b3
	.byte	$b2
	.byte	$b3
	.byte	$10
	.byte	$11
	.byte	$a3
	.byte	$a2
	.byte	$a3
	.byte	$a2
	.byte	$a3
	.byte	$a2
	.byte	$a3
	.byte	$a2
	.byte	$a3
	.byte	$a2
	.byte	$a3
	.byte	$a2
	.byte	$a3
	.byte	$a2
	.byte	$a3
	.byte	$a2
	.byte	$a3
	.byte	$a2
	.byte	$a3
	.byte	$a2
	.byte	$a3
	.byte	$a2
	.byte	$a3
	.byte	$a2
	.byte	$a3
	.byte	$a2
	.byte	$a3
	.byte	$a2
	.byte	$a3
	.byte	$a2
	.byte	$b6
	.byte	$b7
	.byte	$b2
	.byte	$b3
	.byte	$b2
	.byte	$b3
	.byte	$b2
	.byte	$b3
	.byte	$b2
	.byte	$b3
	.byte	$b2
	.byte	$b3
	.byte	$b2
	.byte	$b3
	.byte	$b2
	.byte	$b3
	.byte	$b2
	.byte	$b3
	.byte	$b2
	.byte	$b3
	.byte	$b2
	.byte	$b3
	.byte	$b2
	.byte	$b3
	.byte	$b2
	.byte	$b3
	.byte	$b2
	.byte	$b3
	.byte	$b2
	.byte	$b3
	.byte	$b2
	.byte	$b3
	.byte	$10
	.byte	$11
	.byte	$a3
	.byte	$a2
	.byte	$a3
	.byte	$a2
	.byte	$a3
	.byte	$a2
	.byte	$a3
	.byte	$a2
	.byte	$a3
	.byte	$a2
	.byte	$a3
	.byte	$a2
	.byte	$a3
	.byte	$a2
	.byte	$84
	.byte	$85
	.byte	$84
	.byte	$85
	.byte	$84
	.byte	$85
	.byte	$84
	.byte	$85
	.byte	$a3
	.byte	$a2
	.byte	$a3
	.byte	$a2
	.byte	$a3
	.byte	$a2
	.byte	$84
	.byte	$85
	.byte	$b6
	.byte	$b7
	.byte	$b2
	.byte	$b3
	.byte	$b2
	.byte	$b3
	.byte	$b2
	.byte	$b3
	.byte	$b2
	.byte	$b3
	.byte	$b2
	.byte	$b3
	.byte	$b2
	.byte	$b3
	.byte	$b2
	.byte	$b3
	.byte	$94
	.byte	$95
	.byte	$94
	.byte	$95
	.byte	$94
	.byte	$95
	.byte	$94
	.byte	$95
	.byte	$b2
	.byte	$b3
	.byte	$b2
	.byte	$b3
	.byte	$b2
	.byte	$b3
	.byte	$94
	.byte	$95
	.byte	$10
	.byte	$11
	.byte	$a3
	.byte	$a2
	.byte	$a3
	.byte	$a2
	.byte	$a3
	.byte	$a2
	.byte	$a3
	.byte	$a2
	.byte	$a3
	.byte	$a2
	.byte	$a3
	.byte	$a2
	.byte	$a3
	.byte	$a2
	.byte	$a3
	.byte	$a2
	.byte	$a3
	.byte	$a2
	.byte	$a3
	.byte	$a2
	.byte	$a3
	.byte	$a2
	.byte	$a3
	.byte	$a2
	.byte	$a3
	.byte	$a2
	.byte	$a3
	.byte	$a2
	.byte	$a3
	.byte	$a2
	.byte	$b6
	.byte	$b7
	.byte	$b2
	.byte	$b3
	.byte	$b2
	.byte	$b3
	.byte	$b2
	.byte	$b3
	.byte	$b2
	.byte	$b3
	.byte	$b2
	.byte	$b3
	.byte	$b2
	.byte	$b3
	.byte	$b2
	.byte	$b3
	.byte	$b2
	.byte	$b3
	.byte	$b2
	.byte	$b3
	.byte	$b2
	.byte	$b3
	.byte	$b2
	.byte	$b3
	.byte	$b2
	.byte	$b3
	.byte	$b2
	.byte	$b3
	.byte	$b2
	.byte	$b3
	.byte	$b2
	.byte	$b3
	.byte	$10
	.byte	$11
	.byte	$a3
	.byte	$a2
	.byte	$a3
	.byte	$a2
	.byte	$a3
	.byte	$a2
	.byte	$a3
	.byte	$a2
	.byte	$a3
	.byte	$a2
	.byte	$a3
	.byte	$a2
	.byte	$a3
	.byte	$a2
	.byte	$a3
	.byte	$a2
	.byte	$a3
	.byte	$a2
	.byte	$a3
	.byte	$a2
	.byte	$a3
	.byte	$a2
	.byte	$a3
	.byte	$a2
	.byte	$a3
	.byte	$a2
	.byte	$a3
	.byte	$a2
	.byte	$a3
	.byte	$a2
	.byte	$b6
	.byte	$b7
	.byte	$b2
	.byte	$b3
	.byte	$b2
	.byte	$b3
	.byte	$b2
	.byte	$b3
	.byte	$b2
	.byte	$b3
	.byte	$b2
	.byte	$b3
	.byte	$b2
	.byte	$b3
	.byte	$b2
	.byte	$b3
	.byte	$b2
	.byte	$b3
	.byte	$b2
	.byte	$b3
	.byte	$b2
	.byte	$b3
	.byte	$b2
	.byte	$b3
	.byte	$b2
	.byte	$b3
	.byte	$b2
	.byte	$b3
	.byte	$b2
	.byte	$b3
	.byte	$b2
	.byte	$b3
	.byte	$10
	.byte	$11
	.byte	$a3
	.byte	$a2
	.byte	$a3
	.byte	$a2
	.byte	$a3
	.byte	$a2
	.byte	$a3
	.byte	$a2
	.byte	$a3
	.byte	$a2
	.byte	$a3
	.byte	$a2
	.byte	$a3
	.byte	$a2
	.byte	$a3
	.byte	$a2
	.byte	$a3
	.byte	$a2
	.byte	$a3
	.byte	$a2
	.byte	$a3
	.byte	$a2
	.byte	$a3
	.byte	$a2
	.byte	$a3
	.byte	$a2
	.byte	$a3
	.byte	$a2
	.byte	$a3
	.byte	$a2
	.byte	$b6
	.byte	$b7
	.byte	$b2
	.byte	$b3
	.byte	$b2
	.byte	$b3
	.byte	$b2
	.byte	$b3
	.byte	$b2
	.byte	$b3
	.byte	$b2
	.byte	$b3
	.byte	$b2
	.byte	$b3
	.byte	$b2
	.byte	$b3
	.byte	$b2
	.byte	$b3
	.byte	$b2
	.byte	$b3
	.byte	$b2
	.byte	$b3
	.byte	$b2
	.byte	$b3
	.byte	$b2
	.byte	$b3
	.byte	$b2
	.byte	$b3
	.byte	$b2
	.byte	$b3
	.byte	$b2
	.byte	$b3
	.byte	$10
	.byte	$11
	.byte	$a3
	.byte	$a2
	.byte	$a3
	.byte	$a2
	.byte	$a3
	.byte	$a2
	.byte	$a3
	.byte	$a2
	.byte	$a3
	.byte	$a2
	.byte	$a3
	.byte	$a2
	.byte	$a3
	.byte	$a2
	.byte	$a3
	.byte	$a2
	.byte	$a3
	.byte	$a2
	.byte	$a3
	.byte	$a2
	.byte	$a3
	.byte	$a2
	.byte	$a3
	.byte	$a2
	.byte	$a3
	.byte	$a2
	.byte	$a3
	.byte	$a2
	.byte	$a3
	.byte	$a2
	.byte	$b6
	.byte	$b7
	.byte	$b2
	.byte	$b3
	.byte	$b2
	.byte	$b3
	.byte	$b2
	.byte	$b3
	.byte	$b2
	.byte	$b3
	.byte	$b2
	.byte	$b3
	.byte	$b2
	.byte	$b3
	.byte	$b2
	.byte	$b3
	.byte	$b2
	.byte	$b3
	.byte	$b2
	.byte	$b3
	.byte	$b2
	.byte	$b3
	.byte	$b2
	.byte	$b3
	.byte	$b2
	.byte	$b3
	.byte	$b2
	.byte	$b3
	.byte	$b2
	.byte	$b3
	.byte	$b2
	.byte	$b3
	.byte	$a0
	.byte	$a1
	.byte	$a0
	.byte	$a1
	.byte	$a0
	.byte	$a1
	.byte	$a0
	.byte	$a1
	.byte	$a0
	.byte	$a1
	.byte	$a0
	.byte	$a1
	.byte	$a0
	.byte	$a1
	.byte	$a0
	.byte	$a1
	.byte	$a0
	.byte	$a1
	.byte	$a0
	.byte	$a1
	.byte	$a0
	.byte	$a1
	.byte	$a0
	.byte	$a1
	.byte	$a0
	.byte	$a1
	.byte	$a0
	.byte	$a1
	.byte	$a0
	.byte	$a1
	.byte	$a0
	.byte	$a1
	.byte	$b0
	.byte	$b1
	.byte	$b0
	.byte	$b1
	.byte	$b0
	.byte	$b1
	.byte	$b0
	.byte	$b1
	.byte	$b0
	.byte	$b1
	.byte	$b0
	.byte	$b1
	.byte	$b0
	.byte	$b1
	.byte	$b0
	.byte	$b1
	.byte	$b0
	.byte	$b1
	.byte	$b0
	.byte	$b1
	.byte	$b0
	.byte	$b1
	.byte	$b0
	.byte	$b1
	.byte	$b0
	.byte	$b1
	.byte	$b0
	.byte	$b1
	.byte	$b0
	.byte	$b1
	.byte	$b0
	.byte	$b1
	.byte	$7f
	.byte	$5f
	.byte	$5f
	.byte	$5f
	.byte	$5f
	.byte	$5f
	.byte	$5f
	.byte	$5f
	.byte	$77
	.byte	$55
	.byte	$55
	.byte	$55
	.byte	$55
	.byte	$55
	.byte	$55
	.byte	$f5
	.byte	$77
	.byte	$55
	.byte	$55
	.byte	$55
	.byte	$f5
	.byte	$f5
	.byte	$55
	.byte	$55
	.byte	$77
	.byte	$f5
	.byte	$f5
	.byte	$55
	.byte	$55
	.byte	$55
	.byte	$55
	.byte	$55
	.byte	$77
	.byte	$55
	.byte	$55
	.byte	$55
	.byte	$f5
	.byte	$f5
	.byte	$55
	.byte	$d5
	.byte	$77
	.byte	$55
	.byte	$55
	.byte	$55
	.byte	$55
	.byte	$55
	.byte	$55
	.byte	$55
	.byte	$77
	.byte	$55
	.byte	$55
	.byte	$55
	.byte	$55
	.byte	$55
	.byte	$55
	.byte	$55
	.byte	$0f
	.byte	$0f
	.byte	$0f
	.byte	$0f
	.byte	$0f
	.byte	$0f
	.byte	$0f
	.byte	$0f
_Level3B:
	.byte	$a6
	.byte	$a7
	.byte	$a6
	.byte	$a7
	.byte	$a6
	.byte	$a7
	.byte	$a6
	.byte	$a7
	.byte	$a6
	.byte	$a7
	.byte	$a6
	.byte	$a7
	.byte	$a6
	.byte	$a7
	.byte	$a6
	.byte	$a7
	.byte	$a6
	.byte	$a7
	.byte	$a6
	.byte	$a7
	.byte	$a6
	.byte	$a7
	.byte	$a6
	.byte	$a7
	.byte	$a6
	.byte	$a7
	.byte	$a6
	.byte	$a7
	.byte	$a6
	.byte	$a7
	.byte	$a6
	.byte	$a7
	.byte	$b4
	.byte	$b5
	.byte	$b4
	.byte	$b5
	.byte	$b4
	.byte	$b5
	.byte	$b4
	.byte	$b4
	.byte	$b4
	.byte	$b5
	.byte	$b4
	.byte	$b5
	.byte	$b4
	.byte	$b9
	.byte	$b4
	.byte	$b5
	.byte	$b4
	.byte	$b5
	.byte	$b4
	.byte	$b5
	.byte	$b4
	.byte	$b9
	.byte	$b4
	.byte	$b5
	.byte	$b4
	.byte	$b8
	.byte	$b9
	.byte	$b5
	.byte	$b4
	.byte	$b5
	.byte	$b8
	.byte	$b9
	.byte	$a3
	.byte	$a2
	.byte	$a3
	.byte	$a2
	.byte	$a3
	.byte	$a2
	.byte	$a3
	.byte	$a2
	.byte	$a3
	.byte	$a2
	.byte	$a3
	.byte	$a2
	.byte	$a3
	.byte	$a2
	.byte	$a3
	.byte	$a2
	.byte	$a3
	.byte	$a2
	.byte	$a3
	.byte	$a2
	.byte	$a3
	.byte	$a2
	.byte	$a3
	.byte	$a2
	.byte	$a3
	.byte	$a2
	.byte	$a3
	.byte	$a2
	.byte	$a3
	.byte	$a2
	.byte	$10
	.byte	$11
	.byte	$b2
	.byte	$b3
	.byte	$b2
	.byte	$b3
	.byte	$b2
	.byte	$b3
	.byte	$b2
	.byte	$b3
	.byte	$b2
	.byte	$b3
	.byte	$b2
	.byte	$b3
	.byte	$b2
	.byte	$b3
	.byte	$b2
	.byte	$b3
	.byte	$b2
	.byte	$b3
	.byte	$b2
	.byte	$b3
	.byte	$b2
	.byte	$b3
	.byte	$b2
	.byte	$b3
	.byte	$b2
	.byte	$b3
	.byte	$b2
	.byte	$b3
	.byte	$b2
	.byte	$b3
	.byte	$b6
	.byte	$b7
	.byte	$a3
	.byte	$a2
	.byte	$a3
	.byte	$a2
	.byte	$a3
	.byte	$a2
	.byte	$a3
	.byte	$a2
	.byte	$a3
	.byte	$a2
	.byte	$a3
	.byte	$a2
	.byte	$a3
	.byte	$a2
	.byte	$a3
	.byte	$a2
	.byte	$a3
	.byte	$a2
	.byte	$a3
	.byte	$a2
	.byte	$a3
	.byte	$a2
	.byte	$a3
	.byte	$a2
	.byte	$a3
	.byte	$a2
	.byte	$04
	.byte	$05
	.byte	$a3
	.byte	$a2
	.byte	$10
	.byte	$11
	.byte	$b2
	.byte	$b3
	.byte	$b2
	.byte	$b3
	.byte	$b2
	.byte	$b3
	.byte	$b2
	.byte	$b3
	.byte	$b2
	.byte	$b3
	.byte	$b2
	.byte	$b3
	.byte	$b2
	.byte	$b3
	.byte	$b2
	.byte	$b3
	.byte	$b2
	.byte	$b3
	.byte	$b2
	.byte	$b3
	.byte	$b2
	.byte	$b3
	.byte	$b2
	.byte	$b3
	.byte	$b2
	.byte	$b3
	.byte	$14
	.byte	$15
	.byte	$b2
	.byte	$b3
	.byte	$b6
	.byte	$b7
	.byte	$84
	.byte	$85
	.byte	$84
	.byte	$85
	.byte	$a3
	.byte	$a2
	.byte	$a3
	.byte	$a2
	.byte	$a3
	.byte	$a2
	.byte	$a3
	.byte	$a2
	.byte	$a3
	.byte	$a2
	.byte	$a3
	.byte	$a2
	.byte	$a3
	.byte	$a2
	.byte	$a3
	.byte	$a2
	.byte	$84
	.byte	$85
	.byte	$84
	.byte	$85
	.byte	$84
	.byte	$85
	.byte	$84
	.byte	$85
	.byte	$a3
	.byte	$a2
	.byte	$10
	.byte	$11
	.byte	$94
	.byte	$95
	.byte	$94
	.byte	$95
	.byte	$b2
	.byte	$b3
	.byte	$b2
	.byte	$b3
	.byte	$b2
	.byte	$b3
	.byte	$b2
	.byte	$b3
	.byte	$b2
	.byte	$b3
	.byte	$b2
	.byte	$b3
	.byte	$b2
	.byte	$b3
	.byte	$b2
	.byte	$b3
	.byte	$94
	.byte	$95
	.byte	$94
	.byte	$95
	.byte	$94
	.byte	$95
	.byte	$94
	.byte	$95
	.byte	$b2
	.byte	$b3
	.byte	$b6
	.byte	$b7
	.byte	$a3
	.byte	$a2
	.byte	$a3
	.byte	$a2
	.byte	$a3
	.byte	$a2
	.byte	$a3
	.byte	$a2
	.byte	$a3
	.byte	$a2
	.byte	$a3
	.byte	$a2
	.byte	$a3
	.byte	$a2
	.byte	$a3
	.byte	$a2
	.byte	$a3
	.byte	$a2
	.byte	$a3
	.byte	$a2
	.byte	$a3
	.byte	$a2
	.byte	$a3
	.byte	$a2
	.byte	$a3
	.byte	$a2
	.byte	$a3
	.byte	$a2
	.byte	$a3
	.byte	$a2
	.byte	$10
	.byte	$11
	.byte	$b2
	.byte	$b3
	.byte	$b2
	.byte	$b3
	.byte	$b2
	.byte	$b3
	.byte	$b2
	.byte	$b3
	.byte	$b2
	.byte	$b3
	.byte	$b2
	.byte	$b3
	.byte	$b2
	.byte	$b3
	.byte	$b2
	.byte	$b3
	.byte	$b2
	.byte	$b3
	.byte	$b2
	.byte	$b3
	.byte	$b2
	.byte	$b3
	.byte	$b2
	.byte	$b3
	.byte	$b2
	.byte	$b3
	.byte	$b2
	.byte	$b3
	.byte	$b2
	.byte	$b3
	.byte	$b6
	.byte	$b7
	.byte	$a3
	.byte	$a2
	.byte	$a3
	.byte	$a2
	.byte	$a3
	.byte	$a2
	.byte	$a3
	.byte	$a2
	.byte	$84
	.byte	$85
	.byte	$84
	.byte	$85
	.byte	$84
	.byte	$85
	.byte	$84
	.byte	$85
	.byte	$a3
	.byte	$a2
	.byte	$a3
	.byte	$a2
	.byte	$a3
	.byte	$a2
	.byte	$a3
	.byte	$a2
	.byte	$a3
	.byte	$a2
	.byte	$a3
	.byte	$a2
	.byte	$a3
	.byte	$a2
	.byte	$10
	.byte	$11
	.byte	$b2
	.byte	$b3
	.byte	$b2
	.byte	$b3
	.byte	$b2
	.byte	$b3
	.byte	$b2
	.byte	$b3
	.byte	$94
	.byte	$95
	.byte	$94
	.byte	$95
	.byte	$94
	.byte	$95
	.byte	$94
	.byte	$95
	.byte	$b2
	.byte	$b3
	.byte	$b2
	.byte	$b3
	.byte	$b2
	.byte	$b3
	.byte	$b2
	.byte	$b3
	.byte	$b2
	.byte	$b3
	.byte	$b2
	.byte	$b3
	.byte	$b2
	.byte	$b3
	.byte	$b6
	.byte	$b7
	.byte	$a3
	.byte	$a2
	.byte	$a3
	.byte	$a2
	.byte	$a3
	.byte	$a2
	.byte	$a3
	.byte	$a2
	.byte	$a3
	.byte	$a2
	.byte	$a3
	.byte	$a2
	.byte	$a3
	.byte	$a2
	.byte	$a3
	.byte	$a2
	.byte	$a3
	.byte	$a2
	.byte	$a3
	.byte	$a2
	.byte	$a3
	.byte	$a2
	.byte	$a3
	.byte	$a2
	.byte	$a3
	.byte	$a2
	.byte	$a3
	.byte	$a2
	.byte	$a3
	.byte	$a2
	.byte	$10
	.byte	$11
	.byte	$b2
	.byte	$b3
	.byte	$b2
	.byte	$b3
	.byte	$b2
	.byte	$b3
	.byte	$b2
	.byte	$b3
	.byte	$b2
	.byte	$b3
	.byte	$b2
	.byte	$b3
	.byte	$b2
	.byte	$b3
	.byte	$b2
	.byte	$b3
	.byte	$b2
	.byte	$b3
	.byte	$b2
	.byte	$b3
	.byte	$b2
	.byte	$b3
	.byte	$b2
	.byte	$b3
	.byte	$b2
	.byte	$b3
	.byte	$b2
	.byte	$b3
	.byte	$b2
	.byte	$b3
	.byte	$b6
	.byte	$b7
	.byte	$a3
	.byte	$a2
	.byte	$a3
	.byte	$a2
	.byte	$a3
	.byte	$a2
	.byte	$a3
	.byte	$a2
	.byte	$a3
	.byte	$a2
	.byte	$a3
	.byte	$a2
	.byte	$a3
	.byte	$a2
	.byte	$a3
	.byte	$a2
	.byte	$84
	.byte	$85
	.byte	$84
	.byte	$85
	.byte	$84
	.byte	$85
	.byte	$a3
	.byte	$a2
	.byte	$a3
	.byte	$a2
	.byte	$a3
	.byte	$a2
	.byte	$a3
	.byte	$a2
	.byte	$10
	.byte	$11
	.byte	$b2
	.byte	$b3
	.byte	$b2
	.byte	$b3
	.byte	$b2
	.byte	$b3
	.byte	$b2
	.byte	$b3
	.byte	$b2
	.byte	$b3
	.byte	$b2
	.byte	$b3
	.byte	$b2
	.byte	$b3
	.byte	$b2
	.byte	$b3
	.byte	$94
	.byte	$95
	.byte	$94
	.byte	$95
	.byte	$94
	.byte	$95
	.byte	$b2
	.byte	$b3
	.byte	$b2
	.byte	$b3
	.byte	$b2
	.byte	$b3
	.byte	$b2
	.byte	$b3
	.byte	$b6
	.byte	$b7
	.byte	$a3
	.byte	$a2
	.byte	$a3
	.byte	$a2
	.byte	$a3
	.byte	$a2
	.byte	$a3
	.byte	$a2
	.byte	$a3
	.byte	$a2
	.byte	$a3
	.byte	$a2
	.byte	$a3
	.byte	$a2
	.byte	$a3
	.byte	$a2
	.byte	$a3
	.byte	$a2
	.byte	$a3
	.byte	$a2
	.byte	$a3
	.byte	$a2
	.byte	$a3
	.byte	$a2
	.byte	$a3
	.byte	$a2
	.byte	$a3
	.byte	$a2
	.byte	$a3
	.byte	$a2
	.byte	$10
	.byte	$11
	.byte	$b2
	.byte	$b3
	.byte	$b2
	.byte	$b3
	.byte	$b2
	.byte	$b3
	.byte	$b2
	.byte	$b3
	.byte	$b2
	.byte	$b3
	.byte	$b2
	.byte	$b3
	.byte	$b2
	.byte	$b3
	.byte	$b2
	.byte	$b3
	.byte	$b2
	.byte	$b3
	.byte	$b2
	.byte	$b3
	.byte	$b2
	.byte	$b3
	.byte	$b2
	.byte	$b3
	.byte	$b2
	.byte	$b3
	.byte	$b2
	.byte	$b3
	.byte	$b2
	.byte	$b3
	.byte	$b6
	.byte	$b7
	.byte	$84
	.byte	$85
	.byte	$84
	.byte	$85
	.byte	$84
	.byte	$85
	.byte	$a3
	.byte	$a2
	.byte	$a3
	.byte	$a2
	.byte	$a3
	.byte	$a2
	.byte	$a3
	.byte	$a2
	.byte	$a3
	.byte	$a2
	.byte	$a3
	.byte	$a2
	.byte	$a3
	.byte	$a2
	.byte	$a3
	.byte	$a2
	.byte	$a3
	.byte	$a2
	.byte	$84
	.byte	$85
	.byte	$84
	.byte	$85
	.byte	$84
	.byte	$85
	.byte	$10
	.byte	$11
	.byte	$94
	.byte	$95
	.byte	$94
	.byte	$95
	.byte	$94
	.byte	$95
	.byte	$b2
	.byte	$b3
	.byte	$b2
	.byte	$b3
	.byte	$b2
	.byte	$b3
	.byte	$b2
	.byte	$b3
	.byte	$b2
	.byte	$b3
	.byte	$b2
	.byte	$b3
	.byte	$b2
	.byte	$b3
	.byte	$b2
	.byte	$b3
	.byte	$b2
	.byte	$b3
	.byte	$94
	.byte	$95
	.byte	$94
	.byte	$95
	.byte	$94
	.byte	$95
	.byte	$b6
	.byte	$b7
	.byte	$a3
	.byte	$a2
	.byte	$a3
	.byte	$a2
	.byte	$a3
	.byte	$a2
	.byte	$a3
	.byte	$a2
	.byte	$a3
	.byte	$a2
	.byte	$a3
	.byte	$a2
	.byte	$a3
	.byte	$a2
	.byte	$a3
	.byte	$a2
	.byte	$a3
	.byte	$a2
	.byte	$a3
	.byte	$a2
	.byte	$a3
	.byte	$a2
	.byte	$a3
	.byte	$a2
	.byte	$a3
	.byte	$a2
	.byte	$a3
	.byte	$a2
	.byte	$a3
	.byte	$a2
	.byte	$10
	.byte	$11
	.byte	$b2
	.byte	$b3
	.byte	$b2
	.byte	$b3
	.byte	$b2
	.byte	$b3
	.byte	$b2
	.byte	$b3
	.byte	$b2
	.byte	$b3
	.byte	$b2
	.byte	$b3
	.byte	$b2
	.byte	$b3
	.byte	$b2
	.byte	$b3
	.byte	$b2
	.byte	$b3
	.byte	$b2
	.byte	$b3
	.byte	$b2
	.byte	$b3
	.byte	$b2
	.byte	$b3
	.byte	$b2
	.byte	$b3
	.byte	$b2
	.byte	$b3
	.byte	$b2
	.byte	$b3
	.byte	$b6
	.byte	$b7
	.byte	$a3
	.byte	$a2
	.byte	$a3
	.byte	$a2
	.byte	$a3
	.byte	$a2
	.byte	$a3
	.byte	$a2
	.byte	$a3
	.byte	$a2
	.byte	$84
	.byte	$85
	.byte	$84
	.byte	$85
	.byte	$84
	.byte	$85
	.byte	$84
	.byte	$85
	.byte	$a3
	.byte	$a2
	.byte	$a3
	.byte	$a2
	.byte	$a3
	.byte	$a2
	.byte	$a3
	.byte	$a2
	.byte	$a3
	.byte	$a2
	.byte	$a3
	.byte	$a2
	.byte	$10
	.byte	$11
	.byte	$b2
	.byte	$b3
	.byte	$b2
	.byte	$b3
	.byte	$b2
	.byte	$b3
	.byte	$b2
	.byte	$b3
	.byte	$b2
	.byte	$b3
	.byte	$94
	.byte	$95
	.byte	$94
	.byte	$95
	.byte	$94
	.byte	$95
	.byte	$94
	.byte	$95
	.byte	$b2
	.byte	$b3
	.byte	$b2
	.byte	$b3
	.byte	$b2
	.byte	$b3
	.byte	$b2
	.byte	$b3
	.byte	$b2
	.byte	$b3
	.byte	$b2
	.byte	$b3
	.byte	$b6
	.byte	$b7
	.byte	$a3
	.byte	$a2
	.byte	$a3
	.byte	$a2
	.byte	$a3
	.byte	$a2
	.byte	$a3
	.byte	$a2
	.byte	$a3
	.byte	$a2
	.byte	$a3
	.byte	$a2
	.byte	$a3
	.byte	$a2
	.byte	$a3
	.byte	$a2
	.byte	$a3
	.byte	$a2
	.byte	$a3
	.byte	$a2
	.byte	$a3
	.byte	$a2
	.byte	$a3
	.byte	$a2
	.byte	$a3
	.byte	$a2
	.byte	$a3
	.byte	$a2
	.byte	$a3
	.byte	$a2
	.byte	$10
	.byte	$11
	.byte	$b2
	.byte	$b3
	.byte	$b2
	.byte	$b3
	.byte	$b2
	.byte	$b3
	.byte	$b2
	.byte	$b3
	.byte	$b2
	.byte	$b3
	.byte	$b2
	.byte	$b3
	.byte	$b2
	.byte	$b3
	.byte	$b2
	.byte	$b3
	.byte	$b2
	.byte	$b3
	.byte	$b2
	.byte	$b3
	.byte	$b2
	.byte	$b3
	.byte	$b2
	.byte	$b3
	.byte	$b2
	.byte	$b3
	.byte	$b2
	.byte	$b3
	.byte	$b2
	.byte	$b3
	.byte	$b6
	.byte	$b7
	.byte	$a3
	.byte	$a2
	.byte	$a3
	.byte	$a2
	.byte	$a3
	.byte	$a2
	.byte	$a3
	.byte	$a2
	.byte	$a3
	.byte	$a2
	.byte	$a3
	.byte	$a2
	.byte	$a3
	.byte	$a2
	.byte	$a3
	.byte	$a2
	.byte	$a3
	.byte	$a2
	.byte	$a3
	.byte	$a2
	.byte	$a3
	.byte	$a2
	.byte	$a3
	.byte	$a2
	.byte	$a3
	.byte	$a2
	.byte	$a3
	.byte	$a2
	.byte	$a3
	.byte	$a2
	.byte	$10
	.byte	$11
	.byte	$b2
	.byte	$b3
	.byte	$b2
	.byte	$b3
	.byte	$b2
	.byte	$b3
	.byte	$b2
	.byte	$b3
	.byte	$b2
	.byte	$b3
	.byte	$b2
	.byte	$b3
	.byte	$b2
	.byte	$b3
	.byte	$b2
	.byte	$b3
	.byte	$b2
	.byte	$b3
	.byte	$b2
	.byte	$b3
	.byte	$b2
	.byte	$b3
	.byte	$b2
	.byte	$b3
	.byte	$b2
	.byte	$b3
	.byte	$b2
	.byte	$b3
	.byte	$b2
	.byte	$b3
	.byte	$b6
	.byte	$b7
	.byte	$a0
	.byte	$a1
	.byte	$a0
	.byte	$a1
	.byte	$a0
	.byte	$a1
	.byte	$a0
	.byte	$a1
	.byte	$a0
	.byte	$a1
	.byte	$a0
	.byte	$a1
	.byte	$a0
	.byte	$a1
	.byte	$a0
	.byte	$a1
	.byte	$a0
	.byte	$a1
	.byte	$a0
	.byte	$a1
	.byte	$a0
	.byte	$a1
	.byte	$a0
	.byte	$a1
	.byte	$a0
	.byte	$a1
	.byte	$a0
	.byte	$a1
	.byte	$a0
	.byte	$a1
	.byte	$a0
	.byte	$a1
	.byte	$b0
	.byte	$b1
	.byte	$b0
	.byte	$b1
	.byte	$b0
	.byte	$b1
	.byte	$b0
	.byte	$b1
	.byte	$b0
	.byte	$b1
	.byte	$b0
	.byte	$b1
	.byte	$b0
	.byte	$b1
	.byte	$b0
	.byte	$b1
	.byte	$b0
	.byte	$b1
	.byte	$b0
	.byte	$b1
	.byte	$b0
	.byte	$b1
	.byte	$b0
	.byte	$b1
	.byte	$b0
	.byte	$b1
	.byte	$b0
	.byte	$b1
	.byte	$b0
	.byte	$b1
	.byte	$b0
	.byte	$b1
	.byte	$5f
	.byte	$5f
	.byte	$5f
	.byte	$5f
	.byte	$5f
	.byte	$5f
	.byte	$5f
	.byte	$df
	.byte	$f5
	.byte	$55
	.byte	$55
	.byte	$55
	.byte	$55
	.byte	$f5
	.byte	$f1
	.byte	$dd
	.byte	$55
	.byte	$55
	.byte	$f5
	.byte	$f5
	.byte	$55
	.byte	$55
	.byte	$55
	.byte	$dd
	.byte	$55
	.byte	$55
	.byte	$55
	.byte	$55
	.byte	$f5
	.byte	$75
	.byte	$55
	.byte	$dd
	.byte	$f5
	.byte	$75
	.byte	$55
	.byte	$55
	.byte	$55
	.byte	$55
	.byte	$f5
	.byte	$fd
	.byte	$55
	.byte	$55
	.byte	$d5
	.byte	$f5
	.byte	$75
	.byte	$55
	.byte	$55
	.byte	$dd
	.byte	$55
	.byte	$55
	.byte	$55
	.byte	$55
	.byte	$55
	.byte	$55
	.byte	$55
	.byte	$dd
	.byte	$0f
	.byte	$0f
	.byte	$0f
	.byte	$0f
	.byte	$0f
	.byte	$0f
	.byte	$0f
	.byte	$0f
_palette:
	.byte	$0f
	.byte	$00
	.byte	$10
	.byte	$30
	.byte	$0f
	.byte	$01
	.byte	$11
	.byte	$31
	.byte	$0f
	.byte	$05
	.byte	$16
	.byte	$27
	.byte	$0f
	.byte	$09
	.byte	$19
	.byte	$29
_spritePalette:
	.byte	$0f
	.byte	$00
	.byte	$10
	.byte	$30
	.byte	$0f
	.byte	$01
	.byte	$11
	.byte	$21
	.byte	$0f
	.byte	$05
	.byte	$16
	.byte	$36
	.byte	$0f
	.byte	$09
	.byte	$19
	.byte	$39
_text:
	.byte	$4E,$6F,$63,$74,$75,$72,$6E,$65,$73,$20,$42,$6C,$6F,$6F,$64,$00
_titlePrompt:
	.byte	$50,$72,$65,$73,$73,$20,$53,$54,$41,$52,$54,$00
_endScreenTitle:
	.byte	$45,$6E,$64,$20,$53,$63,$72,$65,$65,$6E,$00
_endScreenPrompt:
	.byte	$54,$6F,$20,$70,$6C,$61,$79,$20,$61,$67,$61,$69,$6E,$00
_deathScreenTitle:
	.byte	$59,$4F,$55,$20,$41,$52,$45,$20,$44,$45,$41,$44,$00

.segment	"BSS"

.segment	"ZEROPAGE"
_inputPad:
	.res	1,$00
_movementPad:
	.res	1,$00
_currentLevelData:
	.res	2,$00
_player:
	.res	27,$00

; ---------------------------------------------------------------
; void __near__ DrawTitleScreen (void)
; ---------------------------------------------------------------

.segment	"CODE"

.proc	_DrawTitleScreen: near

.segment	"CODE"

;
; ppu_off(); // screen off
;
	jsr     _ppu_off
;
; pal_bg(palette); // load the BG palette
;
	lda     #<(_palette)
	ldx     #>(_palette)
	jsr     _pal_bg
;
; vram_adr(NAMETABLE_A);
;
	ldx     #$20
	lda     #$00
	jsr     _vram_adr
;
; vram_fill(0x00, 1024);
;
	lda     #$00
	jsr     pusha
	ldx     #$04
	jsr     _vram_fill
;
; vram_adr(NAMETABLE_B);
;
	ldx     #$24
	lda     #$00
	jsr     _vram_adr
;
; vram_fill(0x00, 1024);
;
	lda     #$00
	jsr     pusha
	ldx     #$04
	jsr     _vram_fill
;
; vram_adr(NTADR_A(8, 8)); // places text at screen position
;
	ldx     #$21
	lda     #$08
	jsr     _vram_adr
;
; vram_write(text, sizeof(text) - 1); //write Title to screen
;
	lda     #<(_text)
	ldx     #>(_text)
	jsr     pushax
	ldx     #$00
	lda     #$0F
	jsr     _vram_write
;
; vram_adr(NTADR_A(10, 14));
;
	ldx     #$21
	lda     #$CA
	jsr     _vram_adr
;
; vram_write(titlePrompt, sizeof(titlePrompt) - 1);
;
	lda     #<(_titlePrompt)
	ldx     #>(_titlePrompt)
	jsr     pushax
	ldx     #$00
	lda     #$0B
	jsr     _vram_write
;
; ppu_on_all(); // turn on screen
;
	jmp     _ppu_on_all

.endproc

; ---------------------------------------------------------------
; void __near__ GameLoop (void)
; ---------------------------------------------------------------

.segment	"CODE"

.proc	_GameLoop: near

.segment	"CODE"

;
; ppu_off(); 
;
	jsr     _ppu_off
;
; switch(currentLevel)
;
	lda     _currentLevel
	ldx     _currentLevel+1
;
; }
;
	cpx     #$00
	jne     L0003
	cmp     #$01
	beq     L0004
	cmp     #$02
	beq     L0005
	cmp     #$03
	beq     L0006
	jmp     L0003
;
; currentLevelData = Level1Data;
;
L0004:	lda     #>(_Level1Data)
	sta     _currentLevelData+1
	lda     #<(_Level1Data)
	sta     _currentLevelData
;
; vram_adr(NAMETABLE_A);   // Set VRAM address to the top-left of the screen
;
	ldx     #$20
	lda     #$00
	jsr     _vram_adr
;
; vram_write(Level1A, 1024);
;
	lda     #<(_Level1A)
	ldx     #>(_Level1A)
	jsr     pushax
	ldx     #$04
	lda     #$00
	jsr     _vram_write
;
; vram_adr(NAMETABLE_B);   // Set VRAM address to the top-left of the screen
;
	ldx     #$24
	lda     #$00
	jsr     _vram_adr
;
; vram_write(Level1B, 1024);
;
	lda     #<(_Level1B)
	ldx     #>(_Level1B)
;
; break;
;
	jmp     L000A
;
; currentLevelData = Level2Data;
;
L0005:	lda     #>(_Level2Data)
	sta     _currentLevelData+1
	lda     #<(_Level2Data)
	sta     _currentLevelData
;
; vram_adr(NAMETABLE_A);
;
	ldx     #$20
	lda     #$00
	jsr     _vram_adr
;
; vram_write(Level2A, 1024);
;
	lda     #<(_Level2A)
	ldx     #>(_Level2A)
	jsr     pushax
	ldx     #$04
	lda     #$00
	jsr     _vram_write
;
; vram_adr(NAMETABLE_B);
;
	ldx     #$24
	lda     #$00
	jsr     _vram_adr
;
; vram_write(Level2B, 1024);
;
	lda     #<(_Level2B)
	ldx     #>(_Level2B)
;
; break;
;
	jmp     L000A
;
; currentLevelData = Level3Data;
;
L0006:	lda     #>(_Level3Data)
	sta     _currentLevelData+1
	lda     #<(_Level3Data)
	sta     _currentLevelData
;
; vram_adr(NAMETABLE_A);
;
	ldx     #$20
	lda     #$00
	jsr     _vram_adr
;
; vram_write(Level3A, 1024);
;
	lda     #<(_Level3A)
	ldx     #>(_Level3A)
	jsr     pushax
	ldx     #$04
	lda     #$00
	jsr     _vram_write
;
; vram_adr(NAMETABLE_B);
;
	ldx     #$24
	lda     #$00
	jsr     _vram_adr
;
; vram_write(Level3B, 1024);
;
	lda     #<(_Level3B)
	ldx     #>(_Level3B)
L000A:	jsr     pushax
	ldx     #$04
	lda     #$00
	jsr     _vram_write
;
; pal_bg(palette);
;
L0003:	lda     #<(_palette)
	ldx     #>(_palette)
	jsr     _pal_bg
;
; pal_spr((const char*)spritePalette);
;
	lda     #<(_spritePalette)
	ldx     #>(_spritePalette)
	jsr     _pal_spr
;
; ppu_on_all();
;
	jmp     _ppu_on_all

.endproc

; ---------------------------------------------------------------
; void __near__ MovePlayer (void)
; ---------------------------------------------------------------

.segment	"CODE"

.proc	_MovePlayer: near

.segment	"CODE"

;
; if (OnGround()) 
;
	jsr     _OnGround
	tax
	beq     L0002
;
; player.coyoteTime = COYOTE_FRAMES;
;
	lda     #$0A
	sta     _player+2
;
; player.hasDashedInAir = 0;
;
	lda     #$00
	sta     _player+22
;
; else if (!OnGround() && player.coyoteTime > 0) 
;
	jmp     L004A
L0002:	jsr     _OnGround
	tax
	bne     L004A
	lda     _player+2
	beq     L004A
;
; player.coyoteTime--;
;
	dec     _player+2
;
; if (player.dashCooldown > 0) 
;
L004A:	lda     _player+21
	beq     L004B
;
; player.dashCooldown--;
;
	dec     _player+21
;
; if (movementPad & PAD_LEFT)
;
L004B:	lda     _movementPad
	and     #$02
	beq     L004C
;
; if (!CheckIfCollidableTile(currentLevelData[GetTileIndex(player.left, player.y + 1)]))
;
	lda     _currentLevelData
	ldx     _currentLevelData+1
	jsr     pushax
	lda     _player+3
	jsr     pusha
	lda     _player+1
	clc
	adc     #$01
	jsr     _GetTileIndex
	jsr     tosaddax
	sta     ptr1
	stx     ptr1+1
	ldy     #$00
	lda     (ptr1),y
	jsr     _CheckIfCollidableTile
	tax
	bne     L004C
;
; HandleLeftMovement(4, PLAYER_SPEED);
;
	lda     #$04
	jsr     pusha0
	lda     #$02
	jsr     _HandleLeftMovement
;
; player.facingRight = 0;
;
	lda     #$00
	sta     _player+13
;
; if (movementPad & PAD_RIGHT)
;
L004C:	lda     _movementPad
	and     #$01
	beq     L004D
;
; if (!CheckIfCollidableTile(currentLevelData[GetTileIndex(player.right, player.y + 1)]))
;
	lda     _currentLevelData
	ldx     _currentLevelData+1
	jsr     pushax
	lda     _player+5
	jsr     pusha
	lda     _player+1
	clc
	adc     #$01
	jsr     _GetTileIndex
	jsr     tosaddax
	sta     ptr1
	stx     ptr1+1
	ldy     #$00
	lda     (ptr1),y
	jsr     _CheckIfCollidableTile
	tax
	bne     L004D
;
; HandleRightMovement(252, PLAYER_SPEED);
;
	lda     #$FC
	jsr     pusha0
	lda     #$02
	jsr     _HandleRightMovement
;
; player.facingRight = 1;
;
	lda     #$01
	sta     _player+13
;
; if ((inputPad & PAD_B) && !player.isDashing && !(player.dashCooldown > 0)) 
;
L004D:	lda     _inputPad
	and     #$40
	beq     L0054
	lda     _player+18
	ora     _player+18+1
	bne     L0054
	lda     _player+21
	bne     L0054
;
; if (OnGround() || !player.hasDashedInAir)
;
	jsr     _OnGround
	tax
	bne     L0051
	lda     _player+22
	bne     L0054
;
; player.dashDirection = (movementPad & PAD_LEFT ? -1 : movementPad & PAD_RIGHT ? 1 : 0);
;
L0051:	lda     _movementPad
	and     #$02
	beq     L0052
	ldx     #$FF
	txa
	jmp     L0019
L0052:	lda     _movementPad
	ldx     #$00
	and     #$01
	beq     L0019
	lda     #$01
L0019:	sta     _player+23
	stx     _player+23+1
;
; player.isDashing = 1;
;
	ldx     #$00
	lda     #$01
	sta     _player+18
	stx     _player+18+1
;
; player.dashTimer = DASH_DURATION;
;
	lda     #$06
	sta     _player+20
;
; if (!OnGround())
;
	jsr     _OnGround
	tax
	bne     L0054
;
; player.hasDashedInAir = 1;
;
	lda     #$01
	sta     _player+22
;
; if (inputPad & PAD_A && !player.isDashing) 
;
L0054:	lda     _inputPad
	and     #$80
	beq     L0058
	lda     _player+18
	ora     _player+18+1
	bne     L0058
;
; player.jumpBufferTimer = JUMP_BUFFER_FRAMES;
;
	lda     #$14
	sta     _player+17
;
; if (player.jumpBufferTimer > 0 && !player.isJumping && player.coyoteTime > 0) 
;
L0058:	lda     _player+17
	beq     L005C
	lda     _player+16
	bne     L005C
	lda     _player+2
	beq     L005C
;
; player.isJumping = 1;
;
	lda     #$01
	sta     _player+16
;
; player.velocityY = JUMP_VELOCITY;
;
	ldx     #$FF
	lda     #$F6
	sta     _player+14
	stx     _player+14+1
;
; player.jumpBufferTimer = 0;
;
	lda     #$00
	sta     _player+17
;
; else if (player.jumpBufferTimer > 0) 
;
	jmp     L0024
L005C:	lda     _player+17
	beq     L0024
;
; player.jumpBufferTimer--;
;
	dec     _player+17
;
; if (player.isDashing) 
;
L0024:	lda     _player+18
	ora     _player+18+1
	jeq     L0025
;
; player.dashTimer--;
;
	dec     _player+20
;
; for (i = 0; i < DASH_SPEED; i++) 
;
	lda     #$00
	sta     _i
	sta     _i+1
L0026:	lda     _i
	cmp     #$05
	lda     _i+1
	sbc     #$00
	bvc     L002A
	eor     #$80
L002A:	jpl     L005D
;
; int nextX = player.x + player.dashDirection;
;
	lda     _player
	clc
	adc     _player+23
	pha
	lda     #$00
	adc     _player+23+1
	tax
	pla
	jsr     pushax
;
; int checkX = nextX + player.scrollX + (player.dashDirection == 1 ? 7 : -7);
;
	ldy     #$01
	lda     (sp),y
	tax
	dey
	lda     (sp),y
	clc
	adc     _player+11
	sta     ptr1
	txa
	adc     _player+11+1
	sta     ptr1+1
	lda     _player+23+1
	bne     L002D
	lda     _player+23
	cmp     #$01
	bne     L002D
	ldx     #$00
	lda     #$07
	jmp     L002E
L002D:	ldx     #$FF
	lda     #$F9
L002E:	clc
	adc     ptr1
	pha
	txa
	adc     ptr1+1
	tax
	pla
	jsr     pushax
;
; if (!CheckIfCollidableTile(currentLevelData[GetTileIndex(checkX, player.y + 1)])) 
;
	lda     _currentLevelData
	ldx     _currentLevelData+1
	jsr     pushax
	ldy     #$02
	lda     (sp),y
	jsr     pusha
	lda     _player+1
	clc
	adc     #$01
	jsr     _GetTileIndex
	jsr     tosaddax
	sta     ptr1
	stx     ptr1+1
	ldy     #$00
	lda     (ptr1),y
	jsr     _CheckIfCollidableTile
	tax
	bne     L002F
;
; if (player.dashDirection == 1) 
;
	lda     _player+23+1
	bne     L0031
	lda     _player+23
	cmp     #$01
	bne     L0031
;
; HandleRightMovement(255, 1);
;
	lda     #$FF
	jsr     pusha0
	lda     #$01
	jsr     _HandleRightMovement
;
; else if (player.dashDirection == -1)
;
	jmp     L0037
L0031:	lda     _player+23+1
	cmp     #$FF
	bne     L0034
	lda     _player+23
	cmp     #$FF
	bne     L0034
;
; HandleLeftMovement(1, 1);
;
	lda     #$01
	jsr     pusha0
	jsr     _HandleLeftMovement
;
; else
;
	jmp     L0037
;
; DashEnd();
;
L0034:	jsr     _DashEnd
;
; else 
;
	jmp     L0037
;
; DashEnd();
;
L002F:	jsr     _DashEnd
;
; break;
;
	jsr     incsp4
	jmp     L005D
;
; }
;
L0037:	jsr     incsp4
;
; for (i = 0; i < DASH_SPEED; i++) 
;
	inc     _i
	jne     L0026
	inc     _i+1
	jmp     L0026
;
; if (player.dashTimer <= 0) 
;
L005D:	lda     _player+20
	beq     L005E
;
; }
;
	rts
;
; DashEnd();
;
L005E:	jmp     _DashEnd
;
; if (player.isJumping) 
;
L0025:	lda     _player+16
	jeq     L003A
;
; player.velocityY += GRAVITY;
;
	inc     _player+14
	bne     L003B
	inc     _player+14+1
;
; if (player.velocityY < 0) 
;
L003B:	ldx     _player+14+1
	cpx     #$80
	bcc     L003D
;
; if (CheckIfCollidableTile(currentLevelData[GetTileIndex(player.x, player.top)]))
;
	lda     _currentLevelData
	ldx     _currentLevelData+1
	jsr     pushax
	lda     _player
	jsr     pusha
	lda     _player+7
	jsr     _GetTileIndex
	jsr     tosaddax
	sta     ptr1
	stx     ptr1+1
	ldy     #$00
	lda     (ptr1),y
	jsr     _CheckIfCollidableTile
	tax
	beq     L003D
;
; player.velocityY = 0;
;
	lda     #$00
	sta     _player+14
	sta     _player+14+1
;
; player.y += 1;
;
	inc     _player+1
;
; if (player.velocityY > MAX_FALL_SPEED)
;
L003D:	lda     _player+14
	cmp     #$05
	lda     _player+14+1
	sbc     #$00
	bvs     L003F
	eor     #$80
L003F:	bpl     L003E
;
; player.velocityY = MAX_FALL_SPEED;
;
	ldx     #$00
	lda     #$04
	sta     _player+14
	stx     _player+14+1
;
; player.y += player.velocityY;
;
L003E:	lda     _player+14
	clc
	adc     _player+1
	sta     _player+1
;
; if (player.velocityY >= 0 && OnGround()) 
;
	ldx     _player+14+1
	bmi     L0040
	jsr     _OnGround
	tax
	bne     L0046
	rts
;
; player.y -= 1;
;
L0044:	dec     _player+1
;
; UpdateColliderPositions();
;
	jsr     _UpdateColliderPositions
;
; while (OnGround()) 
;
L0046:	jsr     _OnGround
	tax
	bne     L0044
;
; player.y += 1;
;
	inc     _player+1
;
; UpdateColliderPositions();
;
	jsr     _UpdateColliderPositions
;
; player.velocityY = 0;
;
	lda     #$00
	sta     _player+14
	sta     _player+14+1
;
; player.isJumping = 0;
;
	sta     _player+16
;
; player.hasDashedInAir = 0;
;
	sta     _player+22
;
; else 
;
L0040:	rts
;
; if (!OnGround()) 
;
L003A:	jsr     _OnGround
	tax
	bne     L0048
;
; player.isJumping = 1;
;
	lda     #$01
	sta     _player+16
;
; }
;
L0048:	rts

.endproc

; ---------------------------------------------------------------
; void __near__ DrawPlayer (void)
; ---------------------------------------------------------------

.segment	"CODE"

.proc	_DrawPlayer: near

.segment	"CODE"

;
; unsigned int offset = 20;
;
	lda     #$14
	jsr     pusha0
;
; unsigned int origin = 20;
;
	jsr     pusha0
;
; unsigned char healthBarAttributes = 0x02;
;
	lda     #$02
	jsr     pusha
;
; unsigned char playerAttributes =  player.isDashing ? 0x03 :
;
	lda     _player+18
	ora     _player+18+1
	beq     L0002
	lda     #$03
	jmp     L003B
;
; currentLevel == 3 ? 0X02 : 0x01;
;
L0002:	lda     _currentLevel+1
	bne     L003A
	lda     _currentLevel
	cmp     #$03
	bne     L003A
	lda     #$02
	jmp     L003B
L003A:	lda     #$01
L003B:	jsr     pusha
;
; if (!player.facingRight)
;
	lda     _player+13
	bne     L0007
;
; playerAttributes |= 0x40;
;
	tay
	lda     (sp),y
	ora     #$40
	sta     (sp),y
;
; oam_clear();
;
L0007:	jsr     _oam_clear
;
; UpdateColliderPositions();
;
	jsr     _UpdateColliderPositions
;
; if (player.isDashing)
;
	lda     _player+18
	ora     _player+18+1
	jeq     L0008
;
; oam_spr((player.facingRight ? player.left : player.x), player.top, 0x88, playerAttributes);
;
	jsr     decsp3
	lda     _player+13
	beq     L0009
	lda     _player+3
	jmp     L000A
L0009:	lda     _player
L000A:	ldy     #$02
	sta     (sp),y
	lda     _player+7
	dey
	sta     (sp),y
	lda     #$88
	dey
	sta     (sp),y
	ldy     #$03
	lda     (sp),y
	jsr     _oam_spr
;
; oam_spr((player.facingRight ? player.x : player.left), player.top, 0x89, playerAttributes);
;
	jsr     decsp3
	lda     _player+13
	beq     L000B
	lda     _player
	jmp     L003C
L000B:	lda     _player+3
L003C:	ldy     #$02
	sta     (sp),y
	lda     _player+7
	dey
	sta     (sp),y
	lda     #$89
	dey
	sta     (sp),y
	ldy     #$03
	lda     (sp),y
	jsr     _oam_spr
;
; oam_spr((player.facingRight ? player.left : player.x), player.y, 0x98, playerAttributes);
;
	jsr     decsp3
	lda     _player+13
	beq     L000D
	lda     _player+3
	jmp     L000E
L000D:	lda     _player
L000E:	ldy     #$02
	sta     (sp),y
	lda     _player+1
	dey
	sta     (sp),y
	lda     #$98
	dey
	sta     (sp),y
	ldy     #$03
	lda     (sp),y
	jsr     _oam_spr
;
; oam_spr((player.facingRight ? player.x : player.left), player.y, 0x99, playerAttributes);
;
	jsr     decsp3
	lda     _player+13
	beq     L000F
	lda     _player
	jmp     L003D
L000F:	lda     _player+3
L003D:	ldy     #$02
	sta     (sp),y
	lda     _player+1
	dey
	sta     (sp),y
	lda     #$99
;
; else if (player.isJumping)
;
	jmp     L004A
L0008:	lda     _player+16
	jeq     L0012
;
; oam_spr((player.facingRight ? player.left : player.x), player.top, 0x0A, playerAttributes);
;
	jsr     decsp3
	lda     _player+13
	beq     L0013
	lda     _player+3
	jmp     L0014
L0013:	lda     _player
L0014:	ldy     #$02
	sta     (sp),y
	lda     _player+7
	dey
	sta     (sp),y
	lda     #$0A
	dey
	sta     (sp),y
	ldy     #$03
	lda     (sp),y
	jsr     _oam_spr
;
; oam_spr((player.facingRight ? player.x : player.left), player.top, 0x0B, playerAttributes);
;
	jsr     decsp3
	lda     _player+13
	beq     L0015
	lda     _player
	jmp     L003E
L0015:	lda     _player+3
L003E:	ldy     #$02
	sta     (sp),y
	lda     _player+7
	dey
	sta     (sp),y
	lda     #$0B
	dey
	sta     (sp),y
	ldy     #$03
	lda     (sp),y
	jsr     _oam_spr
;
; oam_spr((player.facingRight ? player.left : player.x), player.y, 0x1A, playerAttributes);
;
	jsr     decsp3
	lda     _player+13
	beq     L0017
	lda     _player+3
	jmp     L0018
L0017:	lda     _player
L0018:	ldy     #$02
	sta     (sp),y
	lda     _player+1
	dey
	sta     (sp),y
	lda     #$1A
	dey
	sta     (sp),y
	ldy     #$03
	lda     (sp),y
	jsr     _oam_spr
;
; oam_spr((player.facingRight ? player.x : player.left), player.y, 0x1B, playerAttributes);
;
	jsr     decsp3
	lda     _player+13
	beq     L0019
	lda     _player
	jmp     L003F
L0019:	lda     _player+3
L003F:	ldy     #$02
	sta     (sp),y
	lda     _player+1
	dey
	sta     (sp),y
	lda     #$1B
;
; else
;
	jmp     L004A
;
; oam_spr((player.facingRight ? player.left : player.x), player.top, 0x08, playerAttributes);
;
L0012:	jsr     decsp3
	lda     _player+13
	beq     L001C
	lda     _player+3
	jmp     L001D
L001C:	lda     _player
L001D:	ldy     #$02
	sta     (sp),y
	lda     _player+7
	dey
	sta     (sp),y
	lda     #$08
	dey
	sta     (sp),y
	ldy     #$03
	lda     (sp),y
	jsr     _oam_spr
;
; oam_spr((player.facingRight ? player.x : player.left), player.top, 0x09, playerAttributes);
;
	jsr     decsp3
	lda     _player+13
	beq     L001E
	lda     _player
	jmp     L0040
L001E:	lda     _player+3
L0040:	ldy     #$02
	sta     (sp),y
	lda     _player+7
	dey
	sta     (sp),y
	lda     #$09
	dey
	sta     (sp),y
	ldy     #$03
	lda     (sp),y
	jsr     _oam_spr
;
; oam_spr((player.facingRight ? player.left : player.x), player.y, 0x18, playerAttributes);
;
	jsr     decsp3
	lda     _player+13
	beq     L0020
	lda     _player+3
	jmp     L0021
L0020:	lda     _player
L0021:	ldy     #$02
	sta     (sp),y
	lda     _player+1
	dey
	sta     (sp),y
	lda     #$18
	dey
	sta     (sp),y
	ldy     #$03
	lda     (sp),y
	jsr     _oam_spr
;
; oam_spr((player.facingRight ? player.x : player.left), player.y, 0x19, playerAttributes);
;
	jsr     decsp3
	lda     _player+13
	beq     L0022
	lda     _player
	jmp     L0041
L0022:	lda     _player+3
L0041:	ldy     #$02
	sta     (sp),y
	lda     _player+1
	dey
	sta     (sp),y
	lda     #$19
L004A:	dey
	sta     (sp),y
	ldy     #$03
	lda     (sp),y
	jsr     _oam_spr
;
; for (i = 0; i < MAX_HEALTH; i++)
;
	lda     #$00
	sta     _i
	sta     _i+1
L0024:	lda     _i
	cmp     #$04
	lda     _i+1
	sbc     #$00
	bvc     L0028
	eor     #$80
L0028:	jpl     L0025
;
; healthBarAttributes = currentLevel == 1 ? 0x01 : 
;
	lda     _currentLevel+1
	bne     L002B
	lda     _currentLevel
	cmp     #$01
	beq     L0043
;
; currentLevel == 2 ? 0x03 : 0x02;
;
L002B:	lda     _currentLevel+1
	bne     L0042
	lda     _currentLevel
	cmp     #$02
	bne     L0042
	lda     #$03
	jmp     L0043
L0042:	lda     #$02
L0043:	ldy     #$01
	sta     (sp),y
;
; if (i <= player.health - 1)
;
	lda     _i
	ldx     _i+1
	jsr     pushax
	lda     _player+25
	ldx     _player+25+1
	sec
	sbc     #$01
	bcs     L0031
	dex
L0031:	jsr     tosicmp
	beq     L0039
	jcs     L0030
;
; oam_spr(origin + (i * offset), 20, 0x0E, healthBarAttributes);
;
L0039:	jsr     decsp3
	ldy     #$08
	jsr     pushwysp
	lda     _i
	ldx     _i+1
	jsr     pushax
	ldy     #$0C
	lda     (sp),y
	tax
	dey
	lda     (sp),y
	jsr     tosumulax
	jsr     tosaddax
	ldy     #$02
	sta     (sp),y
	lda     #$14
	dey
	sta     (sp),y
	lda     #$0E
	dey
	sta     (sp),y
	ldy     #$04
	lda     (sp),y
	jsr     _oam_spr
;
; oam_spr(origin + (i * offset), 28, 0x1E, healthBarAttributes);
;
	jsr     decsp3
	ldy     #$08
	jsr     pushwysp
	lda     _i
	ldx     _i+1
	jsr     pushax
	ldy     #$0C
	lda     (sp),y
	tax
	dey
	lda     (sp),y
	jsr     tosumulax
	jsr     tosaddax
	ldy     #$02
	sta     (sp),y
	lda     #$1C
	dey
	sta     (sp),y
	lda     #$1E
	dey
	sta     (sp),y
	ldy     #$04
	lda     (sp),y
	jsr     _oam_spr
;
; healthBarAttributes |= 0x40;
;
	ldy     #$01
	lda     (sp),y
	ora     #$40
	sta     (sp),y
;
; oam_spr(origin + (i * offset) + 8, 20, 0x0E, healthBarAttributes);
;
	jsr     decsp3
	ldy     #$08
	jsr     pushwysp
	lda     _i
	ldx     _i+1
	jsr     pushax
	ldy     #$0C
	lda     (sp),y
	tax
	dey
	lda     (sp),y
	jsr     tosumulax
	jsr     tosaddax
	clc
	adc     #$08
	ldy     #$02
	sta     (sp),y
	lda     #$14
	dey
	sta     (sp),y
	lda     #$0E
	dey
	sta     (sp),y
	ldy     #$04
	lda     (sp),y
	jsr     _oam_spr
;
; oam_spr(origin + (i * offset) + 8, 28, 0x1E, healthBarAttributes);
;
	jsr     decsp3
	ldy     #$08
	jsr     pushwysp
	lda     _i
	ldx     _i+1
	jsr     pushax
	ldy     #$0C
	lda     (sp),y
	tax
	dey
	lda     (sp),y
	jsr     tosumulax
	jsr     tosaddax
	clc
	adc     #$08
	ldy     #$02
	sta     (sp),y
	lda     #$1C
	dey
	sta     (sp),y
	lda     #$1E
;
; else
;
	jmp     L004B
;
; oam_spr(origin + (i * offset), 20, 0x0F, healthBarAttributes);
;
L0030:	jsr     decsp3
	ldy     #$08
	jsr     pushwysp
	lda     _i
	ldx     _i+1
	jsr     pushax
	ldy     #$0C
	lda     (sp),y
	tax
	dey
	lda     (sp),y
	jsr     tosumulax
	jsr     tosaddax
	ldy     #$02
	sta     (sp),y
	lda     #$14
	dey
	sta     (sp),y
	lda     #$0F
	dey
	sta     (sp),y
	ldy     #$04
	lda     (sp),y
	jsr     _oam_spr
;
; oam_spr(origin + (i * offset), 28, 0x1F, healthBarAttributes);
;
	jsr     decsp3
	ldy     #$08
	jsr     pushwysp
	lda     _i
	ldx     _i+1
	jsr     pushax
	ldy     #$0C
	lda     (sp),y
	tax
	dey
	lda     (sp),y
	jsr     tosumulax
	jsr     tosaddax
	ldy     #$02
	sta     (sp),y
	lda     #$1C
	dey
	sta     (sp),y
	lda     #$1F
	dey
	sta     (sp),y
	ldy     #$04
	lda     (sp),y
	jsr     _oam_spr
;
; healthBarAttributes |= 0x40;
;
	ldy     #$01
	lda     (sp),y
	ora     #$40
	sta     (sp),y
;
; oam_spr(origin + (i * offset) + 8, 20, 0x0F, healthBarAttributes);
;
	jsr     decsp3
	ldy     #$08
	jsr     pushwysp
	lda     _i
	ldx     _i+1
	jsr     pushax
	ldy     #$0C
	lda     (sp),y
	tax
	dey
	lda     (sp),y
	jsr     tosumulax
	jsr     tosaddax
	clc
	adc     #$08
	ldy     #$02
	sta     (sp),y
	lda     #$14
	dey
	sta     (sp),y
	lda     #$0F
	dey
	sta     (sp),y
	ldy     #$04
	lda     (sp),y
	jsr     _oam_spr
;
; oam_spr(origin + (i * offset) + 8, 28, 0x1F, healthBarAttributes);
;
	jsr     decsp3
	ldy     #$08
	jsr     pushwysp
	lda     _i
	ldx     _i+1
	jsr     pushax
	ldy     #$0C
	lda     (sp),y
	tax
	dey
	lda     (sp),y
	jsr     tosumulax
	jsr     tosaddax
	clc
	adc     #$08
	ldy     #$02
	sta     (sp),y
	lda     #$1C
	dey
	sta     (sp),y
	lda     #$1F
L004B:	dey
	sta     (sp),y
	ldy     #$04
	lda     (sp),y
	jsr     _oam_spr
;
; for (i = 0; i < MAX_HEALTH; i++)
;
	inc     _i
	jne     L0024
	inc     _i+1
	jmp     L0024
;
; }
;
L0025:	jmp     incsp6

.endproc

; ---------------------------------------------------------------
; unsigned int __near__ GetTileIndex (unsigned char playerX, unsigned char playerY)
; ---------------------------------------------------------------

.segment	"CODE"

.proc	_GetTileIndex: near

.segment	"CODE"

;
; {
;
	jsr     pusha
;
; unsigned char tileX = (playerX + player.scrollX) / 8; 
;
	ldy     #$01
	lda     (sp),y
	clc
	adc     _player+11
	pha
	lda     #$00
	adc     _player+11+1
	tax
	pla
	jsr     shrax3
	jsr     pusha
;
; unsigned char tileY = playerY / 8;
;
	ldy     #$01
	lda     (sp),y
	lsr     a
	lsr     a
	lsr     a
	jsr     pusha
;
; unsigned int tileIndex = tileY * 64 + tileX;
;
	ldx     #$00
	lda     (sp,x)
	jsr     shlax4
	jsr     shlax2
	sta     ptr1
	stx     ptr1+1
	ldy     #$01
	lda     (sp),y
	clc
	adc     ptr1
	ldx     ptr1+1
	bcc     L0002
	inx
L0002:	jsr     pushax
;
; return tileIndex;
;
	ldy     #$01
	lda     (sp),y
	tax
	dey
	lda     (sp),y
;
; }
;
	jmp     incsp6

.endproc

; ---------------------------------------------------------------
; void __near__ CheckIfEnd (void)
; ---------------------------------------------------------------

.segment	"CODE"

.proc	_CheckIfEnd: near

.segment	"CODE"

;
; if (CheckIfGoalTile(currentLevelData[GetTileIndex(player.left + 4, player.bottom)]) ||
;
	lda     _currentLevelData
	ldx     _currentLevelData+1
	jsr     pushax
	lda     _player+3
	clc
	adc     #$04
	jsr     pusha
	lda     _player+9
	jsr     _GetTileIndex
	jsr     tosaddax
	sta     ptr1
	stx     ptr1+1
	ldy     #$00
	lda     (ptr1),y
	jsr     _CheckIfGoalTile
	tax
	bne     L0004
;
; CheckIfGoalTile(currentLevelData[GetTileIndex(player.right - 4, player.bottom)]))
;
	lda     _currentLevelData
	ldx     _currentLevelData+1
	jsr     pushax
	lda     _player+5
	sec
	sbc     #$04
	jsr     pusha
	lda     _player+9
	jsr     _GetTileIndex
	jsr     tosaddax
	sta     ptr1
	stx     ptr1+1
	ldy     #$00
	lda     (ptr1),y
	jsr     _CheckIfGoalTile
	tax
	bne     L0004
	rts
;
; if (currentLevel == 3)
;
L0004:	lda     _currentLevel+1
	bne     L0007
	lda     _currentLevel
	cmp     #$03
	bne     L0007
;
; player.scrollX = 0;
;
	ldx     #$00
	txa
	sta     _player+11
	sta     _player+11+1
;
; set_scroll_x(player.scrollX);
;
	jsr     _set_scroll_x
;
; player.x = 30;
;
	lda     #$1E
	sta     _player
;
; player.y = 215;
;
	lda     #$D7
	sta     _player+1
;
; currentGameState = END_SCREEN;
;
	lda     #$02
	sta     _currentGameState
;
; DrawEndScreen();
;
	jmp     _DrawEndScreen
;
; currentLevel++;
;
L0007:	inc     _currentLevel
	bne     L000A
	inc     _currentLevel+1
;
; player.scrollX = 0;
;
L000A:	ldx     #$00
	txa
	sta     _player+11
	sta     _player+11+1
;
; set_scroll_x(player.scrollX);
;
	jsr     _set_scroll_x
;
; player.x = 30;
;
	lda     #$1E
	sta     _player
;
; player.y = 215;
;
	lda     #$D7
	sta     _player+1
;
; GameLoop();
;
	jmp     _GameLoop

.endproc

; ---------------------------------------------------------------
; void __near__ DrawEndScreen (void)
; ---------------------------------------------------------------

.segment	"CODE"

.proc	_DrawEndScreen: near

.segment	"CODE"

;
; ppu_off(); // screen off
;
	jsr     _ppu_off
;
; pal_bg(palette); // load the BG palette
;
	lda     #<(_palette)
	ldx     #>(_palette)
	jsr     _pal_bg
;
; oam_clear();
;
	jsr     _oam_clear
;
; currentLevel = 1;
;
	ldx     #$00
	lda     #$01
	sta     _currentLevel
	stx     _currentLevel+1
;
; vram_adr(NAMETABLE_A);            // Set VRAM address to start of screen
;
	ldx     #$20
	lda     #$00
	jsr     _vram_adr
;
; vram_fill(0x00, 1024);
;
	lda     #$00
	jsr     pusha
	ldx     #$04
	jsr     _vram_fill
;
; vram_adr(NAMETABLE_B);            // Set VRAM address to start of screen
;
	ldx     #$24
	lda     #$00
	jsr     _vram_adr
;
; vram_fill(0x00, 1024);
;
	lda     #$00
	jsr     pusha
	ldx     #$04
	jsr     _vram_fill
;
; vram_adr(NTADR_A(8, 8)); // places text at screen position
;
	ldx     #$21
	lda     #$08
	jsr     _vram_adr
;
; vram_write(endScreenTitle, sizeof(endScreenTitle) - 1); //write Title to screen
;
	lda     #<(_endScreenTitle)
	ldx     #>(_endScreenTitle)
	jsr     pushax
	ldx     #$00
	lda     #$0A
	jsr     _vram_write
;
; vram_adr(NTADR_A(10, 14));
;
	ldx     #$21
	lda     #$CA
	jsr     _vram_adr
;
; vram_write(titlePrompt, sizeof(titlePrompt) - 1);
;
	lda     #<(_titlePrompt)
	ldx     #>(_titlePrompt)
	jsr     pushax
	ldx     #$00
	lda     #$0B
	jsr     _vram_write
;
; vram_adr(NTADR_A(10, 18));
;
	ldx     #$22
	lda     #$4A
	jsr     _vram_adr
;
; vram_write(endScreenPrompt, sizeof(endScreenPrompt) - 1);
;
	lda     #<(_endScreenPrompt)
	ldx     #>(_endScreenPrompt)
	jsr     pushax
	ldx     #$00
	lda     #$0D
	jsr     _vram_write
;
; ppu_on_all(); // turn on screen
;
	jmp     _ppu_on_all

.endproc

; ---------------------------------------------------------------
; char __near__ OnGround (void)
; ---------------------------------------------------------------

.segment	"CODE"

.proc	_OnGround: near

.segment	"CODE"

;
; return CheckIfCollidableTile(currentLevelData[GetTileIndex(player.right - 4, player.bottom + 1)]) ||
;
	lda     _currentLevelData
	ldx     _currentLevelData+1
	jsr     pushax
	lda     _player+5
	sec
	sbc     #$04
	jsr     pusha
	lda     _player+9
	clc
	adc     #$01
	jsr     _GetTileIndex
	jsr     tosaddax
	sta     ptr1
	stx     ptr1+1
	ldy     #$00
	lda     (ptr1),y
	jsr     _CheckIfCollidableTile
	tax
	jne     L0004
;
; CheckIfCollidableTile(currentLevelData[GetTileIndex(player.left + 4, player.bottom + 1)]) ||
;
	lda     _currentLevelData
	ldx     _currentLevelData+1
	jsr     pushax
	lda     _player+3
	clc
	adc     #$04
	jsr     pusha
	lda     _player+9
	clc
	adc     #$01
	jsr     _GetTileIndex
	jsr     tosaddax
	sta     ptr1
	stx     ptr1+1
	ldy     #$00
	lda     (ptr1),y
	jsr     _CheckIfCollidableTile
	tax
	bne     L0004
;
; CheckIfPlatformTile(currentLevelData[GetTileIndex(player.right - 4, player.bottom + 1)]) ||
;
	lda     _currentLevelData
	ldx     _currentLevelData+1
	jsr     pushax
	lda     _player+5
	sec
	sbc     #$04
	jsr     pusha
	lda     _player+9
	clc
	adc     #$01
	jsr     _GetTileIndex
	jsr     tosaddax
	sta     ptr1
	stx     ptr1+1
	ldy     #$00
	lda     (ptr1),y
	jsr     _CheckIfPlatformTile
	tax
	bne     L0004
;
; CheckIfPlatformTile(currentLevelData[GetTileIndex(player.left + 4, player.bottom + 1)]);
;
	lda     _currentLevelData
	ldx     _currentLevelData+1
	jsr     pushax
	lda     _player+3
	clc
	adc     #$04
	jsr     pusha
	lda     _player+9
	clc
	adc     #$01
	jsr     _GetTileIndex
	jsr     tosaddax
	sta     ptr1
	stx     ptr1+1
	ldy     #$00
	lda     (ptr1),y
	jsr     _CheckIfPlatformTile
	tax
	beq     L000C
L0004:	lda     #$01
	ldx     #$00
;
; }
;
L000C:	rts

.endproc

; ---------------------------------------------------------------
; char __near__ CheckIfCollidableTile (unsigned char tile)
; ---------------------------------------------------------------

.segment	"CODE"

.proc	_CheckIfCollidableTile: near

.segment	"CODE"

;
; {
;
	jsr     pusha
;
; return tile == 0x10 || tile == 0x11
;
	ldy     #$00
	lda     (sp),y
	cmp     #$10
	beq     L0004
;
; || tile == 0x80 || tile == 0x81 || tile == 0x82 || tile == 0x83 
;
	cmp     #$11
	beq     L0004
	cmp     #$80
	beq     L0004
	cmp     #$81
	beq     L0004
	cmp     #$82
	beq     L0004
;
; || tile == 0x90 || tile == 0x91 || tile == 0x92 || tile == 0x93
;
	cmp     #$83
	beq     L0004
	cmp     #$90
	beq     L0004
	cmp     #$91
	beq     L0004
	cmp     #$92
	beq     L0004
;
; || tile == 0xA0 || tile == 0xA1 || tile == 0xA4 || tile == 0xA5 
;
	cmp     #$93
	beq     L0004
	cmp     #$A0
	beq     L0004
	cmp     #$A1
	beq     L0004
	cmp     #$A4
	beq     L0004
;
; || tile == 0xA6 || tile == 0xA7 || tile == 0xA8 || tile == 0xA9 
;
	cmp     #$A5
	beq     L0004
	cmp     #$A6
	beq     L0004
	cmp     #$A7
	beq     L0004
	cmp     #$A8
	beq     L0004
;
; || tile == 0xB0 || tile == 0xB1 || tile == 0xB4 || tile == 0xB5 
;
	cmp     #$A9
	beq     L0004
	cmp     #$B0
	beq     L0004
	cmp     #$B1
	beq     L0004
	cmp     #$B4
	beq     L0004
;
; || tile == 0xB6 || tile == 0xB7 || tile == 0xB8 || tile == 0xB9;
;
	cmp     #$B5
	beq     L0004
	cmp     #$B6
	beq     L0004
	cmp     #$B7
	beq     L0004
	cmp     #$B8
	beq     L0004
	cmp     #$B9
	beq     L0004
	ldx     #$00
	txa
	jmp     incsp1
L0004:	lda     #$01
	ldx     #$00
;
; }
;
	jmp     incsp1

.endproc

; ---------------------------------------------------------------
; void __near__ HandleRightMovement (unsigned int bound, unsigned int amountToIncrement)
; ---------------------------------------------------------------

.segment	"CODE"

.proc	_HandleRightMovement: near

.segment	"CODE"

;
; {
;
	jsr     pushax
;
; if (player.x > 0 && player.x < 128 || (player.x + player.scrollX >= 384))
;
	lda     _player
	beq     L000F
	cmp     #$80
	bcc     L0010
L000F:	lda     _player
	clc
	adc     _player+11
	pha
	lda     #$00
	adc     _player+11+1
	tax
	pla
	cmp     #$80
	txa
	sbc     #$01
	bcc     L0011
;
; player.x += amountToIncrement;
;
L0010:	ldy     #$00
	lda     (sp),y
	clc
	adc     _player
	sta     _player
;
; else if ((player.x + player.scrollX) >= 128 && (player.x + player.scrollX) < 384)
;
	jmp     incsp4
L0011:	lda     _player
	clc
	adc     _player+11
	pha
	lda     #$00
	adc     _player+11+1
	tax
	pla
	cmp     #$80
	txa
	sbc     #$00
	bcc     L000D
	lda     _player
	clc
	adc     _player+11
	pha
	lda     #$00
	adc     _player+11+1
	tax
	pla
	cpx     #$01
	bne     L0009
	cmp     #$80
L0009:	bcs     L000D
;
; if (player.scrollX <= bound) 
;
	lda     _player+11
	sec
	ldy     #$02
	sbc     (sp),y
	sta     tmp1
	lda     _player+11+1
	iny
	sbc     (sp),y
	ora     tmp1
	beq     L000E
	bcs     L000C
;
; player.scrollX += amountToIncrement;
;
L000E:	ldy     #$01
	lda     (sp),y
	tax
	dey
	lda     (sp),y
	clc
	adc     _player+11
	sta     _player+11
	txa
	adc     _player+11+1
	sta     _player+11+1
;
; else 
;
	jmp     incsp4
;
; player.scrollX = MAX_SCROLL;
;
L000C:	ldx     #$01
	lda     #$00
	sta     _player+11
	stx     _player+11+1
;
; }
;
L000D:	jmp     incsp4

.endproc

; ---------------------------------------------------------------
; void __near__ HandleLeftMovement (unsigned int bound, unsigned int amountToDecrement)
; ---------------------------------------------------------------

.segment	"CODE"

.proc	_HandleLeftMovement: near

.segment	"CODE"

;
; {
;
	jsr     pushax
;
; if (player.x > 0 && player.x < 128 || (player.x + player.scrollX > 384) || 
;
	lda     _player
	beq     L000F
	cmp     #$80
	bcc     L0010
L000F:	lda     _player
	clc
	adc     _player+11
	pha
	lda     #$00
	adc     _player+11+1
	tax
	pla
	cmp     #$81
	txa
	sbc     #$01
	bcs     L0010
;
; (player.scrollX == MIN_SCROLL))
;
	lda     _player+11
	ora     _player+11+1
	bne     L0011
;
; player.x -= amountToDecrement;
;
L0010:	ldy     #$00
	lda     (sp),y
	eor     #$FF
	sec
	adc     _player
	sta     _player
;
; else if ((player.x + player.scrollX) > 128 && (player.x + player.scrollX) <= 384)
;
	jmp     incsp4
L0011:	lda     _player
	clc
	adc     _player+11
	pha
	lda     #$00
	adc     _player+11+1
	tax
	pla
	cmp     #$81
	txa
	sbc     #$00
	bcc     L000E
	lda     _player
	clc
	adc     _player+11
	pha
	lda     #$00
	adc     _player+11+1
	tax
	pla
	cpx     #$01
	bne     L000A
	cmp     #$81
L000A:	bcs     L000E
;
; if (player.scrollX >= bound) 
;
	lda     _player+11
	ldy     #$02
	cmp     (sp),y
	lda     _player+11+1
	iny
	sbc     (sp),y
	lda     #$00
	bcc     L0015
;
; player.scrollX -= amountToDecrement;
;
	ldy     #$01
	lda     (sp),y
	tax
	dey
	lda     (sp),y
	eor     #$FF
	sec
	adc     _player+11
	sta     _player+11
	txa
	eor     #$FF
	adc     _player+11+1
;
; else 
;
	jmp     L0016
;
; player.scrollX = MIN_SCROLL;
;
L0015:	sta     _player+11
L0016:	sta     _player+11+1
;
; }
;
L000E:	jmp     incsp4

.endproc

; ---------------------------------------------------------------
; char __near__ CheckIfGoalTile (unsigned char tile)
; ---------------------------------------------------------------

.segment	"CODE"

.proc	_CheckIfGoalTile: near

.segment	"CODE"

;
; {
;
	jsr     pusha
;
; return tile == 0x04 || tile == 0x05 || tile == 0x14 || tile == 0x15;
;
	ldy     #$00
	lda     (sp),y
	cmp     #$04
	beq     L0004
	cmp     #$05
	beq     L0004
	cmp     #$14
	beq     L0004
	cmp     #$15
	beq     L0004
	ldx     #$00
	txa
	jmp     incsp1
L0004:	lda     #$01
	ldx     #$00
;
; }
;
	jmp     incsp1

.endproc

; ---------------------------------------------------------------
; void __near__ UpdateColliderPositions (void)
; ---------------------------------------------------------------

.segment	"CODE"

.proc	_UpdateColliderPositions: near

.segment	"CODE"

;
; player.left = player.x - 8;
;
	ldx     #$00
	lda     _player
	sec
	sbc     #$08
	bcs     L0002
	dex
L0002:	sta     _player+3
	stx     _player+3+1
;
; player.right = player.x + 8;
;
	ldx     #$00
	lda     _player
	clc
	adc     #$08
	bcc     L0003
	inx
L0003:	sta     _player+5
	stx     _player+5+1
;
; player.top = player.y - 8;
;
	ldx     #$00
	lda     _player+1
	sec
	sbc     #$08
	bcs     L0004
	dex
L0004:	sta     _player+7
	stx     _player+7+1
;
; player.bottom = player.y + 8;
;
	ldx     #$00
	lda     _player+1
	clc
	adc     #$08
	bcc     L0005
	inx
L0005:	sta     _player+9
	stx     _player+9+1
;
; }
;
	rts

.endproc

; ---------------------------------------------------------------
; void __near__ DashEnd (void)
; ---------------------------------------------------------------

.segment	"CODE"

.proc	_DashEnd: near

.segment	"CODE"

;
; if (player.isDashing)
;
	lda     _player+18
	ora     _player+18+1
	beq     L0002
;
; player.isDashing = 0;
;
	lda     #$00
	sta     _player+18
	sta     _player+18+1
;
; player.dashCooldown = DASH_COOLDOWN;
;
	lda     #$1E
	sta     _player+21
;
; }
;
L0002:	rts

.endproc

; ---------------------------------------------------------------
; char __near__ CheckIfPlatformTile (unsigned char tile)
; ---------------------------------------------------------------

.segment	"CODE"

.proc	_CheckIfPlatformTile: near

.segment	"CODE"

;
; {
;
	jsr     pusha
;
; return tile == 0x84 || tile == 0x85 || tile == 0x94 || tile == 0x95;
;
	ldy     #$00
	lda     (sp),y
	cmp     #$84
	beq     L0004
	cmp     #$85
	beq     L0004
	cmp     #$94
	beq     L0004
	cmp     #$95
	beq     L0004
	ldx     #$00
	txa
	jmp     incsp1
L0004:	lda     #$01
	ldx     #$00
;
; }
;
	jmp     incsp1

.endproc

; ---------------------------------------------------------------
; void __near__ SetPlayerValues (void)
; ---------------------------------------------------------------

.segment	"CODE"

.proc	_SetPlayerValues: near

.segment	"CODE"

;
; player.x = 30;
;
	lda     #$1E
	sta     _player
;
; player.y = 215;
;
	lda     #$D7
	sta     _player+1
;
; player.coyoteTime = 0;
;
	lda     #$00
	sta     _player+2
;
; player.left = 0;
;
	tax
	sta     _player+3
	sta     _player+3+1
;
; player.right = 0;
;
	sta     _player+5
	sta     _player+5+1
;
; player.top = 0;
;
	sta     _player+7
	sta     _player+7+1
;
; player.bottom = 0;
;
	sta     _player+9
	sta     _player+9+1
;
; player.scrollX = 0;
;
	sta     _player+11
	sta     _player+11+1
;
; player.facingRight = 1;
;
	lda     #$01
	sta     _player+13
;
; player.velocityY = 0;
;
	txa
	sta     _player+14
	sta     _player+14+1
;
; player.isJumping = 0;
;
	sta     _player+16
;
; player.jumpBufferTimer = 0; 
;
	sta     _player+17
;
; player.isDashing = 0;
;
	sta     _player+18
	sta     _player+18+1
;
; player.dashTimer = 0;
;
	sta     _player+20
;
; player.dashCooldown = 0;
;
	sta     _player+21
;
; player.hasDashedInAir = 0;
;
	sta     _player+22
;
; player.dashDirection = 0; 
;
	sta     _player+23
	sta     _player+23+1
;
; player.health = MAX_HEALTH;
;
	lda     #$04
	sta     _player+25
	stx     _player+25+1
;
; }
;
	rts

.endproc

; ---------------------------------------------------------------
; char __near__ CheckIfSpikes (unsigned char tile)
; ---------------------------------------------------------------

.segment	"CODE"

.proc	_CheckIfSpikes: near

.segment	"CODE"

;
; {
;
	jsr     pusha
;
; return tile == 0x8A || tile == 0x8B || tile == 0x9A || tile == 0x9B ||
;
	ldy     #$00
	lda     (sp),y
	cmp     #$8A
	beq     L0004
	cmp     #$8B
	beq     L0004
	cmp     #$9A
	beq     L0004
	cmp     #$9B
	beq     L0004
;
; tile == 0xAA || tile == 0xAB || tile == 0xC8 || tile == 0xC9 ||
;
	cmp     #$AA
	beq     L0004
	cmp     #$AB
	beq     L0004
	cmp     #$C8
	beq     L0004
	cmp     #$C9
	beq     L0004
;
; tile == 0xD8 || tile == 0xD9 || tile == 0xEA || tile == 0xEB;
;
	cmp     #$D8
	beq     L0004
	cmp     #$D9
	beq     L0004
	cmp     #$EA
	beq     L0004
	cmp     #$EB
	beq     L0004
	ldx     #$00
	txa
	jmp     incsp1
L0004:	lda     #$01
	ldx     #$00
;
; }
;
	jmp     incsp1

.endproc

; ---------------------------------------------------------------
; void __near__ DrawDeathScreen (void)
; ---------------------------------------------------------------

.segment	"CODE"

.proc	_DrawDeathScreen: near

.segment	"CODE"

;
; ppu_off(); // screen off
;
	jsr     _ppu_off
;
; pal_bg(palette); // load the BG palette
;
	lda     #<(_palette)
	ldx     #>(_palette)
	jsr     _pal_bg
;
; oam_clear();
;
	jsr     _oam_clear
;
; currentLevel = 1;
;
	ldx     #$00
	lda     #$01
	sta     _currentLevel
	stx     _currentLevel+1
;
; vram_adr(NAMETABLE_A);            // Set VRAM address to start of screen
;
	ldx     #$20
	lda     #$00
	jsr     _vram_adr
;
; vram_fill(0x00, 1024);
;
	lda     #$00
	jsr     pusha
	ldx     #$04
	jsr     _vram_fill
;
; vram_adr(NAMETABLE_B);            // Set VRAM address to start of screen
;
	ldx     #$24
	lda     #$00
	jsr     _vram_adr
;
; vram_fill(0x00, 1024);
;
	lda     #$00
	jsr     pusha
	ldx     #$04
	jsr     _vram_fill
;
; vram_adr(NTADR_A(8, 8)); // places text at screen position
;
	ldx     #$21
	lda     #$08
	jsr     _vram_adr
;
; vram_write(endScreenTitle, sizeof(deathScreenTitle) - 1); //write Title to screen
;
	lda     #<(_endScreenTitle)
	ldx     #>(_endScreenTitle)
	jsr     pushax
	ldx     #$00
	lda     #$0C
	jsr     _vram_write
;
; vram_adr(NTADR_A(10, 14));
;
	ldx     #$21
	lda     #$CA
	jsr     _vram_adr
;
; vram_write(titlePrompt, sizeof(titlePrompt) - 1);
;
	lda     #<(_titlePrompt)
	ldx     #>(_titlePrompt)
	jsr     pushax
	ldx     #$00
	lda     #$0B
	jsr     _vram_write
;
; vram_adr(NTADR_A(10, 18));
;
	ldx     #$22
	lda     #$4A
	jsr     _vram_adr
;
; vram_write(endScreenPrompt, sizeof(endScreenPrompt) - 1);
;
	lda     #<(_endScreenPrompt)
	ldx     #>(_endScreenPrompt)
	jsr     pushax
	ldx     #$00
	lda     #$0D
	jsr     _vram_write
;
; ppu_on_all(); // turn on screen
;
	jmp     _ppu_on_all

.endproc

; ---------------------------------------------------------------
; void __near__ damagePlayer (void)
; ---------------------------------------------------------------

.segment	"CODE"

.proc	_damagePlayer: near

.segment	"CODE"

;
; player.health--;
;
	lda     _player+25
	bne     L0002
	dec     _player+25+1
L0002:	dec     _player+25
;
; if (player.health <= 0)
;
	lda     _player+25
	ora     _player+25+1
	bne     L0003
;
; player.scrollX = 0;
;
	tax
	sta     _player+11
	sta     _player+11+1
;
; set_scroll_x(player.scrollX);
;
	jsr     _set_scroll_x
;
; player.x = 30;
;
	lda     #$1E
	sta     _player
;
; player.y = 215;
;
	lda     #$D7
	sta     _player+1
;
; currentGameState = DEATH_SCREEN;
;
	lda     #$03
	sta     _currentGameState
;
; DrawDeathScreen();
;
	jmp     _DrawDeathScreen
;
; }
;
L0003:	rts

.endproc

; ---------------------------------------------------------------
; void __near__ main (void)
; ---------------------------------------------------------------

.segment	"CODE"

.proc	_main: near

.segment	"CODE"

;
; SetPlayerValues();
;
	jsr     _SetPlayerValues
;
; DrawTitleScreen();
;
L000E:	jsr     _DrawTitleScreen
;
; ppu_wait_nmi();
;
L0002:	jsr     _ppu_wait_nmi
;
; movementPad = pad_poll(0);
;
	lda     #$00
	jsr     _pad_poll
	sta     _movementPad
;
; inputPad = get_pad_new(0);
;
	lda     #$00
	jsr     _get_pad_new
	sta     _inputPad
;
; switch(currentGameState)
;
	lda     _currentGameState
;
; }
;
	beq     L000F
	cmp     #$01
	beq     L0009
	cmp     #$02
	beq     L0010
	cmp     #$03
	beq     L0011
	jmp     L0002
;
; if (inputPad & PAD_START)
;
L000F:	lda     _inputPad
	and     #$10
	beq     L0002
;
; currentGameState = GAME_LOOP;
;
	lda     #$01
	sta     _currentGameState
;
; GameLoop();
;
	jsr     _GameLoop
;
; break;
;
	jmp     L0002
;
; UpdateColliderPositions();
;
L0009:	jsr     _UpdateColliderPositions
;
; MovePlayer();
;
	jsr     _MovePlayer
;
; DrawPlayer();
;
	jsr     _DrawPlayer
;
; scroll(player.scrollX, 0);
;
	lda     _player+11
	ldx     _player+11+1
	jsr     pushax
	ldx     #$00
	txa
	jsr     _scroll
;
; CheckIfEnd();
;
	jsr     _CheckIfEnd
;
; break;
;
	jmp     L0002
;
; if (inputPad & PAD_START)
;
L0010:	lda     _inputPad
	and     #$10
	beq     L0002
;
; currentGameState = START_SCREEN;
;
	lda     #$00
	sta     _currentGameState
;
; break;
;
	jmp     L000E
;
; if (inputPad & PAD_START)
;
L0011:	lda     _inputPad
	and     #$10
	beq     L0002
;
; currentGameState = START_SCREEN;
;
	lda     #$00
	sta     _currentGameState
;
; break;
;
	jmp     L000E

.endproc

