;
; File generated by cc65 v 2.19 - Git 5cb1bc6
;
	.fopt		compiler,"cc65 v 2.19 - Git 5cb1bc6"
	.setcpu		"6502"
	.smart		on
	.autoimport	on
	.case		on
	.debuginfo	off
	.importzp	sp, sreg, regsave, regbank
	.importzp	tmp1, tmp2, tmp3, tmp4, ptr1, ptr2, ptr3, ptr4
	.macpack	longbranch
	.forceimport	__STARTUP__
	.import		_pal_bg
	.import		_pal_spr
	.import		_ppu_wait_nmi
	.import		_ppu_off
	.import		_ppu_on_all
	.import		_oam_clear
	.import		_oam_spr
	.import		_pad_poll
	.import		_scroll
	.import		_vram_adr
	.import		_vram_fill
	.import		_vram_write
	.import		_get_pad_new
	.import		_set_scroll_x
	.export		_Level1Data
	.export		_Level2Data
	.export		_Level3Data
	.export		_Level1A
	.export		_Level1B
	.export		_Level2A
	.export		_Level2B
	.export		_Level3A
	.export		_Level3B
	.export		_palette
	.export		_spritePalette
	.export		_currentGameState
	.export		_text
	.export		_titlePrompt
	.export		_endScreenTitle
	.export		_endScreenPrompt
	.export		_inputPad
	.export		_movementPad
	.export		_playerX
	.export		_playerY
	.export		_coyoteTime
	.export		_playerLeft
	.export		_playerRight
	.export		_playerTop
	.export		_playerBottom
	.export		_scrollX
	.export		_facingRight
	.export		_velocityY
	.export		_isJumping
	.export		_jumpBufferTimer
	.export		_isDashing
	.export		_dashTimer
	.export		_dashCooldown
	.export		_hasDashedInAir
	.export		_dashDirection
	.export		_i
	.export		_currentLevel
	.export		_currentLevelData
	.export		_enemies
	.export		_DrawTitleScreen
	.export		_GameLoop
	.export		_MovePlayer
	.export		_DrawPlayer
	.export		_GetTileIndex
	.export		_CheckIfEnd
	.export		_DrawEndScreen
	.export		_OnGround
	.export		_CheckIfCollidableTile
	.export		_HandleRightMovement
	.export		_HandleLeftMovement
	.export		_CheckIfGoalTile
	.export		_UpdateColliderPositions
	.export		_DashEnd
	.export		_CheckIfPlatformTile
	.export		_main

.segment	"DATA"

_currentGameState:
	.byte	$00
_playerX:
	.word	$001e
_playerY:
	.word	$00d7
_coyoteTime:
	.byte	$00
_playerLeft:
	.word	$0000
_playerRight:
	.word	$0000
_playerTop:
	.word	$0000
_playerBottom:
	.word	$0000
_scrollX:
	.word	$0000
_facingRight:
	.byte	$01
_velocityY:
	.word	$0000
_isJumping:
	.byte	$00
_jumpBufferTimer:
	.byte	$00
_isDashing:
	.word	$0000
_dashTimer:
	.byte	$00
_dashCooldown:
	.byte	$00
_hasDashedInAir:
	.byte	$00
_dashDirection:
	.word	$0000
_i:
	.word	$0000
_currentLevel:
	.word	$0001

.segment	"RODATA"

_Level1Data:
	.byte	$a2
	.byte	$a3
	.byte	$a6
	.byte	$a7
	.byte	$a6
	.byte	$a7
	.byte	$a6
	.byte	$a7
	.byte	$a6
	.byte	$a7
	.byte	$a6
	.byte	$a7
	.byte	$a6
	.byte	$a7
	.byte	$a6
	.byte	$a7
	.byte	$a6
	.byte	$a7
	.byte	$a6
	.byte	$a7
	.byte	$a6
	.byte	$a7
	.byte	$a6
	.byte	$a7
	.byte	$a6
	.byte	$a7
	.byte	$a6
	.byte	$a7
	.byte	$a6
	.byte	$a7
	.byte	$a6
	.byte	$a7
	.byte	$a6
	.byte	$a7
	.byte	$a6
	.byte	$a7
	.byte	$a6
	.byte	$a7
	.byte	$a6
	.byte	$a7
	.byte	$a6
	.byte	$a7
	.byte	$a6
	.byte	$a7
	.byte	$a6
	.byte	$a7
	.byte	$a6
	.byte	$a7
	.byte	$a6
	.byte	$a7
	.byte	$a6
	.byte	$a7
	.byte	$a6
	.byte	$a7
	.byte	$a6
	.byte	$a7
	.byte	$a6
	.byte	$a7
	.byte	$a6
	.byte	$a7
	.byte	$a6
	.byte	$a7
	.byte	$a2
	.byte	$a3
	.byte	$b2
	.byte	$b3
	.byte	$91
	.byte	$91
	.byte	$91
	.byte	$91
	.byte	$91
	.byte	$91
	.byte	$91
	.byte	$91
	.byte	$91
	.byte	$91
	.byte	$91
	.byte	$91
	.byte	$91
	.byte	$91
	.byte	$91
	.byte	$91
	.byte	$91
	.byte	$91
	.byte	$91
	.byte	$91
	.byte	$91
	.byte	$91
	.byte	$91
	.byte	$91
	.byte	$91
	.byte	$91
	.byte	$91
	.byte	$91
	.byte	$91
	.byte	$91
	.byte	$91
	.byte	$91
	.byte	$91
	.byte	$91
	.byte	$91
	.byte	$91
	.byte	$91
	.byte	$91
	.byte	$91
	.byte	$91
	.byte	$91
	.byte	$91
	.byte	$91
	.byte	$91
	.byte	$91
	.byte	$91
	.byte	$91
	.byte	$91
	.byte	$91
	.byte	$91
	.byte	$91
	.byte	$91
	.byte	$91
	.byte	$91
	.byte	$91
	.byte	$91
	.byte	$91
	.byte	$91
	.byte	$91
	.byte	$91
	.byte	$b2
	.byte	$b3
	.byte	$82
	.byte	$83
	.byte	$b3
	.byte	$a2
	.byte	$a3
	.byte	$b2
	.byte	$b3
	.byte	$a2
	.byte	$a3
	.byte	$b2
	.byte	$b3
	.byte	$a2
	.byte	$a3
	.byte	$b2
	.byte	$b3
	.byte	$a2
	.byte	$a3
	.byte	$b2
	.byte	$b3
	.byte	$a2
	.byte	$a3
	.byte	$b2
	.byte	$b3
	.byte	$a2
	.byte	$a3
	.byte	$b2
	.byte	$b3
	.byte	$a2
	.byte	$a3
	.byte	$b2
	.byte	$b3
	.byte	$a2
	.byte	$a3
	.byte	$b2
	.byte	$b3
	.byte	$a2
	.byte	$a3
	.byte	$b2
	.byte	$b3
	.byte	$a2
	.byte	$a3
	.byte	$b2
	.byte	$b3
	.byte	$a2
	.byte	$a3
	.byte	$b2
	.byte	$b3
	.byte	$a2
	.byte	$a3
	.byte	$b2
	.byte	$b3
	.byte	$a2
	.byte	$a3
	.byte	$b2
	.byte	$b3
	.byte	$a2
	.byte	$a3
	.byte	$b2
	.byte	$b3
	.byte	$a2
	.byte	$a3
	.byte	$b2
	.byte	$83
	.byte	$82
	.byte	$92
	.byte	$93
	.byte	$a3
	.byte	$b2
	.byte	$b3
	.byte	$a2
	.byte	$a3
	.byte	$b2
	.byte	$b3
	.byte	$a2
	.byte	$a3
	.byte	$b2
	.byte	$b3
	.byte	$a2
	.byte	$a3
	.byte	$b2
	.byte	$b3
	.byte	$a2
	.byte	$a3
	.byte	$b2
	.byte	$b3
	.byte	$a2
	.byte	$a3
	.byte	$b2
	.byte	$b3
	.byte	$a2
	.byte	$a3
	.byte	$b2
	.byte	$b3
	.byte	$a2
	.byte	$a3
	.byte	$b2
	.byte	$b3
	.byte	$a2
	.byte	$a3
	.byte	$b2
	.byte	$b3
	.byte	$a2
	.byte	$a3
	.byte	$b2
	.byte	$b3
	.byte	$a2
	.byte	$a3
	.byte	$b2
	.byte	$b3
	.byte	$a2
	.byte	$a3
	.byte	$b2
	.byte	$b3
	.byte	$a2
	.byte	$a3
	.byte	$b2
	.byte	$b3
	.byte	$a2
	.byte	$a3
	.byte	$b2
	.byte	$b3
	.byte	$a2
	.byte	$a3
	.byte	$b2
	.byte	$b3
	.byte	$a2
	.byte	$93
	.byte	$92
	.byte	$82
	.byte	$83
	.byte	$a2
	.byte	$a3
	.byte	$b2
	.byte	$b3
	.byte	$a2
	.byte	$a3
	.byte	$b2
	.byte	$b3
	.byte	$a2
	.byte	$a3
	.byte	$b2
	.byte	$b3
	.byte	$a2
	.byte	$a3
	.byte	$b2
	.byte	$b3
	.byte	$a2
	.byte	$a3
	.byte	$b2
	.byte	$b3
	.byte	$a2
	.byte	$a3
	.byte	$b2
	.byte	$b3
	.byte	$a2
	.byte	$a3
	.byte	$b2
	.byte	$b3
	.byte	$a2
	.byte	$a3
	.byte	$b2
	.byte	$b3
	.byte	$a2
	.byte	$a3
	.byte	$b2
	.byte	$b3
	.byte	$a2
	.byte	$a3
	.byte	$b2
	.byte	$b3
	.byte	$a2
	.byte	$a3
	.byte	$b2
	.byte	$b3
	.byte	$a2
	.byte	$a3
	.byte	$b2
	.byte	$b3
	.byte	$a2
	.byte	$a3
	.byte	$b2
	.byte	$b3
	.byte	$a2
	.byte	$a3
	.byte	$b2
	.byte	$b3
	.byte	$a2
	.byte	$a3
	.byte	$b2
	.byte	$b3
	.byte	$83
	.byte	$82
	.byte	$92
	.byte	$93
	.byte	$b2
	.byte	$b3
	.byte	$a2
	.byte	$a3
	.byte	$b2
	.byte	$b3
	.byte	$a2
	.byte	$a3
	.byte	$b2
	.byte	$b3
	.byte	$a2
	.byte	$a3
	.byte	$b2
	.byte	$b3
	.byte	$a2
	.byte	$a3
	.byte	$b2
	.byte	$b3
	.byte	$a2
	.byte	$a3
	.byte	$b2
	.byte	$b3
	.byte	$a2
	.byte	$a3
	.byte	$b2
	.byte	$b3
	.byte	$a2
	.byte	$a3
	.byte	$b2
	.byte	$b3
	.byte	$a2
	.byte	$a3
	.byte	$b2
	.byte	$b3
	.byte	$a2
	.byte	$a3
	.byte	$b2
	.byte	$b3
	.byte	$a2
	.byte	$a3
	.byte	$b2
	.byte	$b3
	.byte	$a2
	.byte	$a3
	.byte	$b2
	.byte	$b3
	.byte	$a2
	.byte	$a3
	.byte	$b2
	.byte	$b3
	.byte	$a2
	.byte	$a3
	.byte	$b2
	.byte	$b3
	.byte	$a2
	.byte	$a3
	.byte	$b2
	.byte	$b3
	.byte	$a2
	.byte	$a3
	.byte	$93
	.byte	$92
	.byte	$82
	.byte	$83
	.byte	$b3
	.byte	$a2
	.byte	$a3
	.byte	$b2
	.byte	$b3
	.byte	$a2
	.byte	$a3
	.byte	$b2
	.byte	$b3
	.byte	$a2
	.byte	$a3
	.byte	$b2
	.byte	$b3
	.byte	$a2
	.byte	$a3
	.byte	$b2
	.byte	$b3
	.byte	$a2
	.byte	$a3
	.byte	$b2
	.byte	$b3
	.byte	$a2
	.byte	$a3
	.byte	$b2
	.byte	$b3
	.byte	$a2
	.byte	$a3
	.byte	$b2
	.byte	$b3
	.byte	$a2
	.byte	$a3
	.byte	$b2
	.byte	$b3
	.byte	$a2
	.byte	$a3
	.byte	$b2
	.byte	$b3
	.byte	$a2
	.byte	$a3
	.byte	$b2
	.byte	$b3
	.byte	$a2
	.byte	$a3
	.byte	$b2
	.byte	$b3
	.byte	$a2
	.byte	$a3
	.byte	$b2
	.byte	$b3
	.byte	$a2
	.byte	$a3
	.byte	$b2
	.byte	$04
	.byte	$05
	.byte	$b3
	.byte	$b2
	.byte	$b3
	.byte	$a2
	.byte	$a3
	.byte	$b2
	.byte	$83
	.byte	$82
	.byte	$92
	.byte	$93
	.byte	$a3
	.byte	$b2
	.byte	$b3
	.byte	$a2
	.byte	$a3
	.byte	$b2
	.byte	$b3
	.byte	$a2
	.byte	$a3
	.byte	$b2
	.byte	$b3
	.byte	$a2
	.byte	$a3
	.byte	$b2
	.byte	$b3
	.byte	$a2
	.byte	$a3
	.byte	$b2
	.byte	$b3
	.byte	$a2
	.byte	$a3
	.byte	$b2
	.byte	$b3
	.byte	$a2
	.byte	$a3
	.byte	$b2
	.byte	$b3
	.byte	$a2
	.byte	$a3
	.byte	$b2
	.byte	$b3
	.byte	$a2
	.byte	$a3
	.byte	$b2
	.byte	$b3
	.byte	$a2
	.byte	$a3
	.byte	$b2
	.byte	$b3
	.byte	$a2
	.byte	$a3
	.byte	$b2
	.byte	$b3
	.byte	$a2
	.byte	$a3
	.byte	$b2
	.byte	$b3
	.byte	$a2
	.byte	$a3
	.byte	$b2
	.byte	$b3
	.byte	$a2
	.byte	$14
	.byte	$15
	.byte	$a3
	.byte	$a2
	.byte	$a3
	.byte	$b2
	.byte	$b3
	.byte	$a2
	.byte	$93
	.byte	$92
	.byte	$82
	.byte	$83
	.byte	$a2
	.byte	$a3
	.byte	$b2
	.byte	$b3
	.byte	$a2
	.byte	$a3
	.byte	$b2
	.byte	$b3
	.byte	$a2
	.byte	$a3
	.byte	$b2
	.byte	$b3
	.byte	$a2
	.byte	$a3
	.byte	$b2
	.byte	$b3
	.byte	$a2
	.byte	$a3
	.byte	$b2
	.byte	$b3
	.byte	$a2
	.byte	$a3
	.byte	$b2
	.byte	$b3
	.byte	$a2
	.byte	$a3
	.byte	$b2
	.byte	$b3
	.byte	$a2
	.byte	$a3
	.byte	$b2
	.byte	$b3
	.byte	$a2
	.byte	$a3
	.byte	$b2
	.byte	$b3
	.byte	$a2
	.byte	$a3
	.byte	$b2
	.byte	$b3
	.byte	$a2
	.byte	$a3
	.byte	$b2
	.byte	$b3
	.byte	$a2
	.byte	$a3
	.byte	$b2
	.byte	$b3
	.byte	$a2
	.byte	$a3
	.byte	$84
	.byte	$85
	.byte	$84
	.byte	$85
	.byte	$84
	.byte	$85
	.byte	$a2
	.byte	$a3
	.byte	$b2
	.byte	$b3
	.byte	$83
	.byte	$82
	.byte	$92
	.byte	$93
	.byte	$b2
	.byte	$b3
	.byte	$a2
	.byte	$a3
	.byte	$b2
	.byte	$b3
	.byte	$a2
	.byte	$a3
	.byte	$b2
	.byte	$b3
	.byte	$a2
	.byte	$a3
	.byte	$b2
	.byte	$b3
	.byte	$a2
	.byte	$a3
	.byte	$b2
	.byte	$b3
	.byte	$a2
	.byte	$a3
	.byte	$b2
	.byte	$b3
	.byte	$a2
	.byte	$a3
	.byte	$b2
	.byte	$b3
	.byte	$a2
	.byte	$a3
	.byte	$b2
	.byte	$b3
	.byte	$a2
	.byte	$a3
	.byte	$b2
	.byte	$b3
	.byte	$a2
	.byte	$a3
	.byte	$b2
	.byte	$b3
	.byte	$a2
	.byte	$a3
	.byte	$b2
	.byte	$b3
	.byte	$a2
	.byte	$a3
	.byte	$b2
	.byte	$b3
	.byte	$a2
	.byte	$a3
	.byte	$b2
	.byte	$b3
	.byte	$94
	.byte	$95
	.byte	$94
	.byte	$95
	.byte	$94
	.byte	$95
	.byte	$b2
	.byte	$b3
	.byte	$a2
	.byte	$a3
	.byte	$93
	.byte	$92
	.byte	$82
	.byte	$83
	.byte	$84
	.byte	$85
	.byte	$84
	.byte	$85
	.byte	$84
	.byte	$85
	.byte	$84
	.byte	$85
	.byte	$b3
	.byte	$a2
	.byte	$a3
	.byte	$b2
	.byte	$b3
	.byte	$a2
	.byte	$a3
	.byte	$b2
	.byte	$b3
	.byte	$a2
	.byte	$a3
	.byte	$b2
	.byte	$b3
	.byte	$a2
	.byte	$a3
	.byte	$b2
	.byte	$b3
	.byte	$a2
	.byte	$a3
	.byte	$b2
	.byte	$b3
	.byte	$a2
	.byte	$a3
	.byte	$b2
	.byte	$b3
	.byte	$a2
	.byte	$a3
	.byte	$b2
	.byte	$b3
	.byte	$a2
	.byte	$a3
	.byte	$b2
	.byte	$b3
	.byte	$a2
	.byte	$a3
	.byte	$b2
	.byte	$b3
	.byte	$a2
	.byte	$a3
	.byte	$b2
	.byte	$b3
	.byte	$a2
	.byte	$a3
	.byte	$b2
	.byte	$b3
	.byte	$a2
	.byte	$a3
	.byte	$b2
	.byte	$b3
	.byte	$a2
	.byte	$a3
	.byte	$b2
	.byte	$83
	.byte	$82
	.byte	$92
	.byte	$93
	.byte	$94
	.byte	$95
	.byte	$94
	.byte	$95
	.byte	$94
	.byte	$95
	.byte	$94
	.byte	$95
	.byte	$a3
	.byte	$b2
	.byte	$b3
	.byte	$a2
	.byte	$a3
	.byte	$b2
	.byte	$b3
	.byte	$a2
	.byte	$a3
	.byte	$b2
	.byte	$b3
	.byte	$a2
	.byte	$a3
	.byte	$b2
	.byte	$b3
	.byte	$a2
	.byte	$a3
	.byte	$b2
	.byte	$b3
	.byte	$a2
	.byte	$a3
	.byte	$b2
	.byte	$b3
	.byte	$a2
	.byte	$a3
	.byte	$b2
	.byte	$b3
	.byte	$a2
	.byte	$a3
	.byte	$b2
	.byte	$b3
	.byte	$a2
	.byte	$a3
	.byte	$b2
	.byte	$b3
	.byte	$a2
	.byte	$a3
	.byte	$b2
	.byte	$b3
	.byte	$a2
	.byte	$a3
	.byte	$b2
	.byte	$b3
	.byte	$a2
	.byte	$a3
	.byte	$b2
	.byte	$b3
	.byte	$a2
	.byte	$a3
	.byte	$b2
	.byte	$b3
	.byte	$a2
	.byte	$93
	.byte	$92
	.byte	$82
	.byte	$83
	.byte	$a2
	.byte	$a3
	.byte	$b2
	.byte	$b3
	.byte	$a2
	.byte	$a3
	.byte	$b2
	.byte	$b3
	.byte	$a2
	.byte	$a3
	.byte	$b2
	.byte	$b3
	.byte	$a2
	.byte	$a3
	.byte	$b2
	.byte	$b3
	.byte	$a2
	.byte	$a3
	.byte	$b2
	.byte	$b3
	.byte	$a2
	.byte	$a3
	.byte	$b2
	.byte	$b3
	.byte	$a2
	.byte	$a3
	.byte	$b2
	.byte	$b3
	.byte	$a2
	.byte	$a3
	.byte	$b2
	.byte	$b3
	.byte	$a2
	.byte	$a3
	.byte	$b2
	.byte	$b3
	.byte	$a2
	.byte	$a3
	.byte	$b2
	.byte	$b3
	.byte	$84
	.byte	$85
	.byte	$84
	.byte	$85
	.byte	$84
	.byte	$85
	.byte	$b2
	.byte	$b3
	.byte	$a2
	.byte	$a3
	.byte	$b2
	.byte	$b3
	.byte	$a2
	.byte	$a3
	.byte	$b2
	.byte	$b3
	.byte	$a2
	.byte	$a3
	.byte	$b2
	.byte	$b3
	.byte	$83
	.byte	$82
	.byte	$92
	.byte	$93
	.byte	$b2
	.byte	$b3
	.byte	$a2
	.byte	$a3
	.byte	$b2
	.byte	$b3
	.byte	$a2
	.byte	$a3
	.byte	$b2
	.byte	$b3
	.byte	$a2
	.byte	$a3
	.byte	$b2
	.byte	$b3
	.byte	$a2
	.byte	$a3
	.byte	$b2
	.byte	$b3
	.byte	$a2
	.byte	$a3
	.byte	$b2
	.byte	$b3
	.byte	$a2
	.byte	$a3
	.byte	$b2
	.byte	$b3
	.byte	$a2
	.byte	$a3
	.byte	$b2
	.byte	$b3
	.byte	$a2
	.byte	$a3
	.byte	$b2
	.byte	$b3
	.byte	$a2
	.byte	$a3
	.byte	$b2
	.byte	$b3
	.byte	$a2
	.byte	$a3
	.byte	$94
	.byte	$95
	.byte	$94
	.byte	$95
	.byte	$94
	.byte	$95
	.byte	$a2
	.byte	$a3
	.byte	$b2
	.byte	$b3
	.byte	$a2
	.byte	$a3
	.byte	$b2
	.byte	$b3
	.byte	$a2
	.byte	$a3
	.byte	$b2
	.byte	$b3
	.byte	$a2
	.byte	$a3
	.byte	$93
	.byte	$92
	.byte	$82
	.byte	$83
	.byte	$a3
	.byte	$a2
	.byte	$a3
	.byte	$b2
	.byte	$b3
	.byte	$a2
	.byte	$84
	.byte	$85
	.byte	$84
	.byte	$85
	.byte	$84
	.byte	$85
	.byte	$84
	.byte	$85
	.byte	$b3
	.byte	$b2
	.byte	$b3
	.byte	$a2
	.byte	$a3
	.byte	$b2
	.byte	$b3
	.byte	$a2
	.byte	$a3
	.byte	$b2
	.byte	$b3
	.byte	$a2
	.byte	$a3
	.byte	$b2
	.byte	$b3
	.byte	$a2
	.byte	$a3
	.byte	$b2
	.byte	$b3
	.byte	$a2
	.byte	$a3
	.byte	$b2
	.byte	$b3
	.byte	$a2
	.byte	$a3
	.byte	$b2
	.byte	$b3
	.byte	$a2
	.byte	$a3
	.byte	$b2
	.byte	$b3
	.byte	$a2
	.byte	$a3
	.byte	$b2
	.byte	$b3
	.byte	$a2
	.byte	$a3
	.byte	$b2
	.byte	$b3
	.byte	$a2
	.byte	$a3
	.byte	$b2
	.byte	$b3
	.byte	$a2
	.byte	$a3
	.byte	$b2
	.byte	$83
	.byte	$82
	.byte	$92
	.byte	$93
	.byte	$b3
	.byte	$b2
	.byte	$b3
	.byte	$a2
	.byte	$a3
	.byte	$b2
	.byte	$94
	.byte	$95
	.byte	$94
	.byte	$95
	.byte	$94
	.byte	$95
	.byte	$94
	.byte	$95
	.byte	$a3
	.byte	$a2
	.byte	$a3
	.byte	$b2
	.byte	$b3
	.byte	$a2
	.byte	$a3
	.byte	$b2
	.byte	$b3
	.byte	$a2
	.byte	$a3
	.byte	$b2
	.byte	$b3
	.byte	$a2
	.byte	$a3
	.byte	$b2
	.byte	$b3
	.byte	$a2
	.byte	$a3
	.byte	$b2
	.byte	$b3
	.byte	$a2
	.byte	$a3
	.byte	$b2
	.byte	$b3
	.byte	$a2
	.byte	$a3
	.byte	$b2
	.byte	$b3
	.byte	$a2
	.byte	$a3
	.byte	$b2
	.byte	$b3
	.byte	$a2
	.byte	$a3
	.byte	$b2
	.byte	$b3
	.byte	$a2
	.byte	$a3
	.byte	$b2
	.byte	$b3
	.byte	$a2
	.byte	$a3
	.byte	$b2
	.byte	$b3
	.byte	$a2
	.byte	$93
	.byte	$92
	.byte	$82
	.byte	$83
	.byte	$a2
	.byte	$a3
	.byte	$b2
	.byte	$b3
	.byte	$a2
	.byte	$a3
	.byte	$b2
	.byte	$b3
	.byte	$a2
	.byte	$a3
	.byte	$b2
	.byte	$b3
	.byte	$a2
	.byte	$a3
	.byte	$b2
	.byte	$b3
	.byte	$a2
	.byte	$a3
	.byte	$b2
	.byte	$b3
	.byte	$a2
	.byte	$a3
	.byte	$b2
	.byte	$b3
	.byte	$a2
	.byte	$a3
	.byte	$b2
	.byte	$b3
	.byte	$a2
	.byte	$a3
	.byte	$84
	.byte	$85
	.byte	$84
	.byte	$85
	.byte	$84
	.byte	$85
	.byte	$a2
	.byte	$a3
	.byte	$b2
	.byte	$b3
	.byte	$a2
	.byte	$a3
	.byte	$b2
	.byte	$b3
	.byte	$a2
	.byte	$a3
	.byte	$b2
	.byte	$b3
	.byte	$a2
	.byte	$a3
	.byte	$b2
	.byte	$b3
	.byte	$a2
	.byte	$a3
	.byte	$b2
	.byte	$b3
	.byte	$a2
	.byte	$a3
	.byte	$b2
	.byte	$b3
	.byte	$83
	.byte	$82
	.byte	$92
	.byte	$93
	.byte	$b2
	.byte	$b3
	.byte	$a2
	.byte	$a3
	.byte	$b2
	.byte	$b3
	.byte	$a2
	.byte	$a3
	.byte	$b2
	.byte	$b3
	.byte	$a2
	.byte	$a3
	.byte	$b2
	.byte	$b3
	.byte	$a2
	.byte	$a3
	.byte	$b2
	.byte	$b3
	.byte	$a2
	.byte	$a3
	.byte	$b2
	.byte	$b3
	.byte	$a2
	.byte	$a3
	.byte	$b2
	.byte	$b3
	.byte	$a2
	.byte	$a3
	.byte	$b2
	.byte	$b3
	.byte	$94
	.byte	$95
	.byte	$94
	.byte	$95
	.byte	$94
	.byte	$95
	.byte	$b2
	.byte	$b3
	.byte	$a2
	.byte	$a3
	.byte	$b2
	.byte	$b3
	.byte	$a2
	.byte	$a3
	.byte	$b2
	.byte	$b3
	.byte	$a2
	.byte	$a3
	.byte	$b2
	.byte	$b3
	.byte	$a2
	.byte	$a3
	.byte	$b2
	.byte	$b3
	.byte	$a2
	.byte	$a3
	.byte	$b2
	.byte	$b3
	.byte	$a2
	.byte	$a3
	.byte	$93
	.byte	$92
	.byte	$82
	.byte	$83
	.byte	$a3
	.byte	$a2
	.byte	$a3
	.byte	$b2
	.byte	$b3
	.byte	$a2
	.byte	$a3
	.byte	$b2
	.byte	$b3
	.byte	$a2
	.byte	$a3
	.byte	$b2
	.byte	$b3
	.byte	$a2
	.byte	$a3
	.byte	$b2
	.byte	$b3
	.byte	$a2
	.byte	$84
	.byte	$85
	.byte	$84
	.byte	$85
	.byte	$84
	.byte	$85
	.byte	$84
	.byte	$85
	.byte	$b3
	.byte	$b2
	.byte	$b3
	.byte	$a2
	.byte	$a3
	.byte	$b2
	.byte	$b3
	.byte	$a2
	.byte	$a3
	.byte	$b2
	.byte	$b3
	.byte	$a2
	.byte	$a3
	.byte	$b2
	.byte	$b3
	.byte	$a2
	.byte	$a3
	.byte	$b2
	.byte	$84
	.byte	$85
	.byte	$84
	.byte	$85
	.byte	$84
	.byte	$85
	.byte	$b3
	.byte	$b2
	.byte	$b3
	.byte	$a2
	.byte	$a3
	.byte	$b2
	.byte	$b3
	.byte	$a2
	.byte	$a3
	.byte	$b2
	.byte	$83
	.byte	$82
	.byte	$92
	.byte	$93
	.byte	$b3
	.byte	$b2
	.byte	$b3
	.byte	$a2
	.byte	$a3
	.byte	$b2
	.byte	$b3
	.byte	$a2
	.byte	$a3
	.byte	$b2
	.byte	$b3
	.byte	$a2
	.byte	$a3
	.byte	$b2
	.byte	$b3
	.byte	$a2
	.byte	$a3
	.byte	$b2
	.byte	$94
	.byte	$95
	.byte	$94
	.byte	$95
	.byte	$94
	.byte	$95
	.byte	$94
	.byte	$95
	.byte	$a3
	.byte	$a2
	.byte	$a3
	.byte	$b2
	.byte	$b3
	.byte	$a2
	.byte	$a3
	.byte	$b2
	.byte	$b3
	.byte	$a2
	.byte	$a3
	.byte	$b2
	.byte	$b3
	.byte	$a2
	.byte	$a3
	.byte	$b2
	.byte	$b3
	.byte	$a2
	.byte	$94
	.byte	$95
	.byte	$94
	.byte	$95
	.byte	$94
	.byte	$95
	.byte	$a3
	.byte	$a2
	.byte	$a3
	.byte	$b2
	.byte	$b3
	.byte	$a2
	.byte	$a3
	.byte	$b2
	.byte	$b3
	.byte	$a2
	.byte	$93
	.byte	$92
	.byte	$82
	.byte	$83
	.byte	$a2
	.byte	$a3
	.byte	$b2
	.byte	$b3
	.byte	$a2
	.byte	$a3
	.byte	$b2
	.byte	$b3
	.byte	$a2
	.byte	$a3
	.byte	$b2
	.byte	$b3
	.byte	$a2
	.byte	$a3
	.byte	$b2
	.byte	$b3
	.byte	$a2
	.byte	$a3
	.byte	$b2
	.byte	$b3
	.byte	$a2
	.byte	$a3
	.byte	$b2
	.byte	$b3
	.byte	$a2
	.byte	$a3
	.byte	$b2
	.byte	$b3
	.byte	$a2
	.byte	$a3
	.byte	$b2
	.byte	$b3
	.byte	$a2
	.byte	$a3
	.byte	$b2
	.byte	$b3
	.byte	$a2
	.byte	$a3
	.byte	$b2
	.byte	$b3
	.byte	$a2
	.byte	$a3
	.byte	$b2
	.byte	$b3
	.byte	$a2
	.byte	$a3
	.byte	$b2
	.byte	$b3
	.byte	$a2
	.byte	$a3
	.byte	$b2
	.byte	$b3
	.byte	$a2
	.byte	$a3
	.byte	$b2
	.byte	$b3
	.byte	$a2
	.byte	$a3
	.byte	$b2
	.byte	$b3
	.byte	$83
	.byte	$82
	.byte	$92
	.byte	$93
	.byte	$b2
	.byte	$b3
	.byte	$a2
	.byte	$a3
	.byte	$b2
	.byte	$b3
	.byte	$a2
	.byte	$a3
	.byte	$b2
	.byte	$b3
	.byte	$a2
	.byte	$a3
	.byte	$b2
	.byte	$b3
	.byte	$a2
	.byte	$a3
	.byte	$b2
	.byte	$b3
	.byte	$a2
	.byte	$a3
	.byte	$b2
	.byte	$b3
	.byte	$a2
	.byte	$a3
	.byte	$b2
	.byte	$b3
	.byte	$a2
	.byte	$a3
	.byte	$b2
	.byte	$b3
	.byte	$a2
	.byte	$a3
	.byte	$b2
	.byte	$b3
	.byte	$a2
	.byte	$a3
	.byte	$b2
	.byte	$b3
	.byte	$a2
	.byte	$a3
	.byte	$b2
	.byte	$b3
	.byte	$a2
	.byte	$a3
	.byte	$b2
	.byte	$b3
	.byte	$a2
	.byte	$a3
	.byte	$b2
	.byte	$b3
	.byte	$a2
	.byte	$a3
	.byte	$b2
	.byte	$b3
	.byte	$a2
	.byte	$a3
	.byte	$b2
	.byte	$b3
	.byte	$a2
	.byte	$a3
	.byte	$93
	.byte	$92
	.byte	$82
	.byte	$83
	.byte	$b3
	.byte	$a2
	.byte	$a3
	.byte	$b2
	.byte	$b3
	.byte	$a2
	.byte	$a3
	.byte	$b2
	.byte	$84
	.byte	$85
	.byte	$84
	.byte	$85
	.byte	$84
	.byte	$85
	.byte	$84
	.byte	$85
	.byte	$a3
	.byte	$a2
	.byte	$a3
	.byte	$b2
	.byte	$b3
	.byte	$a2
	.byte	$a3
	.byte	$b2
	.byte	$b3
	.byte	$a2
	.byte	$a3
	.byte	$b2
	.byte	$b3
	.byte	$a2
	.byte	$a3
	.byte	$b2
	.byte	$b3
	.byte	$a2
	.byte	$a3
	.byte	$b2
	.byte	$b3
	.byte	$a2
	.byte	$a3
	.byte	$b2
	.byte	$b3
	.byte	$a2
	.byte	$a3
	.byte	$b2
	.byte	$b3
	.byte	$a2
	.byte	$a3
	.byte	$b2
	.byte	$b3
	.byte	$a2
	.byte	$a3
	.byte	$b2
	.byte	$b3
	.byte	$a2
	.byte	$84
	.byte	$85
	.byte	$84
	.byte	$85
	.byte	$84
	.byte	$85
	.byte	$83
	.byte	$82
	.byte	$92
	.byte	$93
	.byte	$a3
	.byte	$b2
	.byte	$b3
	.byte	$a2
	.byte	$a3
	.byte	$b2
	.byte	$b3
	.byte	$a2
	.byte	$94
	.byte	$95
	.byte	$94
	.byte	$95
	.byte	$94
	.byte	$95
	.byte	$94
	.byte	$95
	.byte	$b3
	.byte	$b2
	.byte	$b3
	.byte	$a2
	.byte	$a3
	.byte	$b2
	.byte	$b3
	.byte	$a2
	.byte	$a3
	.byte	$b2
	.byte	$b3
	.byte	$a2
	.byte	$a3
	.byte	$b2
	.byte	$b3
	.byte	$a2
	.byte	$a3
	.byte	$b2
	.byte	$b3
	.byte	$a2
	.byte	$a3
	.byte	$b2
	.byte	$b3
	.byte	$a2
	.byte	$a3
	.byte	$b2
	.byte	$b3
	.byte	$a2
	.byte	$a3
	.byte	$b2
	.byte	$b3
	.byte	$a2
	.byte	$a3
	.byte	$b2
	.byte	$b3
	.byte	$a2
	.byte	$a3
	.byte	$b2
	.byte	$94
	.byte	$95
	.byte	$94
	.byte	$95
	.byte	$94
	.byte	$95
	.byte	$93
	.byte	$92
	.byte	$82
	.byte	$83
	.byte	$a2
	.byte	$a3
	.byte	$b2
	.byte	$b3
	.byte	$a2
	.byte	$a3
	.byte	$b2
	.byte	$b3
	.byte	$a2
	.byte	$a3
	.byte	$b2
	.byte	$b3
	.byte	$a2
	.byte	$a3
	.byte	$b2
	.byte	$b3
	.byte	$a2
	.byte	$a3
	.byte	$b2
	.byte	$b3
	.byte	$a2
	.byte	$a3
	.byte	$b2
	.byte	$b3
	.byte	$a2
	.byte	$a3
	.byte	$b2
	.byte	$b3
	.byte	$a2
	.byte	$a3
	.byte	$b2
	.byte	$b3
	.byte	$a2
	.byte	$a3
	.byte	$b2
	.byte	$b3
	.byte	$a2
	.byte	$a3
	.byte	$b2
	.byte	$b3
	.byte	$a2
	.byte	$a3
	.byte	$b2
	.byte	$b3
	.byte	$a2
	.byte	$a3
	.byte	$b2
	.byte	$b3
	.byte	$a2
	.byte	$a3
	.byte	$b2
	.byte	$b3
	.byte	$a2
	.byte	$a3
	.byte	$b2
	.byte	$b3
	.byte	$a2
	.byte	$a3
	.byte	$b2
	.byte	$b3
	.byte	$83
	.byte	$82
	.byte	$92
	.byte	$93
	.byte	$b2
	.byte	$b3
	.byte	$a2
	.byte	$a3
	.byte	$b2
	.byte	$b3
	.byte	$a2
	.byte	$a3
	.byte	$b2
	.byte	$b3
	.byte	$a2
	.byte	$a3
	.byte	$b2
	.byte	$b3
	.byte	$a2
	.byte	$a3
	.byte	$b2
	.byte	$b3
	.byte	$a2
	.byte	$a3
	.byte	$b2
	.byte	$b3
	.byte	$a2
	.byte	$a3
	.byte	$b2
	.byte	$b3
	.byte	$a2
	.byte	$a3
	.byte	$b2
	.byte	$b3
	.byte	$a2
	.byte	$a3
	.byte	$b2
	.byte	$b3
	.byte	$a2
	.byte	$a3
	.byte	$b2
	.byte	$b3
	.byte	$a2
	.byte	$a3
	.byte	$b2
	.byte	$b3
	.byte	$a2
	.byte	$a3
	.byte	$b2
	.byte	$b3
	.byte	$a2
	.byte	$a3
	.byte	$b2
	.byte	$b3
	.byte	$a2
	.byte	$a3
	.byte	$b2
	.byte	$b3
	.byte	$a2
	.byte	$a3
	.byte	$b2
	.byte	$b3
	.byte	$a2
	.byte	$a3
	.byte	$93
	.byte	$92
	.byte	$82
	.byte	$83
	.byte	$b3
	.byte	$a2
	.byte	$a3
	.byte	$b2
	.byte	$b3
	.byte	$a2
	.byte	$a3
	.byte	$b2
	.byte	$b3
	.byte	$a2
	.byte	$a3
	.byte	$b2
	.byte	$b3
	.byte	$a2
	.byte	$a3
	.byte	$b2
	.byte	$b3
	.byte	$a2
	.byte	$a3
	.byte	$b2
	.byte	$b3
	.byte	$a2
	.byte	$a3
	.byte	$b2
	.byte	$b3
	.byte	$a2
	.byte	$a3
	.byte	$b2
	.byte	$b3
	.byte	$a2
	.byte	$a3
	.byte	$b2
	.byte	$b3
	.byte	$a2
	.byte	$a3
	.byte	$b2
	.byte	$b3
	.byte	$a2
	.byte	$a3
	.byte	$b2
	.byte	$b3
	.byte	$a2
	.byte	$a3
	.byte	$b2
	.byte	$b3
	.byte	$a2
	.byte	$a3
	.byte	$b2
	.byte	$b3
	.byte	$a2
	.byte	$a3
	.byte	$b2
	.byte	$b3
	.byte	$a2
	.byte	$a3
	.byte	$b2
	.byte	$b3
	.byte	$a2
	.byte	$a3
	.byte	$b2
	.byte	$83
	.byte	$82
	.byte	$92
	.byte	$93
	.byte	$a3
	.byte	$b2
	.byte	$b3
	.byte	$a2
	.byte	$a3
	.byte	$b2
	.byte	$b3
	.byte	$a2
	.byte	$a3
	.byte	$b2
	.byte	$b3
	.byte	$a2
	.byte	$a3
	.byte	$b2
	.byte	$b3
	.byte	$a2
	.byte	$a3
	.byte	$b2
	.byte	$b3
	.byte	$a2
	.byte	$a3
	.byte	$b2
	.byte	$b3
	.byte	$a2
	.byte	$a3
	.byte	$b2
	.byte	$b3
	.byte	$a2
	.byte	$a3
	.byte	$b2
	.byte	$b3
	.byte	$a2
	.byte	$a3
	.byte	$b2
	.byte	$b3
	.byte	$a2
	.byte	$a3
	.byte	$b2
	.byte	$b3
	.byte	$a2
	.byte	$a3
	.byte	$b2
	.byte	$b3
	.byte	$a2
	.byte	$a3
	.byte	$b2
	.byte	$b3
	.byte	$a2
	.byte	$a3
	.byte	$b2
	.byte	$b3
	.byte	$a2
	.byte	$a3
	.byte	$b2
	.byte	$b3
	.byte	$a2
	.byte	$a3
	.byte	$b2
	.byte	$b3
	.byte	$a2
	.byte	$93
	.byte	$92
	.byte	$a2
	.byte	$a3
	.byte	$a0
	.byte	$a1
	.byte	$a0
	.byte	$a1
	.byte	$a0
	.byte	$a1
	.byte	$a0
	.byte	$a1
	.byte	$a0
	.byte	$a1
	.byte	$a0
	.byte	$a1
	.byte	$a0
	.byte	$a1
	.byte	$a0
	.byte	$a1
	.byte	$a0
	.byte	$a1
	.byte	$a0
	.byte	$a1
	.byte	$a0
	.byte	$a1
	.byte	$a0
	.byte	$a1
	.byte	$a0
	.byte	$a1
	.byte	$a0
	.byte	$a1
	.byte	$a0
	.byte	$a1
	.byte	$a0
	.byte	$a1
	.byte	$a0
	.byte	$a1
	.byte	$a0
	.byte	$a1
	.byte	$a0
	.byte	$a1
	.byte	$a0
	.byte	$a1
	.byte	$a0
	.byte	$a1
	.byte	$a0
	.byte	$a1
	.byte	$a0
	.byte	$a1
	.byte	$a0
	.byte	$a1
	.byte	$a0
	.byte	$a1
	.byte	$a0
	.byte	$a1
	.byte	$a0
	.byte	$a1
	.byte	$a0
	.byte	$a1
	.byte	$a0
	.byte	$a1
	.byte	$a0
	.byte	$a1
	.byte	$a2
	.byte	$a3
	.byte	$b2
	.byte	$b3
	.byte	$b0
	.byte	$b1
	.byte	$b0
	.byte	$b1
	.byte	$b0
	.byte	$b1
	.byte	$b0
	.byte	$b1
	.byte	$b0
	.byte	$b1
	.byte	$b0
	.byte	$b1
	.byte	$b0
	.byte	$b1
	.byte	$b0
	.byte	$b1
	.byte	$b0
	.byte	$b1
	.byte	$b0
	.byte	$b1
	.byte	$b0
	.byte	$b1
	.byte	$b0
	.byte	$b1
	.byte	$b0
	.byte	$b1
	.byte	$b0
	.byte	$b1
	.byte	$b0
	.byte	$b1
	.byte	$b0
	.byte	$b1
	.byte	$b0
	.byte	$b1
	.byte	$b0
	.byte	$b1
	.byte	$b0
	.byte	$b1
	.byte	$b0
	.byte	$b1
	.byte	$b0
	.byte	$b1
	.byte	$b0
	.byte	$b1
	.byte	$b0
	.byte	$b1
	.byte	$b0
	.byte	$b1
	.byte	$b0
	.byte	$b1
	.byte	$b0
	.byte	$b1
	.byte	$b0
	.byte	$b1
	.byte	$b0
	.byte	$b1
	.byte	$b0
	.byte	$b1
	.byte	$b0
	.byte	$b1
	.byte	$b2
	.byte	$b3
	.byte	$80
	.byte	$a0
	.byte	$a0
	.byte	$a0
	.byte	$a0
	.byte	$a0
	.byte	$a0
	.byte	$a0
	.byte	$a0
	.byte	$a0
	.byte	$a0
	.byte	$a0
	.byte	$a0
	.byte	$a0
	.byte	$a0
	.byte	$20
	.byte	$88
	.byte	$aa
	.byte	$aa
	.byte	$aa
	.byte	$aa
	.byte	$aa
	.byte	$aa
	.byte	$aa
	.byte	$aa
	.byte	$aa
	.byte	$aa
	.byte	$aa
	.byte	$aa
	.byte	$2a
	.byte	$aa
	.byte	$22
	.byte	$08
	.byte	$0a
	.byte	$8a
	.byte	$aa
	.byte	$aa
	.byte	$aa
	.byte	$aa
	.byte	$aa
	.byte	$aa
	.byte	$aa
	.byte	$aa
	.byte	$aa
	.byte	$aa
	.byte	$a0
	.byte	$a8
	.byte	$22
	.byte	$88
	.byte	$aa
	.byte	$0a
	.byte	$0a
	.byte	$aa
	.byte	$aa
	.byte	$aa
	.byte	$aa
	.byte	$aa
	.byte	$aa
	.byte	$a2
	.byte	$a0
	.byte	$aa
	.byte	$aa
	.byte	$aa
	.byte	$22
	.byte	$88
	.byte	$aa
	.byte	$aa
	.byte	$aa
	.byte	$aa
	.byte	$0a
	.byte	$0a
	.byte	$aa
	.byte	$a0
	.byte	$a8
	.byte	$aa
	.byte	$2a
	.byte	$0a
	.byte	$aa
	.byte	$aa
	.byte	$22
	.byte	$88
	.byte	$aa
	.byte	$2a
	.byte	$0a
	.byte	$8a
	.byte	$aa
	.byte	$aa
	.byte	$aa
	.byte	$aa
	.byte	$aa
	.byte	$aa
	.byte	$aa
	.byte	$aa
	.byte	$aa
	.byte	$0a
	.byte	$02
	.byte	$88
	.byte	$aa
	.byte	$aa
	.byte	$aa
	.byte	$aa
	.byte	$aa
	.byte	$aa
	.byte	$aa
	.byte	$aa
	.byte	$aa
	.byte	$aa
	.byte	$aa
	.byte	$aa
	.byte	$aa
	.byte	$aa
	.byte	$22
	.byte	$00
	.byte	$00
	.byte	$00
	.byte	$00
	.byte	$00
	.byte	$00
	.byte	$00
	.byte	$00
	.byte	$00
	.byte	$00
	.byte	$00
	.byte	$00
	.byte	$00
	.byte	$00
	.byte	$00
	.byte	$00
_Level2Data:
	.byte	$b0
	.byte	$b1
	.byte	$b0
	.byte	$b1
	.byte	$b0
	.byte	$b1
	.byte	$b0
	.byte	$b1
	.byte	$b0
	.byte	$b1
	.byte	$b0
	.byte	$b1
	.byte	$b0
	.byte	$b1
	.byte	$b0
	.byte	$b1
	.byte	$b0
	.byte	$b1
	.byte	$b0
	.byte	$b1
	.byte	$b0
	.byte	$b1
	.byte	$b0
	.byte	$b1
	.byte	$b0
	.byte	$b1
	.byte	$b0
	.byte	$b1
	.byte	$b0
	.byte	$b1
	.byte	$b0
	.byte	$b1
	.byte	$b0
	.byte	$b1
	.byte	$b0
	.byte	$b1
	.byte	$b0
	.byte	$b1
	.byte	$b0
	.byte	$b1
	.byte	$b0
	.byte	$b1
	.byte	$b0
	.byte	$b1
	.byte	$b0
	.byte	$b1
	.byte	$b0
	.byte	$b1
	.byte	$b0
	.byte	$b1
	.byte	$b0
	.byte	$b1
	.byte	$b0
	.byte	$b1
	.byte	$b0
	.byte	$b1
	.byte	$b0
	.byte	$b1
	.byte	$b0
	.byte	$b1
	.byte	$b0
	.byte	$b1
	.byte	$b0
	.byte	$b1
	.byte	$b6
	.byte	$b7
	.byte	$b6
	.byte	$b7
	.byte	$b6
	.byte	$b7
	.byte	$b6
	.byte	$b7
	.byte	$b6
	.byte	$b7
	.byte	$b6
	.byte	$b7
	.byte	$b6
	.byte	$b7
	.byte	$b6
	.byte	$b7
	.byte	$b6
	.byte	$b7
	.byte	$b6
	.byte	$b7
	.byte	$b6
	.byte	$b7
	.byte	$b6
	.byte	$b7
	.byte	$b6
	.byte	$b7
	.byte	$b6
	.byte	$b7
	.byte	$b6
	.byte	$b7
	.byte	$b6
	.byte	$b7
	.byte	$b6
	.byte	$b7
	.byte	$b6
	.byte	$b7
	.byte	$b6
	.byte	$b7
	.byte	$b6
	.byte	$b7
	.byte	$b6
	.byte	$b7
	.byte	$b6
	.byte	$b7
	.byte	$b6
	.byte	$b7
	.byte	$b6
	.byte	$b7
	.byte	$b6
	.byte	$b7
	.byte	$b6
	.byte	$b7
	.byte	$b6
	.byte	$b7
	.byte	$b6
	.byte	$b7
	.byte	$b6
	.byte	$b7
	.byte	$b6
	.byte	$b7
	.byte	$b6
	.byte	$b7
	.byte	$b6
	.byte	$b7
	.byte	$a8
	.byte	$a9
	.byte	$df
	.byte	$ce
	.byte	$cf
	.byte	$de
	.byte	$df
	.byte	$ae
	.byte	$af
	.byte	$de
	.byte	$df
	.byte	$ae
	.byte	$af
	.byte	$de
	.byte	$df
	.byte	$ae
	.byte	$af
	.byte	$de
	.byte	$df
	.byte	$ae
	.byte	$af
	.byte	$de
	.byte	$df
	.byte	$ae
	.byte	$af
	.byte	$de
	.byte	$df
	.byte	$ae
	.byte	$af
	.byte	$de
	.byte	$df
	.byte	$ae
	.byte	$af
	.byte	$de
	.byte	$df
	.byte	$ae
	.byte	$af
	.byte	$de
	.byte	$df
	.byte	$ae
	.byte	$af
	.byte	$de
	.byte	$df
	.byte	$ae
	.byte	$af
	.byte	$de
	.byte	$df
	.byte	$ae
	.byte	$af
	.byte	$de
	.byte	$df
	.byte	$ae
	.byte	$af
	.byte	$de
	.byte	$df
	.byte	$ae
	.byte	$af
	.byte	$de
	.byte	$df
	.byte	$ae
	.byte	$af
	.byte	$de
	.byte	$a4
	.byte	$a5
	.byte	$b8
	.byte	$b9
	.byte	$af
	.byte	$de
	.byte	$df
	.byte	$ae
	.byte	$af
	.byte	$be
	.byte	$bf
	.byte	$ae
	.byte	$af
	.byte	$be
	.byte	$bf
	.byte	$ae
	.byte	$af
	.byte	$be
	.byte	$bf
	.byte	$ae
	.byte	$af
	.byte	$be
	.byte	$bf
	.byte	$ae
	.byte	$af
	.byte	$be
	.byte	$bf
	.byte	$ae
	.byte	$af
	.byte	$be
	.byte	$bf
	.byte	$ae
	.byte	$af
	.byte	$be
	.byte	$bf
	.byte	$ae
	.byte	$af
	.byte	$be
	.byte	$bf
	.byte	$ae
	.byte	$af
	.byte	$be
	.byte	$bf
	.byte	$ae
	.byte	$af
	.byte	$be
	.byte	$bf
	.byte	$ae
	.byte	$af
	.byte	$be
	.byte	$bf
	.byte	$ae
	.byte	$af
	.byte	$be
	.byte	$bf
	.byte	$ae
	.byte	$af
	.byte	$be
	.byte	$bf
	.byte	$ae
	.byte	$af
	.byte	$be
	.byte	$bf
	.byte	$ae
	.byte	$b4
	.byte	$b5
	.byte	$a8
	.byte	$a9
	.byte	$ae
	.byte	$af
	.byte	$be
	.byte	$bf
	.byte	$ce
	.byte	$cf
	.byte	$be
	.byte	$bf
	.byte	$ce
	.byte	$cf
	.byte	$be
	.byte	$bf
	.byte	$ce
	.byte	$cf
	.byte	$be
	.byte	$bf
	.byte	$ce
	.byte	$cf
	.byte	$be
	.byte	$bf
	.byte	$ce
	.byte	$cf
	.byte	$be
	.byte	$bf
	.byte	$ce
	.byte	$cf
	.byte	$be
	.byte	$bf
	.byte	$ce
	.byte	$cf
	.byte	$be
	.byte	$bf
	.byte	$ce
	.byte	$cf
	.byte	$be
	.byte	$bf
	.byte	$ce
	.byte	$cf
	.byte	$be
	.byte	$bf
	.byte	$ce
	.byte	$cf
	.byte	$be
	.byte	$bf
	.byte	$ce
	.byte	$cf
	.byte	$be
	.byte	$bf
	.byte	$ce
	.byte	$cf
	.byte	$be
	.byte	$bf
	.byte	$ce
	.byte	$cf
	.byte	$be
	.byte	$bf
	.byte	$ce
	.byte	$cf
	.byte	$be
	.byte	$bf
	.byte	$a4
	.byte	$a5
	.byte	$b8
	.byte	$b9
	.byte	$be
	.byte	$bf
	.byte	$ce
	.byte	$cf
	.byte	$de
	.byte	$df
	.byte	$ce
	.byte	$cf
	.byte	$de
	.byte	$df
	.byte	$ce
	.byte	$cf
	.byte	$de
	.byte	$df
	.byte	$ce
	.byte	$cf
	.byte	$de
	.byte	$df
	.byte	$ce
	.byte	$cf
	.byte	$de
	.byte	$df
	.byte	$ce
	.byte	$cf
	.byte	$de
	.byte	$df
	.byte	$ce
	.byte	$cf
	.byte	$de
	.byte	$df
	.byte	$ce
	.byte	$cf
	.byte	$de
	.byte	$df
	.byte	$ce
	.byte	$cf
	.byte	$de
	.byte	$df
	.byte	$ce
	.byte	$cf
	.byte	$de
	.byte	$df
	.byte	$ce
	.byte	$cf
	.byte	$de
	.byte	$df
	.byte	$ce
	.byte	$cf
	.byte	$de
	.byte	$df
	.byte	$ce
	.byte	$cf
	.byte	$de
	.byte	$df
	.byte	$ce
	.byte	$cf
	.byte	$de
	.byte	$df
	.byte	$ce
	.byte	$cf
	.byte	$b4
	.byte	$b5
	.byte	$a8
	.byte	$a9
	.byte	$df
	.byte	$ce
	.byte	$cf
	.byte	$de
	.byte	$df
	.byte	$ae
	.byte	$af
	.byte	$de
	.byte	$df
	.byte	$ae
	.byte	$af
	.byte	$de
	.byte	$df
	.byte	$ae
	.byte	$af
	.byte	$de
	.byte	$df
	.byte	$ae
	.byte	$af
	.byte	$de
	.byte	$df
	.byte	$ae
	.byte	$af
	.byte	$de
	.byte	$df
	.byte	$ae
	.byte	$af
	.byte	$de
	.byte	$df
	.byte	$ae
	.byte	$af
	.byte	$de
	.byte	$df
	.byte	$ae
	.byte	$af
	.byte	$de
	.byte	$df
	.byte	$ae
	.byte	$af
	.byte	$de
	.byte	$df
	.byte	$ae
	.byte	$af
	.byte	$de
	.byte	$df
	.byte	$ae
	.byte	$af
	.byte	$de
	.byte	$df
	.byte	$ae
	.byte	$af
	.byte	$de
	.byte	$df
	.byte	$ae
	.byte	$af
	.byte	$de
	.byte	$df
	.byte	$ae
	.byte	$af
	.byte	$de
	.byte	$a4
	.byte	$a5
	.byte	$b8
	.byte	$b9
	.byte	$af
	.byte	$de
	.byte	$df
	.byte	$ae
	.byte	$af
	.byte	$be
	.byte	$bf
	.byte	$ae
	.byte	$af
	.byte	$be
	.byte	$bf
	.byte	$ae
	.byte	$af
	.byte	$be
	.byte	$bf
	.byte	$ae
	.byte	$af
	.byte	$be
	.byte	$bf
	.byte	$ae
	.byte	$af
	.byte	$be
	.byte	$bf
	.byte	$ae
	.byte	$af
	.byte	$be
	.byte	$bf
	.byte	$ae
	.byte	$af
	.byte	$be
	.byte	$bf
	.byte	$ae
	.byte	$af
	.byte	$be
	.byte	$bf
	.byte	$ae
	.byte	$af
	.byte	$be
	.byte	$bf
	.byte	$ae
	.byte	$af
	.byte	$be
	.byte	$bf
	.byte	$ae
	.byte	$af
	.byte	$be
	.byte	$bf
	.byte	$ae
	.byte	$af
	.byte	$be
	.byte	$bf
	.byte	$ae
	.byte	$af
	.byte	$be
	.byte	$bf
	.byte	$ae
	.byte	$af
	.byte	$be
	.byte	$bf
	.byte	$ae
	.byte	$b4
	.byte	$b5
	.byte	$a8
	.byte	$a9
	.byte	$ae
	.byte	$af
	.byte	$be
	.byte	$bf
	.byte	$ce
	.byte	$cf
	.byte	$be
	.byte	$bf
	.byte	$ce
	.byte	$cf
	.byte	$be
	.byte	$bf
	.byte	$ce
	.byte	$cf
	.byte	$be
	.byte	$bf
	.byte	$ce
	.byte	$cf
	.byte	$be
	.byte	$bf
	.byte	$ce
	.byte	$cf
	.byte	$be
	.byte	$bf
	.byte	$ce
	.byte	$cf
	.byte	$be
	.byte	$bf
	.byte	$ce
	.byte	$cf
	.byte	$be
	.byte	$bf
	.byte	$ce
	.byte	$cf
	.byte	$be
	.byte	$bf
	.byte	$ce
	.byte	$cf
	.byte	$be
	.byte	$bf
	.byte	$ce
	.byte	$cf
	.byte	$be
	.byte	$bf
	.byte	$ce
	.byte	$cf
	.byte	$be
	.byte	$bf
	.byte	$ce
	.byte	$cf
	.byte	$be
	.byte	$bf
	.byte	$ce
	.byte	$cf
	.byte	$be
	.byte	$bf
	.byte	$ce
	.byte	$cf
	.byte	$be
	.byte	$bf
	.byte	$a4
	.byte	$a5
	.byte	$b8
	.byte	$b9
	.byte	$be
	.byte	$bf
	.byte	$ce
	.byte	$cf
	.byte	$de
	.byte	$df
	.byte	$ce
	.byte	$cf
	.byte	$de
	.byte	$df
	.byte	$ce
	.byte	$cf
	.byte	$de
	.byte	$df
	.byte	$ce
	.byte	$cf
	.byte	$de
	.byte	$df
	.byte	$ce
	.byte	$cf
	.byte	$de
	.byte	$df
	.byte	$ce
	.byte	$cf
	.byte	$de
	.byte	$df
	.byte	$ce
	.byte	$cf
	.byte	$de
	.byte	$df
	.byte	$ce
	.byte	$cf
	.byte	$de
	.byte	$df
	.byte	$ce
	.byte	$cf
	.byte	$de
	.byte	$df
	.byte	$ce
	.byte	$cf
	.byte	$de
	.byte	$df
	.byte	$ce
	.byte	$cf
	.byte	$de
	.byte	$df
	.byte	$ce
	.byte	$cf
	.byte	$de
	.byte	$df
	.byte	$ce
	.byte	$cf
	.byte	$de
	.byte	$df
	.byte	$ce
	.byte	$cf
	.byte	$de
	.byte	$df
	.byte	$ce
	.byte	$cf
	.byte	$b4
	.byte	$b5
	.byte	$a8
	.byte	$a9
	.byte	$df
	.byte	$ce
	.byte	$cf
	.byte	$de
	.byte	$df
	.byte	$ae
	.byte	$af
	.byte	$de
	.byte	$df
	.byte	$ae
	.byte	$af
	.byte	$de
	.byte	$df
	.byte	$ae
	.byte	$af
	.byte	$de
	.byte	$df
	.byte	$ae
	.byte	$af
	.byte	$de
	.byte	$df
	.byte	$ae
	.byte	$af
	.byte	$de
	.byte	$df
	.byte	$ae
	.byte	$af
	.byte	$de
	.byte	$df
	.byte	$ae
	.byte	$af
	.byte	$de
	.byte	$df
	.byte	$ae
	.byte	$af
	.byte	$de
	.byte	$df
	.byte	$ae
	.byte	$af
	.byte	$de
	.byte	$84
	.byte	$85
	.byte	$84
	.byte	$85
	.byte	$84
	.byte	$85
	.byte	$84
	.byte	$85
	.byte	$ae
	.byte	$af
	.byte	$de
	.byte	$df
	.byte	$ae
	.byte	$af
	.byte	$de
	.byte	$df
	.byte	$ae
	.byte	$af
	.byte	$de
	.byte	$df
	.byte	$a4
	.byte	$a5
	.byte	$b8
	.byte	$b9
	.byte	$af
	.byte	$de
	.byte	$df
	.byte	$ae
	.byte	$af
	.byte	$be
	.byte	$bf
	.byte	$ae
	.byte	$af
	.byte	$be
	.byte	$bf
	.byte	$ae
	.byte	$af
	.byte	$be
	.byte	$bf
	.byte	$ae
	.byte	$af
	.byte	$be
	.byte	$bf
	.byte	$ae
	.byte	$af
	.byte	$be
	.byte	$bf
	.byte	$ae
	.byte	$af
	.byte	$be
	.byte	$bf
	.byte	$ae
	.byte	$af
	.byte	$be
	.byte	$bf
	.byte	$ae
	.byte	$af
	.byte	$be
	.byte	$bf
	.byte	$ae
	.byte	$af
	.byte	$be
	.byte	$bf
	.byte	$ae
	.byte	$94
	.byte	$95
	.byte	$94
	.byte	$95
	.byte	$94
	.byte	$95
	.byte	$94
	.byte	$95
	.byte	$be
	.byte	$bf
	.byte	$ae
	.byte	$af
	.byte	$be
	.byte	$bf
	.byte	$ae
	.byte	$af
	.byte	$be
	.byte	$bf
	.byte	$ae
	.byte	$af
	.byte	$b4
	.byte	$b5
	.byte	$a8
	.byte	$a9
	.byte	$ae
	.byte	$af
	.byte	$be
	.byte	$bf
	.byte	$ce
	.byte	$cf
	.byte	$be
	.byte	$bf
	.byte	$ce
	.byte	$cf
	.byte	$be
	.byte	$bf
	.byte	$ce
	.byte	$cf
	.byte	$be
	.byte	$bf
	.byte	$ce
	.byte	$cf
	.byte	$be
	.byte	$bf
	.byte	$ce
	.byte	$cf
	.byte	$be
	.byte	$bf
	.byte	$ce
	.byte	$cf
	.byte	$be
	.byte	$bf
	.byte	$ce
	.byte	$cf
	.byte	$be
	.byte	$bf
	.byte	$ce
	.byte	$cf
	.byte	$be
	.byte	$bf
	.byte	$ce
	.byte	$cf
	.byte	$be
	.byte	$bf
	.byte	$ae
	.byte	$af
	.byte	$de
	.byte	$df
	.byte	$ae
	.byte	$af
	.byte	$de
	.byte	$df
	.byte	$ce
	.byte	$cf
	.byte	$be
	.byte	$bf
	.byte	$ce
	.byte	$cf
	.byte	$be
	.byte	$bf
	.byte	$ce
	.byte	$cf
	.byte	$be
	.byte	$bf
	.byte	$a4
	.byte	$a5
	.byte	$b8
	.byte	$b9
	.byte	$be
	.byte	$bf
	.byte	$ae
	.byte	$af
	.byte	$de
	.byte	$df
	.byte	$ce
	.byte	$cf
	.byte	$de
	.byte	$df
	.byte	$ce
	.byte	$cf
	.byte	$de
	.byte	$df
	.byte	$ce
	.byte	$cf
	.byte	$de
	.byte	$df
	.byte	$ce
	.byte	$cf
	.byte	$de
	.byte	$df
	.byte	$ce
	.byte	$cf
	.byte	$de
	.byte	$df
	.byte	$ce
	.byte	$cf
	.byte	$de
	.byte	$df
	.byte	$ce
	.byte	$cf
	.byte	$de
	.byte	$df
	.byte	$ce
	.byte	$cf
	.byte	$de
	.byte	$df
	.byte	$ce
	.byte	$cf
	.byte	$be
	.byte	$bf
	.byte	$ae
	.byte	$af
	.byte	$be
	.byte	$bf
	.byte	$ae
	.byte	$af
	.byte	$de
	.byte	$df
	.byte	$ce
	.byte	$cf
	.byte	$de
	.byte	$df
	.byte	$ce
	.byte	$cf
	.byte	$de
	.byte	$df
	.byte	$ce
	.byte	$cf
	.byte	$b4
	.byte	$b5
	.byte	$a8
	.byte	$a9
	.byte	$ce
	.byte	$cf
	.byte	$84
	.byte	$85
	.byte	$84
	.byte	$85
	.byte	$84
	.byte	$85
	.byte	$84
	.byte	$85
	.byte	$de
	.byte	$df
	.byte	$ae
	.byte	$af
	.byte	$de
	.byte	$df
	.byte	$ae
	.byte	$af
	.byte	$de
	.byte	$df
	.byte	$ae
	.byte	$af
	.byte	$de
	.byte	$df
	.byte	$ae
	.byte	$af
	.byte	$de
	.byte	$df
	.byte	$84
	.byte	$85
	.byte	$84
	.byte	$85
	.byte	$84
	.byte	$85
	.byte	$84
	.byte	$85
	.byte	$ae
	.byte	$af
	.byte	$de
	.byte	$df
	.byte	$ce
	.byte	$cf
	.byte	$be
	.byte	$bf
	.byte	$ce
	.byte	$cf
	.byte	$be
	.byte	$bf
	.byte	$ae
	.byte	$af
	.byte	$de
	.byte	$df
	.byte	$ae
	.byte	$af
	.byte	$de
	.byte	$df
	.byte	$ae
	.byte	$af
	.byte	$de
	.byte	$df
	.byte	$a4
	.byte	$a5
	.byte	$b8
	.byte	$b9
	.byte	$de
	.byte	$df
	.byte	$94
	.byte	$95
	.byte	$94
	.byte	$95
	.byte	$94
	.byte	$95
	.byte	$94
	.byte	$95
	.byte	$ae
	.byte	$af
	.byte	$be
	.byte	$bf
	.byte	$ae
	.byte	$af
	.byte	$be
	.byte	$bf
	.byte	$ae
	.byte	$af
	.byte	$be
	.byte	$bf
	.byte	$ae
	.byte	$af
	.byte	$be
	.byte	$bf
	.byte	$ae
	.byte	$af
	.byte	$94
	.byte	$95
	.byte	$94
	.byte	$95
	.byte	$94
	.byte	$95
	.byte	$94
	.byte	$95
	.byte	$be
	.byte	$bf
	.byte	$ae
	.byte	$af
	.byte	$de
	.byte	$df
	.byte	$ce
	.byte	$cf
	.byte	$de
	.byte	$df
	.byte	$ce
	.byte	$cf
	.byte	$be
	.byte	$bf
	.byte	$ae
	.byte	$af
	.byte	$be
	.byte	$bf
	.byte	$ae
	.byte	$af
	.byte	$be
	.byte	$bf
	.byte	$ae
	.byte	$af
	.byte	$b4
	.byte	$b5
	.byte	$a8
	.byte	$a9
	.byte	$ae
	.byte	$af
	.byte	$de
	.byte	$df
	.byte	$ae
	.byte	$af
	.byte	$de
	.byte	$df
	.byte	$ae
	.byte	$af
	.byte	$be
	.byte	$bf
	.byte	$ce
	.byte	$cf
	.byte	$be
	.byte	$bf
	.byte	$ce
	.byte	$cf
	.byte	$be
	.byte	$bf
	.byte	$ce
	.byte	$cf
	.byte	$be
	.byte	$bf
	.byte	$ce
	.byte	$cf
	.byte	$be
	.byte	$bf
	.byte	$ae
	.byte	$af
	.byte	$de
	.byte	$df
	.byte	$ae
	.byte	$af
	.byte	$de
	.byte	$df
	.byte	$ce
	.byte	$cf
	.byte	$be
	.byte	$bf
	.byte	$ae
	.byte	$af
	.byte	$de
	.byte	$df
	.byte	$ae
	.byte	$af
	.byte	$de
	.byte	$df
	.byte	$ce
	.byte	$cf
	.byte	$be
	.byte	$bf
	.byte	$ce
	.byte	$cf
	.byte	$04
	.byte	$05
	.byte	$ce
	.byte	$cf
	.byte	$be
	.byte	$bf
	.byte	$a4
	.byte	$a5
	.byte	$b8
	.byte	$b9
	.byte	$be
	.byte	$bf
	.byte	$ae
	.byte	$af
	.byte	$be
	.byte	$bf
	.byte	$ae
	.byte	$af
	.byte	$be
	.byte	$bf
	.byte	$ce
	.byte	$cf
	.byte	$de
	.byte	$df
	.byte	$ce
	.byte	$cf
	.byte	$de
	.byte	$df
	.byte	$ce
	.byte	$cf
	.byte	$de
	.byte	$df
	.byte	$ce
	.byte	$cf
	.byte	$de
	.byte	$df
	.byte	$ce
	.byte	$cf
	.byte	$be
	.byte	$bf
	.byte	$ae
	.byte	$af
	.byte	$be
	.byte	$bf
	.byte	$ae
	.byte	$af
	.byte	$de
	.byte	$df
	.byte	$ce
	.byte	$cf
	.byte	$be
	.byte	$bf
	.byte	$ae
	.byte	$af
	.byte	$be
	.byte	$bf
	.byte	$ae
	.byte	$af
	.byte	$de
	.byte	$df
	.byte	$ce
	.byte	$cf
	.byte	$de
	.byte	$df
	.byte	$14
	.byte	$15
	.byte	$de
	.byte	$df
	.byte	$ce
	.byte	$cf
	.byte	$b4
	.byte	$b5
	.byte	$a8
	.byte	$a9
	.byte	$ce
	.byte	$cf
	.byte	$be
	.byte	$bf
	.byte	$ce
	.byte	$cf
	.byte	$be
	.byte	$bf
	.byte	$ce
	.byte	$cf
	.byte	$de
	.byte	$df
	.byte	$ae
	.byte	$af
	.byte	$de
	.byte	$df
	.byte	$ae
	.byte	$af
	.byte	$84
	.byte	$85
	.byte	$84
	.byte	$85
	.byte	$84
	.byte	$85
	.byte	$84
	.byte	$85
	.byte	$de
	.byte	$df
	.byte	$ce
	.byte	$cf
	.byte	$be
	.byte	$bf
	.byte	$ce
	.byte	$cf
	.byte	$be
	.byte	$bf
	.byte	$ae
	.byte	$af
	.byte	$de
	.byte	$df
	.byte	$ce
	.byte	$cf
	.byte	$be
	.byte	$bf
	.byte	$ce
	.byte	$cf
	.byte	$be
	.byte	$bf
	.byte	$ae
	.byte	$af
	.byte	$84
	.byte	$85
	.byte	$84
	.byte	$85
	.byte	$84
	.byte	$85
	.byte	$84
	.byte	$85
	.byte	$de
	.byte	$df
	.byte	$a4
	.byte	$a5
	.byte	$b8
	.byte	$b9
	.byte	$de
	.byte	$df
	.byte	$ce
	.byte	$cf
	.byte	$de
	.byte	$df
	.byte	$ce
	.byte	$cf
	.byte	$de
	.byte	$df
	.byte	$ae
	.byte	$af
	.byte	$be
	.byte	$ae
	.byte	$ae
	.byte	$af
	.byte	$be
	.byte	$bf
	.byte	$94
	.byte	$95
	.byte	$94
	.byte	$95
	.byte	$94
	.byte	$95
	.byte	$94
	.byte	$95
	.byte	$ae
	.byte	$af
	.byte	$de
	.byte	$df
	.byte	$ce
	.byte	$cf
	.byte	$de
	.byte	$df
	.byte	$ce
	.byte	$cf
	.byte	$be
	.byte	$bf
	.byte	$ae
	.byte	$af
	.byte	$de
	.byte	$df
	.byte	$ce
	.byte	$cf
	.byte	$de
	.byte	$df
	.byte	$ce
	.byte	$cf
	.byte	$be
	.byte	$bf
	.byte	$94
	.byte	$95
	.byte	$94
	.byte	$95
	.byte	$94
	.byte	$95
	.byte	$94
	.byte	$95
	.byte	$ae
	.byte	$af
	.byte	$b4
	.byte	$b5
	.byte	$a8
	.byte	$a9
	.byte	$af
	.byte	$de
	.byte	$df
	.byte	$ae
	.byte	$af
	.byte	$de
	.byte	$df
	.byte	$ae
	.byte	$af
	.byte	$be
	.byte	$bf
	.byte	$ce
	.byte	$be
	.byte	$be
	.byte	$bf
	.byte	$ce
	.byte	$cf
	.byte	$de
	.byte	$df
	.byte	$ae
	.byte	$af
	.byte	$de
	.byte	$df
	.byte	$ae
	.byte	$af
	.byte	$be
	.byte	$bf
	.byte	$ae
	.byte	$af
	.byte	$de
	.byte	$df
	.byte	$ae
	.byte	$af
	.byte	$de
	.byte	$df
	.byte	$ce
	.byte	$cf
	.byte	$be
	.byte	$bf
	.byte	$ae
	.byte	$af
	.byte	$de
	.byte	$df
	.byte	$ae
	.byte	$af
	.byte	$de
	.byte	$df
	.byte	$ce
	.byte	$cf
	.byte	$de
	.byte	$df
	.byte	$ae
	.byte	$af
	.byte	$de
	.byte	$df
	.byte	$ae
	.byte	$af
	.byte	$be
	.byte	$bf
	.byte	$ae
	.byte	$a4
	.byte	$a5
	.byte	$b8
	.byte	$b9
	.byte	$bf
	.byte	$ae
	.byte	$af
	.byte	$be
	.byte	$bf
	.byte	$ae
	.byte	$af
	.byte	$be
	.byte	$bf
	.byte	$ce
	.byte	$cf
	.byte	$de
	.byte	$ce
	.byte	$ce
	.byte	$cf
	.byte	$de
	.byte	$df
	.byte	$ae
	.byte	$af
	.byte	$be
	.byte	$bf
	.byte	$ae
	.byte	$af
	.byte	$be
	.byte	$bf
	.byte	$ce
	.byte	$cf
	.byte	$be
	.byte	$bf
	.byte	$ae
	.byte	$af
	.byte	$be
	.byte	$bf
	.byte	$ae
	.byte	$af
	.byte	$de
	.byte	$df
	.byte	$ce
	.byte	$cf
	.byte	$be
	.byte	$bf
	.byte	$ae
	.byte	$af
	.byte	$be
	.byte	$bf
	.byte	$ae
	.byte	$af
	.byte	$de
	.byte	$df
	.byte	$ae
	.byte	$af
	.byte	$be
	.byte	$bf
	.byte	$ae
	.byte	$af
	.byte	$be
	.byte	$bf
	.byte	$ce
	.byte	$cf
	.byte	$be
	.byte	$b4
	.byte	$b5
	.byte	$a8
	.byte	$a9
	.byte	$ce
	.byte	$cf
	.byte	$be
	.byte	$bf
	.byte	$ce
	.byte	$cf
	.byte	$be
	.byte	$bf
	.byte	$84
	.byte	$85
	.byte	$84
	.byte	$85
	.byte	$84
	.byte	$85
	.byte	$84
	.byte	$85
	.byte	$ae
	.byte	$af
	.byte	$be
	.byte	$bf
	.byte	$ce
	.byte	$cf
	.byte	$be
	.byte	$bf
	.byte	$ce
	.byte	$cf
	.byte	$de
	.byte	$df
	.byte	$ce
	.byte	$cf
	.byte	$be
	.byte	$bf
	.byte	$ce
	.byte	$cf
	.byte	$be
	.byte	$bf
	.byte	$ae
	.byte	$af
	.byte	$de
	.byte	$df
	.byte	$84
	.byte	$85
	.byte	$84
	.byte	$85
	.byte	$84
	.byte	$85
	.byte	$84
	.byte	$85
	.byte	$ae
	.byte	$af
	.byte	$be
	.byte	$bf
	.byte	$ce
	.byte	$cf
	.byte	$be
	.byte	$bf
	.byte	$ce
	.byte	$cf
	.byte	$de
	.byte	$df
	.byte	$a4
	.byte	$a5
	.byte	$b8
	.byte	$b9
	.byte	$de
	.byte	$df
	.byte	$ce
	.byte	$cf
	.byte	$de
	.byte	$df
	.byte	$ce
	.byte	$cf
	.byte	$94
	.byte	$95
	.byte	$94
	.byte	$95
	.byte	$94
	.byte	$95
	.byte	$94
	.byte	$95
	.byte	$be
	.byte	$bf
	.byte	$ce
	.byte	$cf
	.byte	$de
	.byte	$df
	.byte	$ce
	.byte	$cf
	.byte	$de
	.byte	$df
	.byte	$ae
	.byte	$af
	.byte	$de
	.byte	$df
	.byte	$ce
	.byte	$cf
	.byte	$de
	.byte	$df
	.byte	$ce
	.byte	$cf
	.byte	$be
	.byte	$bf
	.byte	$ae
	.byte	$af
	.byte	$94
	.byte	$95
	.byte	$94
	.byte	$95
	.byte	$94
	.byte	$95
	.byte	$94
	.byte	$95
	.byte	$be
	.byte	$bf
	.byte	$ce
	.byte	$cf
	.byte	$de
	.byte	$df
	.byte	$ce
	.byte	$cf
	.byte	$de
	.byte	$df
	.byte	$ae
	.byte	$af
	.byte	$b4
	.byte	$b5
	.byte	$a8
	.byte	$a9
	.byte	$ae
	.byte	$af
	.byte	$de
	.byte	$df
	.byte	$ae
	.byte	$af
	.byte	$de
	.byte	$df
	.byte	$ae
	.byte	$af
	.byte	$be
	.byte	$bf
	.byte	$ae
	.byte	$af
	.byte	$be
	.byte	$bf
	.byte	$ce
	.byte	$cf
	.byte	$de
	.byte	$df
	.byte	$ae
	.byte	$af
	.byte	$de
	.byte	$df
	.byte	$ae
	.byte	$af
	.byte	$be
	.byte	$bf
	.byte	$ae
	.byte	$af
	.byte	$de
	.byte	$df
	.byte	$ae
	.byte	$af
	.byte	$de
	.byte	$df
	.byte	$ce
	.byte	$cf
	.byte	$be
	.byte	$bf
	.byte	$ae
	.byte	$af
	.byte	$be
	.byte	$bf
	.byte	$ae
	.byte	$af
	.byte	$be
	.byte	$bf
	.byte	$ce
	.byte	$cf
	.byte	$de
	.byte	$df
	.byte	$ae
	.byte	$af
	.byte	$de
	.byte	$df
	.byte	$ae
	.byte	$af
	.byte	$be
	.byte	$bf
	.byte	$a4
	.byte	$a5
	.byte	$b8
	.byte	$b9
	.byte	$be
	.byte	$bf
	.byte	$ae
	.byte	$af
	.byte	$be
	.byte	$bf
	.byte	$ae
	.byte	$af
	.byte	$be
	.byte	$bf
	.byte	$ce
	.byte	$cf
	.byte	$be
	.byte	$bf
	.byte	$ce
	.byte	$cf
	.byte	$de
	.byte	$df
	.byte	$ae
	.byte	$af
	.byte	$be
	.byte	$bf
	.byte	$ae
	.byte	$af
	.byte	$be
	.byte	$bf
	.byte	$ce
	.byte	$cf
	.byte	$be
	.byte	$bf
	.byte	$ae
	.byte	$af
	.byte	$be
	.byte	$bf
	.byte	$ae
	.byte	$af
	.byte	$de
	.byte	$df
	.byte	$ce
	.byte	$cf
	.byte	$be
	.byte	$bf
	.byte	$ce
	.byte	$cf
	.byte	$be
	.byte	$bf
	.byte	$ce
	.byte	$cf
	.byte	$de
	.byte	$df
	.byte	$ae
	.byte	$af
	.byte	$be
	.byte	$bf
	.byte	$ae
	.byte	$af
	.byte	$be
	.byte	$bf
	.byte	$ce
	.byte	$cf
	.byte	$b4
	.byte	$b5
	.byte	$a8
	.byte	$a9
	.byte	$cf
	.byte	$be
	.byte	$bf
	.byte	$ce
	.byte	$cf
	.byte	$be
	.byte	$bf
	.byte	$ce
	.byte	$cf
	.byte	$de
	.byte	$df
	.byte	$ce
	.byte	$cf
	.byte	$de
	.byte	$df
	.byte	$ae
	.byte	$af
	.byte	$be
	.byte	$bf
	.byte	$ce
	.byte	$cf
	.byte	$be
	.byte	$bf
	.byte	$ce
	.byte	$cf
	.byte	$de
	.byte	$df
	.byte	$ce
	.byte	$cf
	.byte	$be
	.byte	$bf
	.byte	$ce
	.byte	$cf
	.byte	$be
	.byte	$bf
	.byte	$ae
	.byte	$af
	.byte	$de
	.byte	$df
	.byte	$ce
	.byte	$cf
	.byte	$de
	.byte	$df
	.byte	$ce
	.byte	$cf
	.byte	$de
	.byte	$df
	.byte	$ae
	.byte	$af
	.byte	$be
	.byte	$bf
	.byte	$ce
	.byte	$cf
	.byte	$be
	.byte	$bf
	.byte	$ce
	.byte	$cf
	.byte	$de
	.byte	$df
	.byte	$ce
	.byte	$a4
	.byte	$a5
	.byte	$b8
	.byte	$b9
	.byte	$df
	.byte	$ce
	.byte	$cf
	.byte	$de
	.byte	$df
	.byte	$ce
	.byte	$cf
	.byte	$de
	.byte	$df
	.byte	$ae
	.byte	$af
	.byte	$de
	.byte	$df
	.byte	$ae
	.byte	$af
	.byte	$be
	.byte	$bf
	.byte	$ce
	.byte	$cf
	.byte	$de
	.byte	$df
	.byte	$ce
	.byte	$cf
	.byte	$de
	.byte	$df
	.byte	$ae
	.byte	$af
	.byte	$de
	.byte	$df
	.byte	$ce
	.byte	$cf
	.byte	$de
	.byte	$df
	.byte	$ce
	.byte	$cf
	.byte	$be
	.byte	$bf
	.byte	$ae
	.byte	$af
	.byte	$de
	.byte	$df
	.byte	$ae
	.byte	$af
	.byte	$de
	.byte	$df
	.byte	$ae
	.byte	$af
	.byte	$be
	.byte	$bf
	.byte	$ce
	.byte	$cf
	.byte	$de
	.byte	$df
	.byte	$ce
	.byte	$cf
	.byte	$de
	.byte	$df
	.byte	$ae
	.byte	$af
	.byte	$de
	.byte	$b4
	.byte	$b5
	.byte	$10
	.byte	$11
	.byte	$10
	.byte	$11
	.byte	$10
	.byte	$11
	.byte	$10
	.byte	$11
	.byte	$10
	.byte	$11
	.byte	$10
	.byte	$11
	.byte	$10
	.byte	$11
	.byte	$10
	.byte	$11
	.byte	$10
	.byte	$11
	.byte	$10
	.byte	$11
	.byte	$10
	.byte	$11
	.byte	$10
	.byte	$11
	.byte	$10
	.byte	$11
	.byte	$10
	.byte	$11
	.byte	$10
	.byte	$11
	.byte	$10
	.byte	$11
	.byte	$10
	.byte	$11
	.byte	$10
	.byte	$11
	.byte	$10
	.byte	$11
	.byte	$10
	.byte	$11
	.byte	$10
	.byte	$11
	.byte	$10
	.byte	$11
	.byte	$10
	.byte	$11
	.byte	$10
	.byte	$11
	.byte	$10
	.byte	$11
	.byte	$10
	.byte	$11
	.byte	$10
	.byte	$11
	.byte	$10
	.byte	$11
	.byte	$10
	.byte	$11
	.byte	$10
	.byte	$11
	.byte	$10
	.byte	$11
	.byte	$10
	.byte	$11
	.byte	$b0
	.byte	$b1
	.byte	$b0
	.byte	$b1
	.byte	$b0
	.byte	$b1
	.byte	$b0
	.byte	$b1
	.byte	$b0
	.byte	$b1
	.byte	$b0
	.byte	$b1
	.byte	$b0
	.byte	$b1
	.byte	$b0
	.byte	$b1
	.byte	$b0
	.byte	$b1
	.byte	$b0
	.byte	$b1
	.byte	$b0
	.byte	$b1
	.byte	$b0
	.byte	$b1
	.byte	$b0
	.byte	$b1
	.byte	$b0
	.byte	$b1
	.byte	$b0
	.byte	$b1
	.byte	$b0
	.byte	$b1
	.byte	$b0
	.byte	$b1
	.byte	$b0
	.byte	$b1
	.byte	$b0
	.byte	$b1
	.byte	$b0
	.byte	$b1
	.byte	$b0
	.byte	$b1
	.byte	$b0
	.byte	$b1
	.byte	$b0
	.byte	$b1
	.byte	$b0
	.byte	$b1
	.byte	$b0
	.byte	$b1
	.byte	$b0
	.byte	$b1
	.byte	$b0
	.byte	$b1
	.byte	$b0
	.byte	$b1
	.byte	$b0
	.byte	$b1
	.byte	$b0
	.byte	$b1
	.byte	$b0
	.byte	$b1
	.byte	$b0
	.byte	$b1
	.byte	$d5
	.byte	$f5
	.byte	$f5
	.byte	$f5
	.byte	$f5
	.byte	$f5
	.byte	$f5
	.byte	$f5
	.byte	$f5
	.byte	$f5
	.byte	$f5
	.byte	$f5
	.byte	$f5
	.byte	$f5
	.byte	$f5
	.byte	$75
	.byte	$dd
	.byte	$ff
	.byte	$ff
	.byte	$ff
	.byte	$ff
	.byte	$ff
	.byte	$ff
	.byte	$ff
	.byte	$ff
	.byte	$ff
	.byte	$ff
	.byte	$ff
	.byte	$ff
	.byte	$ff
	.byte	$ff
	.byte	$77
	.byte	$dd
	.byte	$ff
	.byte	$ff
	.byte	$ff
	.byte	$ff
	.byte	$ff
	.byte	$ff
	.byte	$ff
	.byte	$ff
	.byte	$ff
	.byte	$7f
	.byte	$5f
	.byte	$df
	.byte	$ff
	.byte	$ff
	.byte	$77
	.byte	$dd
	.byte	$5f
	.byte	$5f
	.byte	$ff
	.byte	$ff
	.byte	$ff
	.byte	$ff
	.byte	$7f
	.byte	$5f
	.byte	$df
	.byte	$ff
	.byte	$ff
	.byte	$ff
	.byte	$ff
	.byte	$ff
	.byte	$77
	.byte	$dd
	.byte	$ff
	.byte	$ff
	.byte	$ff
	.byte	$ff
	.byte	$5f
	.byte	$5f
	.byte	$ff
	.byte	$ff
	.byte	$ff
	.byte	$ff
	.byte	$ff
	.byte	$ff
	.byte	$5f
	.byte	$5e
	.byte	$77
	.byte	$dd
	.byte	$ff
	.byte	$7f
	.byte	$5f
	.byte	$df
	.byte	$ff
	.byte	$ff
	.byte	$ff
	.byte	$ff
	.byte	$ff
	.byte	$7f
	.byte	$5f
	.byte	$df
	.byte	$ff
	.byte	$ff
	.byte	$77
	.byte	$dd
	.byte	$ff
	.byte	$ff
	.byte	$ff
	.byte	$ff
	.byte	$ff
	.byte	$ff
	.byte	$ff
	.byte	$ff
	.byte	$ff
	.byte	$ff
	.byte	$ff
	.byte	$ff
	.byte	$ff
	.byte	$ff
	.byte	$77
	.byte	$05
	.byte	$05
	.byte	$05
	.byte	$05
	.byte	$05
	.byte	$05
	.byte	$05
	.byte	$05
	.byte	$05
	.byte	$05
	.byte	$05
	.byte	$05
	.byte	$05
	.byte	$05
	.byte	$05
	.byte	$05
_Level3Data:
	.byte	$a6
	.byte	$a7
	.byte	$a6
	.byte	$a7
	.byte	$a6
	.byte	$a7
	.byte	$a6
	.byte	$a7
	.byte	$a6
	.byte	$a7
	.byte	$a6
	.byte	$a7
	.byte	$a6
	.byte	$a7
	.byte	$a6
	.byte	$a7
	.byte	$a6
	.byte	$a7
	.byte	$a6
	.byte	$a7
	.byte	$a6
	.byte	$a7
	.byte	$a6
	.byte	$a7
	.byte	$a6
	.byte	$a7
	.byte	$a6
	.byte	$a7
	.byte	$a6
	.byte	$a7
	.byte	$a6
	.byte	$a7
	.byte	$a6
	.byte	$a7
	.byte	$a6
	.byte	$a7
	.byte	$a6
	.byte	$a7
	.byte	$a6
	.byte	$a7
	.byte	$a6
	.byte	$a7
	.byte	$a6
	.byte	$a7
	.byte	$a6
	.byte	$a7
	.byte	$a6
	.byte	$a7
	.byte	$a6
	.byte	$a7
	.byte	$a6
	.byte	$a7
	.byte	$a6
	.byte	$a7
	.byte	$a6
	.byte	$a7
	.byte	$a6
	.byte	$a7
	.byte	$a6
	.byte	$a7
	.byte	$a6
	.byte	$a7
	.byte	$a6
	.byte	$a7
	.byte	$b4
	.byte	$b5
	.byte	$b4
	.byte	$b4
	.byte	$b4
	.byte	$b5
	.byte	$b4
	.byte	$b9
	.byte	$b4
	.byte	$b5
	.byte	$b4
	.byte	$b5
	.byte	$b4
	.byte	$b5
	.byte	$b4
	.byte	$b9
	.byte	$b4
	.byte	$b8
	.byte	$b9
	.byte	$b5
	.byte	$b4
	.byte	$b5
	.byte	$b8
	.byte	$b9
	.byte	$b4
	.byte	$b5
	.byte	$b4
	.byte	$b5
	.byte	$b4
	.byte	$b9
	.byte	$b4
	.byte	$b5
	.byte	$b4
	.byte	$b5
	.byte	$b4
	.byte	$b5
	.byte	$b4
	.byte	$b5
	.byte	$b4
	.byte	$b4
	.byte	$b4
	.byte	$b5
	.byte	$b4
	.byte	$b5
	.byte	$b4
	.byte	$b9
	.byte	$b4
	.byte	$b5
	.byte	$b4
	.byte	$b5
	.byte	$b4
	.byte	$b5
	.byte	$b4
	.byte	$b9
	.byte	$b4
	.byte	$b5
	.byte	$b4
	.byte	$b8
	.byte	$b9
	.byte	$b5
	.byte	$b4
	.byte	$b5
	.byte	$b8
	.byte	$b9
	.byte	$10
	.byte	$11
	.byte	$a3
	.byte	$a2
	.byte	$a3
	.byte	$a2
	.byte	$a3
	.byte	$a2
	.byte	$a3
	.byte	$a2
	.byte	$a3
	.byte	$a2
	.byte	$a3
	.byte	$a2
	.byte	$a3
	.byte	$a2
	.byte	$a3
	.byte	$a2
	.byte	$a3
	.byte	$a2
	.byte	$a3
	.byte	$a2
	.byte	$a3
	.byte	$a2
	.byte	$a3
	.byte	$a2
	.byte	$a3
	.byte	$a2
	.byte	$a3
	.byte	$a2
	.byte	$a3
	.byte	$a2
	.byte	$a3
	.byte	$a2
	.byte	$a3
	.byte	$a2
	.byte	$a3
	.byte	$a2
	.byte	$a3
	.byte	$a2
	.byte	$a3
	.byte	$a2
	.byte	$a3
	.byte	$a2
	.byte	$a3
	.byte	$a2
	.byte	$a3
	.byte	$a2
	.byte	$a3
	.byte	$a2
	.byte	$a3
	.byte	$a2
	.byte	$a3
	.byte	$a2
	.byte	$a3
	.byte	$a2
	.byte	$a3
	.byte	$a2
	.byte	$a3
	.byte	$a2
	.byte	$a3
	.byte	$a2
	.byte	$10
	.byte	$11
	.byte	$b6
	.byte	$b7
	.byte	$b2
	.byte	$b3
	.byte	$b2
	.byte	$b3
	.byte	$b2
	.byte	$b3
	.byte	$b2
	.byte	$b3
	.byte	$b2
	.byte	$b3
	.byte	$b2
	.byte	$b3
	.byte	$b2
	.byte	$b3
	.byte	$b2
	.byte	$b3
	.byte	$b2
	.byte	$b3
	.byte	$b2
	.byte	$b3
	.byte	$b2
	.byte	$b3
	.byte	$b2
	.byte	$b3
	.byte	$b2
	.byte	$b3
	.byte	$b2
	.byte	$b3
	.byte	$b2
	.byte	$b3
	.byte	$b2
	.byte	$b3
	.byte	$b2
	.byte	$b3
	.byte	$b2
	.byte	$b3
	.byte	$b2
	.byte	$b3
	.byte	$b2
	.byte	$b3
	.byte	$b2
	.byte	$b3
	.byte	$b2
	.byte	$b3
	.byte	$b2
	.byte	$b3
	.byte	$b2
	.byte	$b3
	.byte	$b2
	.byte	$b3
	.byte	$b2
	.byte	$b3
	.byte	$b2
	.byte	$b3
	.byte	$b2
	.byte	$b3
	.byte	$b2
	.byte	$b3
	.byte	$b2
	.byte	$b3
	.byte	$b6
	.byte	$b7
	.byte	$10
	.byte	$11
	.byte	$a3
	.byte	$a2
	.byte	$a3
	.byte	$a2
	.byte	$a3
	.byte	$a2
	.byte	$a3
	.byte	$a2
	.byte	$a3
	.byte	$a2
	.byte	$a3
	.byte	$a2
	.byte	$a3
	.byte	$a2
	.byte	$a3
	.byte	$a2
	.byte	$a3
	.byte	$a2
	.byte	$a3
	.byte	$a2
	.byte	$a3
	.byte	$a2
	.byte	$a3
	.byte	$a2
	.byte	$a3
	.byte	$a2
	.byte	$a3
	.byte	$a2
	.byte	$a3
	.byte	$a2
	.byte	$a3
	.byte	$a2
	.byte	$a3
	.byte	$a2
	.byte	$a3
	.byte	$a2
	.byte	$a3
	.byte	$a2
	.byte	$a3
	.byte	$a2
	.byte	$a3
	.byte	$a2
	.byte	$a3
	.byte	$a2
	.byte	$a3
	.byte	$a2
	.byte	$a3
	.byte	$a2
	.byte	$a3
	.byte	$a2
	.byte	$a3
	.byte	$a2
	.byte	$a3
	.byte	$a2
	.byte	$a3
	.byte	$a2
	.byte	$04
	.byte	$05
	.byte	$a3
	.byte	$a2
	.byte	$10
	.byte	$11
	.byte	$b6
	.byte	$b7
	.byte	$b2
	.byte	$b3
	.byte	$b2
	.byte	$b3
	.byte	$b2
	.byte	$b3
	.byte	$b2
	.byte	$b3
	.byte	$b2
	.byte	$b3
	.byte	$b2
	.byte	$b3
	.byte	$b2
	.byte	$b3
	.byte	$b2
	.byte	$b3
	.byte	$b2
	.byte	$b3
	.byte	$b2
	.byte	$b3
	.byte	$b2
	.byte	$b3
	.byte	$b2
	.byte	$b3
	.byte	$b2
	.byte	$b3
	.byte	$b2
	.byte	$b3
	.byte	$b2
	.byte	$b3
	.byte	$b2
	.byte	$b3
	.byte	$b2
	.byte	$b3
	.byte	$b2
	.byte	$b3
	.byte	$b2
	.byte	$b3
	.byte	$b2
	.byte	$b3
	.byte	$b2
	.byte	$b3
	.byte	$b2
	.byte	$b3
	.byte	$b2
	.byte	$b3
	.byte	$b2
	.byte	$b3
	.byte	$b2
	.byte	$b3
	.byte	$b2
	.byte	$b3
	.byte	$b2
	.byte	$b3
	.byte	$b2
	.byte	$b3
	.byte	$14
	.byte	$15
	.byte	$b2
	.byte	$b3
	.byte	$b6
	.byte	$b7
	.byte	$10
	.byte	$11
	.byte	$a3
	.byte	$a2
	.byte	$a3
	.byte	$a2
	.byte	$a3
	.byte	$a2
	.byte	$a3
	.byte	$a2
	.byte	$a3
	.byte	$a2
	.byte	$a3
	.byte	$a2
	.byte	$a3
	.byte	$a2
	.byte	$a3
	.byte	$a2
	.byte	$a3
	.byte	$a2
	.byte	$a3
	.byte	$a2
	.byte	$a3
	.byte	$a2
	.byte	$a3
	.byte	$a2
	.byte	$a3
	.byte	$a2
	.byte	$84
	.byte	$85
	.byte	$84
	.byte	$85
	.byte	$84
	.byte	$85
	.byte	$84
	.byte	$85
	.byte	$a3
	.byte	$a2
	.byte	$a3
	.byte	$a2
	.byte	$a3
	.byte	$a2
	.byte	$a3
	.byte	$a2
	.byte	$a3
	.byte	$a2
	.byte	$a3
	.byte	$a2
	.byte	$a3
	.byte	$a2
	.byte	$a3
	.byte	$a2
	.byte	$84
	.byte	$85
	.byte	$84
	.byte	$85
	.byte	$84
	.byte	$85
	.byte	$84
	.byte	$85
	.byte	$a3
	.byte	$a2
	.byte	$10
	.byte	$11
	.byte	$b6
	.byte	$b7
	.byte	$b2
	.byte	$b3
	.byte	$b2
	.byte	$b3
	.byte	$b2
	.byte	$b3
	.byte	$b2
	.byte	$b3
	.byte	$b2
	.byte	$b3
	.byte	$b2
	.byte	$b3
	.byte	$b2
	.byte	$b3
	.byte	$b2
	.byte	$b3
	.byte	$b2
	.byte	$b3
	.byte	$b2
	.byte	$b3
	.byte	$b2
	.byte	$b3
	.byte	$b2
	.byte	$b3
	.byte	$b2
	.byte	$b3
	.byte	$94
	.byte	$95
	.byte	$94
	.byte	$95
	.byte	$94
	.byte	$95
	.byte	$94
	.byte	$95
	.byte	$b2
	.byte	$b3
	.byte	$b2
	.byte	$b3
	.byte	$b2
	.byte	$b3
	.byte	$b2
	.byte	$b3
	.byte	$b2
	.byte	$b3
	.byte	$b2
	.byte	$b3
	.byte	$b2
	.byte	$b3
	.byte	$b2
	.byte	$b3
	.byte	$94
	.byte	$95
	.byte	$94
	.byte	$95
	.byte	$94
	.byte	$95
	.byte	$94
	.byte	$95
	.byte	$b2
	.byte	$b3
	.byte	$b6
	.byte	$b7
	.byte	$10
	.byte	$11
	.byte	$a3
	.byte	$a2
	.byte	$a3
	.byte	$a2
	.byte	$a3
	.byte	$a2
	.byte	$a3
	.byte	$a2
	.byte	$a3
	.byte	$a2
	.byte	$a3
	.byte	$a2
	.byte	$a3
	.byte	$a2
	.byte	$a3
	.byte	$a2
	.byte	$a3
	.byte	$a2
	.byte	$a3
	.byte	$a2
	.byte	$a3
	.byte	$a2
	.byte	$a3
	.byte	$a2
	.byte	$a3
	.byte	$a2
	.byte	$a3
	.byte	$a2
	.byte	$a3
	.byte	$a2
	.byte	$a3
	.byte	$a2
	.byte	$a3
	.byte	$a2
	.byte	$a3
	.byte	$a2
	.byte	$a3
	.byte	$a2
	.byte	$a3
	.byte	$a2
	.byte	$a3
	.byte	$a2
	.byte	$a3
	.byte	$a2
	.byte	$a3
	.byte	$a2
	.byte	$a3
	.byte	$a2
	.byte	$a3
	.byte	$a2
	.byte	$a3
	.byte	$a2
	.byte	$a3
	.byte	$a2
	.byte	$a3
	.byte	$a2
	.byte	$a3
	.byte	$a2
	.byte	$a3
	.byte	$a2
	.byte	$10
	.byte	$11
	.byte	$b6
	.byte	$b7
	.byte	$b2
	.byte	$b3
	.byte	$b2
	.byte	$b3
	.byte	$b2
	.byte	$b3
	.byte	$b2
	.byte	$b3
	.byte	$b2
	.byte	$b3
	.byte	$b2
	.byte	$b3
	.byte	$b2
	.byte	$b3
	.byte	$b2
	.byte	$b3
	.byte	$b2
	.byte	$b3
	.byte	$b2
	.byte	$b3
	.byte	$b2
	.byte	$b3
	.byte	$b2
	.byte	$b3
	.byte	$b2
	.byte	$b3
	.byte	$b2
	.byte	$b3
	.byte	$b2
	.byte	$b3
	.byte	$b2
	.byte	$b3
	.byte	$b2
	.byte	$b3
	.byte	$b2
	.byte	$b3
	.byte	$b2
	.byte	$b3
	.byte	$b2
	.byte	$b3
	.byte	$b2
	.byte	$b3
	.byte	$b2
	.byte	$b3
	.byte	$b2
	.byte	$b3
	.byte	$b2
	.byte	$b3
	.byte	$b2
	.byte	$b3
	.byte	$b2
	.byte	$b3
	.byte	$b2
	.byte	$b3
	.byte	$b2
	.byte	$b3
	.byte	$b2
	.byte	$b3
	.byte	$b2
	.byte	$b3
	.byte	$b6
	.byte	$b7
	.byte	$10
	.byte	$11
	.byte	$a3
	.byte	$a2
	.byte	$a3
	.byte	$a2
	.byte	$a3
	.byte	$a2
	.byte	$a3
	.byte	$a2
	.byte	$a3
	.byte	$a2
	.byte	$a3
	.byte	$a2
	.byte	$a3
	.byte	$a2
	.byte	$84
	.byte	$85
	.byte	$84
	.byte	$85
	.byte	$84
	.byte	$85
	.byte	$84
	.byte	$85
	.byte	$a3
	.byte	$a2
	.byte	$a3
	.byte	$a2
	.byte	$a3
	.byte	$a2
	.byte	$a3
	.byte	$a2
	.byte	$a3
	.byte	$a2
	.byte	$a3
	.byte	$a2
	.byte	$a3
	.byte	$a2
	.byte	$a3
	.byte	$a2
	.byte	$84
	.byte	$85
	.byte	$84
	.byte	$85
	.byte	$84
	.byte	$85
	.byte	$84
	.byte	$85
	.byte	$a3
	.byte	$a2
	.byte	$a3
	.byte	$a2
	.byte	$a3
	.byte	$a2
	.byte	$a3
	.byte	$a2
	.byte	$a3
	.byte	$a2
	.byte	$a3
	.byte	$a2
	.byte	$a3
	.byte	$a2
	.byte	$10
	.byte	$11
	.byte	$b6
	.byte	$b7
	.byte	$b2
	.byte	$b3
	.byte	$b2
	.byte	$b3
	.byte	$b2
	.byte	$b3
	.byte	$b2
	.byte	$b3
	.byte	$b2
	.byte	$b3
	.byte	$b2
	.byte	$b3
	.byte	$b2
	.byte	$b3
	.byte	$94
	.byte	$95
	.byte	$94
	.byte	$95
	.byte	$94
	.byte	$95
	.byte	$94
	.byte	$95
	.byte	$b2
	.byte	$b3
	.byte	$b2
	.byte	$b3
	.byte	$b2
	.byte	$b3
	.byte	$b2
	.byte	$b3
	.byte	$b2
	.byte	$b3
	.byte	$b2
	.byte	$b3
	.byte	$b2
	.byte	$b3
	.byte	$b2
	.byte	$b3
	.byte	$94
	.byte	$95
	.byte	$94
	.byte	$95
	.byte	$94
	.byte	$95
	.byte	$94
	.byte	$95
	.byte	$b2
	.byte	$b3
	.byte	$b2
	.byte	$b3
	.byte	$b2
	.byte	$b3
	.byte	$b2
	.byte	$b3
	.byte	$b2
	.byte	$b3
	.byte	$b2
	.byte	$b3
	.byte	$b2
	.byte	$b3
	.byte	$b6
	.byte	$b7
	.byte	$10
	.byte	$11
	.byte	$a3
	.byte	$a2
	.byte	$a3
	.byte	$a2
	.byte	$a3
	.byte	$a2
	.byte	$a3
	.byte	$a2
	.byte	$a3
	.byte	$a2
	.byte	$a3
	.byte	$a2
	.byte	$a3
	.byte	$a2
	.byte	$a3
	.byte	$a2
	.byte	$a3
	.byte	$a2
	.byte	$a3
	.byte	$a2
	.byte	$a3
	.byte	$a2
	.byte	$a3
	.byte	$a2
	.byte	$a3
	.byte	$a2
	.byte	$a3
	.byte	$a2
	.byte	$a3
	.byte	$a2
	.byte	$a3
	.byte	$a2
	.byte	$a3
	.byte	$a2
	.byte	$a3
	.byte	$a2
	.byte	$a3
	.byte	$a2
	.byte	$a3
	.byte	$a2
	.byte	$a3
	.byte	$a2
	.byte	$a3
	.byte	$a2
	.byte	$a3
	.byte	$a2
	.byte	$a3
	.byte	$a2
	.byte	$a3
	.byte	$a2
	.byte	$a3
	.byte	$a2
	.byte	$a3
	.byte	$a2
	.byte	$a3
	.byte	$a2
	.byte	$a3
	.byte	$a2
	.byte	$a3
	.byte	$a2
	.byte	$10
	.byte	$11
	.byte	$b6
	.byte	$b7
	.byte	$b2
	.byte	$b3
	.byte	$b2
	.byte	$b3
	.byte	$b2
	.byte	$b3
	.byte	$b2
	.byte	$b3
	.byte	$b2
	.byte	$b3
	.byte	$b2
	.byte	$b3
	.byte	$b2
	.byte	$b3
	.byte	$b2
	.byte	$b3
	.byte	$b2
	.byte	$b3
	.byte	$b2
	.byte	$b3
	.byte	$b2
	.byte	$b3
	.byte	$b2
	.byte	$b3
	.byte	$b2
	.byte	$b3
	.byte	$b2
	.byte	$b3
	.byte	$b2
	.byte	$b3
	.byte	$b2
	.byte	$b3
	.byte	$b2
	.byte	$b3
	.byte	$b2
	.byte	$b3
	.byte	$b2
	.byte	$b3
	.byte	$b2
	.byte	$b3
	.byte	$b2
	.byte	$b3
	.byte	$b2
	.byte	$b3
	.byte	$b2
	.byte	$b3
	.byte	$b2
	.byte	$b3
	.byte	$b2
	.byte	$b3
	.byte	$b2
	.byte	$b3
	.byte	$b2
	.byte	$b3
	.byte	$b2
	.byte	$b3
	.byte	$b2
	.byte	$b3
	.byte	$b2
	.byte	$b3
	.byte	$b6
	.byte	$b7
	.byte	$10
	.byte	$11
	.byte	$a3
	.byte	$a2
	.byte	$84
	.byte	$85
	.byte	$84
	.byte	$85
	.byte	$84
	.byte	$85
	.byte	$84
	.byte	$85
	.byte	$a3
	.byte	$a2
	.byte	$a3
	.byte	$a2
	.byte	$a3
	.byte	$a2
	.byte	$a3
	.byte	$a2
	.byte	$a3
	.byte	$a2
	.byte	$a3
	.byte	$a2
	.byte	$a3
	.byte	$a2
	.byte	$a3
	.byte	$a2
	.byte	$a3
	.byte	$a2
	.byte	$a3
	.byte	$a2
	.byte	$a3
	.byte	$a2
	.byte	$a3
	.byte	$a2
	.byte	$a3
	.byte	$a2
	.byte	$a3
	.byte	$a2
	.byte	$a3
	.byte	$a2
	.byte	$a3
	.byte	$a2
	.byte	$a3
	.byte	$a2
	.byte	$a3
	.byte	$a2
	.byte	$84
	.byte	$85
	.byte	$84
	.byte	$85
	.byte	$84
	.byte	$85
	.byte	$a3
	.byte	$a2
	.byte	$a3
	.byte	$a2
	.byte	$a3
	.byte	$a2
	.byte	$a3
	.byte	$a2
	.byte	$10
	.byte	$11
	.byte	$b6
	.byte	$b7
	.byte	$b2
	.byte	$b3
	.byte	$94
	.byte	$95
	.byte	$94
	.byte	$95
	.byte	$94
	.byte	$95
	.byte	$94
	.byte	$95
	.byte	$b2
	.byte	$b3
	.byte	$b2
	.byte	$b3
	.byte	$b2
	.byte	$b3
	.byte	$b2
	.byte	$b3
	.byte	$b2
	.byte	$b3
	.byte	$b2
	.byte	$b3
	.byte	$b2
	.byte	$b3
	.byte	$b2
	.byte	$b3
	.byte	$b2
	.byte	$b3
	.byte	$b2
	.byte	$b3
	.byte	$b2
	.byte	$b3
	.byte	$b2
	.byte	$b3
	.byte	$b2
	.byte	$b3
	.byte	$b2
	.byte	$b3
	.byte	$b2
	.byte	$b3
	.byte	$b2
	.byte	$b3
	.byte	$b2
	.byte	$b3
	.byte	$b2
	.byte	$b3
	.byte	$94
	.byte	$95
	.byte	$94
	.byte	$95
	.byte	$94
	.byte	$95
	.byte	$b2
	.byte	$b3
	.byte	$b2
	.byte	$b3
	.byte	$b2
	.byte	$b3
	.byte	$b2
	.byte	$b3
	.byte	$b6
	.byte	$b7
	.byte	$10
	.byte	$11
	.byte	$a3
	.byte	$a2
	.byte	$a3
	.byte	$a2
	.byte	$a3
	.byte	$a2
	.byte	$a3
	.byte	$a2
	.byte	$a3
	.byte	$a2
	.byte	$a3
	.byte	$a2
	.byte	$a3
	.byte	$a2
	.byte	$a3
	.byte	$a2
	.byte	$a3
	.byte	$a2
	.byte	$a3
	.byte	$a2
	.byte	$a3
	.byte	$a2
	.byte	$a3
	.byte	$a2
	.byte	$a3
	.byte	$a2
	.byte	$a3
	.byte	$a2
	.byte	$a3
	.byte	$a2
	.byte	$a3
	.byte	$a2
	.byte	$a3
	.byte	$a2
	.byte	$a3
	.byte	$a2
	.byte	$a3
	.byte	$a2
	.byte	$a3
	.byte	$a2
	.byte	$a3
	.byte	$a2
	.byte	$a3
	.byte	$a2
	.byte	$a3
	.byte	$a2
	.byte	$a3
	.byte	$a2
	.byte	$a3
	.byte	$a2
	.byte	$a3
	.byte	$a2
	.byte	$a3
	.byte	$a2
	.byte	$a3
	.byte	$a2
	.byte	$a3
	.byte	$a2
	.byte	$a3
	.byte	$a2
	.byte	$10
	.byte	$11
	.byte	$b6
	.byte	$b7
	.byte	$b2
	.byte	$b3
	.byte	$b2
	.byte	$b3
	.byte	$b2
	.byte	$b3
	.byte	$b2
	.byte	$b3
	.byte	$b2
	.byte	$b3
	.byte	$b2
	.byte	$b3
	.byte	$b2
	.byte	$b3
	.byte	$b2
	.byte	$b3
	.byte	$b2
	.byte	$b3
	.byte	$b2
	.byte	$b3
	.byte	$b2
	.byte	$b3
	.byte	$b2
	.byte	$b3
	.byte	$b2
	.byte	$b3
	.byte	$b2
	.byte	$b3
	.byte	$b2
	.byte	$b3
	.byte	$b2
	.byte	$b3
	.byte	$b2
	.byte	$b3
	.byte	$b2
	.byte	$b3
	.byte	$b2
	.byte	$b3
	.byte	$b2
	.byte	$b3
	.byte	$b2
	.byte	$b3
	.byte	$b2
	.byte	$b3
	.byte	$b2
	.byte	$b3
	.byte	$b2
	.byte	$b3
	.byte	$b2
	.byte	$b3
	.byte	$b2
	.byte	$b3
	.byte	$b2
	.byte	$b3
	.byte	$b2
	.byte	$b3
	.byte	$b2
	.byte	$b3
	.byte	$b2
	.byte	$b3
	.byte	$b6
	.byte	$b7
	.byte	$10
	.byte	$11
	.byte	$a3
	.byte	$a2
	.byte	$a3
	.byte	$a2
	.byte	$a3
	.byte	$a2
	.byte	$a3
	.byte	$a2
	.byte	$a3
	.byte	$a2
	.byte	$a3
	.byte	$a2
	.byte	$a3
	.byte	$a2
	.byte	$84
	.byte	$85
	.byte	$84
	.byte	$85
	.byte	$84
	.byte	$85
	.byte	$84
	.byte	$85
	.byte	$a3
	.byte	$a2
	.byte	$a3
	.byte	$a2
	.byte	$a3
	.byte	$a2
	.byte	$84
	.byte	$85
	.byte	$84
	.byte	$85
	.byte	$84
	.byte	$85
	.byte	$84
	.byte	$85
	.byte	$a3
	.byte	$a2
	.byte	$a3
	.byte	$a2
	.byte	$a3
	.byte	$a2
	.byte	$a3
	.byte	$a2
	.byte	$a3
	.byte	$a2
	.byte	$a3
	.byte	$a2
	.byte	$a3
	.byte	$a2
	.byte	$a3
	.byte	$a2
	.byte	$a3
	.byte	$a2
	.byte	$84
	.byte	$85
	.byte	$84
	.byte	$85
	.byte	$84
	.byte	$85
	.byte	$10
	.byte	$11
	.byte	$b6
	.byte	$b7
	.byte	$b2
	.byte	$b3
	.byte	$b2
	.byte	$b3
	.byte	$b2
	.byte	$b3
	.byte	$b2
	.byte	$b3
	.byte	$b2
	.byte	$b3
	.byte	$b2
	.byte	$b3
	.byte	$b2
	.byte	$b3
	.byte	$94
	.byte	$95
	.byte	$94
	.byte	$95
	.byte	$94
	.byte	$95
	.byte	$94
	.byte	$95
	.byte	$b2
	.byte	$b3
	.byte	$b2
	.byte	$b3
	.byte	$b2
	.byte	$b3
	.byte	$94
	.byte	$95
	.byte	$94
	.byte	$95
	.byte	$94
	.byte	$95
	.byte	$94
	.byte	$95
	.byte	$b2
	.byte	$b3
	.byte	$b2
	.byte	$b3
	.byte	$b2
	.byte	$b3
	.byte	$b2
	.byte	$b3
	.byte	$b2
	.byte	$b3
	.byte	$b2
	.byte	$b3
	.byte	$b2
	.byte	$b3
	.byte	$b2
	.byte	$b3
	.byte	$b2
	.byte	$b3
	.byte	$94
	.byte	$95
	.byte	$94
	.byte	$95
	.byte	$94
	.byte	$95
	.byte	$b6
	.byte	$b7
	.byte	$10
	.byte	$11
	.byte	$a3
	.byte	$a2
	.byte	$a3
	.byte	$a2
	.byte	$a3
	.byte	$a2
	.byte	$a3
	.byte	$a2
	.byte	$a3
	.byte	$a2
	.byte	$a3
	.byte	$a2
	.byte	$a3
	.byte	$a2
	.byte	$a3
	.byte	$a2
	.byte	$a3
	.byte	$a2
	.byte	$a3
	.byte	$a2
	.byte	$a3
	.byte	$a2
	.byte	$a3
	.byte	$a2
	.byte	$a3
	.byte	$a2
	.byte	$a3
	.byte	$a2
	.byte	$a3
	.byte	$a2
	.byte	$a3
	.byte	$a2
	.byte	$a3
	.byte	$a2
	.byte	$a3
	.byte	$a2
	.byte	$a3
	.byte	$a2
	.byte	$a3
	.byte	$a2
	.byte	$a3
	.byte	$a2
	.byte	$a3
	.byte	$a2
	.byte	$a3
	.byte	$a2
	.byte	$a3
	.byte	$a2
	.byte	$a3
	.byte	$a2
	.byte	$a3
	.byte	$a2
	.byte	$a3
	.byte	$a2
	.byte	$a3
	.byte	$a2
	.byte	$a3
	.byte	$a2
	.byte	$a3
	.byte	$a2
	.byte	$10
	.byte	$11
	.byte	$b6
	.byte	$b7
	.byte	$b2
	.byte	$b3
	.byte	$b2
	.byte	$b3
	.byte	$b2
	.byte	$b3
	.byte	$b2
	.byte	$b3
	.byte	$b2
	.byte	$b3
	.byte	$b2
	.byte	$b3
	.byte	$b2
	.byte	$b3
	.byte	$b2
	.byte	$b3
	.byte	$b2
	.byte	$b3
	.byte	$b2
	.byte	$b3
	.byte	$b2
	.byte	$b3
	.byte	$b2
	.byte	$b3
	.byte	$b2
	.byte	$b3
	.byte	$b2
	.byte	$b3
	.byte	$b2
	.byte	$b3
	.byte	$b2
	.byte	$b3
	.byte	$b2
	.byte	$b3
	.byte	$b2
	.byte	$b3
	.byte	$b2
	.byte	$b3
	.byte	$b2
	.byte	$b3
	.byte	$b2
	.byte	$b3
	.byte	$b2
	.byte	$b3
	.byte	$b2
	.byte	$b3
	.byte	$b2
	.byte	$b3
	.byte	$b2
	.byte	$b3
	.byte	$b2
	.byte	$b3
	.byte	$b2
	.byte	$b3
	.byte	$b2
	.byte	$b3
	.byte	$b2
	.byte	$b3
	.byte	$b2
	.byte	$b3
	.byte	$b6
	.byte	$b7
	.byte	$10
	.byte	$11
	.byte	$a3
	.byte	$a2
	.byte	$a3
	.byte	$a2
	.byte	$a3
	.byte	$a2
	.byte	$a3
	.byte	$a2
	.byte	$a3
	.byte	$a2
	.byte	$a3
	.byte	$a2
	.byte	$a3
	.byte	$a2
	.byte	$a3
	.byte	$a2
	.byte	$a3
	.byte	$a2
	.byte	$a3
	.byte	$a2
	.byte	$a3
	.byte	$a2
	.byte	$a3
	.byte	$a2
	.byte	$a3
	.byte	$a2
	.byte	$a3
	.byte	$a2
	.byte	$a3
	.byte	$a2
	.byte	$a3
	.byte	$a2
	.byte	$a3
	.byte	$a2
	.byte	$a3
	.byte	$a2
	.byte	$a3
	.byte	$a2
	.byte	$a3
	.byte	$a2
	.byte	$84
	.byte	$85
	.byte	$84
	.byte	$85
	.byte	$84
	.byte	$85
	.byte	$84
	.byte	$85
	.byte	$a3
	.byte	$a2
	.byte	$a3
	.byte	$a2
	.byte	$a3
	.byte	$a2
	.byte	$a3
	.byte	$a2
	.byte	$a3
	.byte	$a2
	.byte	$a3
	.byte	$a2
	.byte	$10
	.byte	$11
	.byte	$b6
	.byte	$b7
	.byte	$b2
	.byte	$b3
	.byte	$b2
	.byte	$b3
	.byte	$b2
	.byte	$b3
	.byte	$b2
	.byte	$b3
	.byte	$b2
	.byte	$b3
	.byte	$b2
	.byte	$b3
	.byte	$b2
	.byte	$b3
	.byte	$b2
	.byte	$b3
	.byte	$b2
	.byte	$b3
	.byte	$b2
	.byte	$b3
	.byte	$b2
	.byte	$b3
	.byte	$b2
	.byte	$b3
	.byte	$b2
	.byte	$b3
	.byte	$b2
	.byte	$b3
	.byte	$b2
	.byte	$b3
	.byte	$b2
	.byte	$b3
	.byte	$b2
	.byte	$b3
	.byte	$b2
	.byte	$b3
	.byte	$b2
	.byte	$b3
	.byte	$b2
	.byte	$b3
	.byte	$94
	.byte	$95
	.byte	$94
	.byte	$95
	.byte	$94
	.byte	$95
	.byte	$94
	.byte	$95
	.byte	$b2
	.byte	$b3
	.byte	$b2
	.byte	$b3
	.byte	$b2
	.byte	$b3
	.byte	$b2
	.byte	$b3
	.byte	$b2
	.byte	$b3
	.byte	$b2
	.byte	$b3
	.byte	$b6
	.byte	$b7
	.byte	$10
	.byte	$11
	.byte	$a3
	.byte	$a2
	.byte	$a3
	.byte	$a2
	.byte	$a3
	.byte	$a2
	.byte	$a3
	.byte	$a2
	.byte	$a3
	.byte	$a2
	.byte	$a3
	.byte	$a2
	.byte	$a3
	.byte	$a2
	.byte	$a3
	.byte	$a2
	.byte	$a3
	.byte	$a2
	.byte	$a3
	.byte	$a2
	.byte	$a3
	.byte	$a2
	.byte	$a3
	.byte	$a2
	.byte	$a3
	.byte	$a2
	.byte	$a3
	.byte	$a2
	.byte	$a3
	.byte	$a2
	.byte	$a3
	.byte	$a2
	.byte	$a3
	.byte	$a2
	.byte	$a3
	.byte	$a2
	.byte	$a3
	.byte	$a2
	.byte	$a3
	.byte	$a2
	.byte	$a3
	.byte	$a2
	.byte	$a3
	.byte	$a2
	.byte	$a3
	.byte	$a2
	.byte	$a3
	.byte	$a2
	.byte	$a3
	.byte	$a2
	.byte	$a3
	.byte	$a2
	.byte	$a3
	.byte	$a2
	.byte	$a3
	.byte	$a2
	.byte	$a3
	.byte	$a2
	.byte	$a3
	.byte	$a2
	.byte	$10
	.byte	$11
	.byte	$b6
	.byte	$b7
	.byte	$b2
	.byte	$b3
	.byte	$b2
	.byte	$b3
	.byte	$b2
	.byte	$b3
	.byte	$b2
	.byte	$b3
	.byte	$b2
	.byte	$b3
	.byte	$b2
	.byte	$b3
	.byte	$b2
	.byte	$b3
	.byte	$b2
	.byte	$b3
	.byte	$b2
	.byte	$b3
	.byte	$b2
	.byte	$b3
	.byte	$b2
	.byte	$b3
	.byte	$b2
	.byte	$b3
	.byte	$b2
	.byte	$b3
	.byte	$b2
	.byte	$b3
	.byte	$b2
	.byte	$b3
	.byte	$b2
	.byte	$b3
	.byte	$b2
	.byte	$b3
	.byte	$b2
	.byte	$b3
	.byte	$b2
	.byte	$b3
	.byte	$b2
	.byte	$b3
	.byte	$b2
	.byte	$b3
	.byte	$b2
	.byte	$b3
	.byte	$b2
	.byte	$b3
	.byte	$b2
	.byte	$b3
	.byte	$b2
	.byte	$b3
	.byte	$b2
	.byte	$b3
	.byte	$b2
	.byte	$b3
	.byte	$b2
	.byte	$b3
	.byte	$b2
	.byte	$b3
	.byte	$b2
	.byte	$b3
	.byte	$b6
	.byte	$b7
	.byte	$10
	.byte	$11
	.byte	$a3
	.byte	$a2
	.byte	$a3
	.byte	$a2
	.byte	$a3
	.byte	$a2
	.byte	$a3
	.byte	$a2
	.byte	$a3
	.byte	$a2
	.byte	$a3
	.byte	$a2
	.byte	$a3
	.byte	$a2
	.byte	$a3
	.byte	$a2
	.byte	$a3
	.byte	$a2
	.byte	$a3
	.byte	$a2
	.byte	$a3
	.byte	$a2
	.byte	$a3
	.byte	$a2
	.byte	$a3
	.byte	$a2
	.byte	$a3
	.byte	$a2
	.byte	$a3
	.byte	$a2
	.byte	$a3
	.byte	$a2
	.byte	$a3
	.byte	$a2
	.byte	$a3
	.byte	$a2
	.byte	$a3
	.byte	$a2
	.byte	$a3
	.byte	$a2
	.byte	$a3
	.byte	$a2
	.byte	$a3
	.byte	$a2
	.byte	$a3
	.byte	$a2
	.byte	$a3
	.byte	$a2
	.byte	$a3
	.byte	$a2
	.byte	$a3
	.byte	$a2
	.byte	$a3
	.byte	$a2
	.byte	$a3
	.byte	$a2
	.byte	$a3
	.byte	$a2
	.byte	$a3
	.byte	$a2
	.byte	$10
	.byte	$11
	.byte	$b6
	.byte	$b7
	.byte	$b2
	.byte	$b3
	.byte	$b2
	.byte	$b3
	.byte	$b2
	.byte	$b3
	.byte	$b2
	.byte	$b3
	.byte	$b2
	.byte	$b3
	.byte	$b2
	.byte	$b3
	.byte	$b2
	.byte	$b3
	.byte	$b2
	.byte	$b3
	.byte	$b2
	.byte	$b3
	.byte	$b2
	.byte	$b3
	.byte	$b2
	.byte	$b3
	.byte	$b2
	.byte	$b3
	.byte	$b2
	.byte	$b3
	.byte	$b2
	.byte	$b3
	.byte	$b2
	.byte	$b3
	.byte	$b2
	.byte	$b3
	.byte	$b2
	.byte	$b3
	.byte	$b2
	.byte	$b3
	.byte	$b2
	.byte	$b3
	.byte	$b2
	.byte	$b3
	.byte	$b2
	.byte	$b3
	.byte	$b2
	.byte	$b3
	.byte	$b2
	.byte	$b3
	.byte	$b2
	.byte	$b3
	.byte	$b2
	.byte	$b3
	.byte	$b2
	.byte	$b3
	.byte	$b2
	.byte	$b3
	.byte	$b2
	.byte	$b3
	.byte	$b2
	.byte	$b3
	.byte	$b2
	.byte	$b3
	.byte	$b6
	.byte	$b7
	.byte	$a0
	.byte	$a1
	.byte	$a0
	.byte	$a1
	.byte	$a0
	.byte	$a1
	.byte	$a0
	.byte	$a1
	.byte	$a0
	.byte	$a1
	.byte	$a0
	.byte	$a1
	.byte	$a0
	.byte	$a1
	.byte	$a0
	.byte	$a1
	.byte	$a0
	.byte	$a1
	.byte	$a0
	.byte	$a1
	.byte	$a0
	.byte	$a1
	.byte	$a0
	.byte	$a1
	.byte	$a0
	.byte	$a1
	.byte	$a0
	.byte	$a1
	.byte	$a0
	.byte	$a1
	.byte	$a0
	.byte	$a1
	.byte	$a0
	.byte	$a1
	.byte	$a0
	.byte	$a1
	.byte	$a0
	.byte	$a1
	.byte	$a0
	.byte	$a1
	.byte	$a0
	.byte	$a1
	.byte	$a0
	.byte	$a1
	.byte	$a0
	.byte	$a1
	.byte	$a0
	.byte	$a1
	.byte	$a0
	.byte	$a1
	.byte	$a0
	.byte	$a1
	.byte	$a0
	.byte	$a1
	.byte	$a0
	.byte	$a1
	.byte	$a0
	.byte	$a1
	.byte	$a0
	.byte	$a1
	.byte	$a0
	.byte	$a1
	.byte	$a0
	.byte	$a1
	.byte	$b0
	.byte	$b1
	.byte	$b0
	.byte	$b1
	.byte	$b0
	.byte	$b1
	.byte	$b0
	.byte	$b1
	.byte	$b0
	.byte	$b1
	.byte	$b0
	.byte	$b1
	.byte	$b0
	.byte	$b1
	.byte	$b0
	.byte	$b1
	.byte	$b0
	.byte	$b1
	.byte	$b0
	.byte	$b1
	.byte	$b0
	.byte	$b1
	.byte	$b0
	.byte	$b1
	.byte	$b0
	.byte	$b1
	.byte	$b0
	.byte	$b1
	.byte	$b0
	.byte	$b1
	.byte	$b0
	.byte	$b1
	.byte	$b0
	.byte	$b1
	.byte	$b0
	.byte	$b1
	.byte	$b0
	.byte	$b1
	.byte	$b0
	.byte	$b1
	.byte	$b0
	.byte	$b1
	.byte	$b0
	.byte	$b1
	.byte	$b0
	.byte	$b1
	.byte	$b0
	.byte	$b1
	.byte	$b0
	.byte	$b1
	.byte	$b0
	.byte	$b1
	.byte	$b0
	.byte	$b1
	.byte	$b0
	.byte	$b1
	.byte	$b0
	.byte	$b1
	.byte	$b0
	.byte	$b1
	.byte	$b0
	.byte	$b1
	.byte	$b0
	.byte	$b1
	.byte	$7f
	.byte	$5f
	.byte	$5f
	.byte	$5f
	.byte	$5f
	.byte	$5f
	.byte	$5f
	.byte	$5f
	.byte	$5f
	.byte	$5f
	.byte	$5f
	.byte	$5f
	.byte	$5f
	.byte	$5f
	.byte	$5f
	.byte	$df
	.byte	$77
	.byte	$55
	.byte	$55
	.byte	$55
	.byte	$55
	.byte	$55
	.byte	$55
	.byte	$f5
	.byte	$f5
	.byte	$55
	.byte	$55
	.byte	$55
	.byte	$55
	.byte	$f5
	.byte	$f1
	.byte	$dd
	.byte	$77
	.byte	$55
	.byte	$55
	.byte	$55
	.byte	$f5
	.byte	$f5
	.byte	$55
	.byte	$55
	.byte	$55
	.byte	$55
	.byte	$f5
	.byte	$f5
	.byte	$55
	.byte	$55
	.byte	$55
	.byte	$dd
	.byte	$77
	.byte	$f5
	.byte	$f5
	.byte	$55
	.byte	$55
	.byte	$55
	.byte	$55
	.byte	$55
	.byte	$55
	.byte	$55
	.byte	$55
	.byte	$55
	.byte	$f5
	.byte	$75
	.byte	$55
	.byte	$dd
	.byte	$77
	.byte	$55
	.byte	$55
	.byte	$55
	.byte	$f5
	.byte	$f5
	.byte	$55
	.byte	$d5
	.byte	$f5
	.byte	$75
	.byte	$55
	.byte	$55
	.byte	$55
	.byte	$55
	.byte	$f5
	.byte	$fd
	.byte	$77
	.byte	$55
	.byte	$55
	.byte	$55
	.byte	$55
	.byte	$55
	.byte	$55
	.byte	$55
	.byte	$55
	.byte	$55
	.byte	$d5
	.byte	$f5
	.byte	$75
	.byte	$55
	.byte	$55
	.byte	$dd
	.byte	$77
	.byte	$55
	.byte	$55
	.byte	$55
	.byte	$55
	.byte	$55
	.byte	$55
	.byte	$55
	.byte	$55
	.byte	$55
	.byte	$55
	.byte	$55
	.byte	$55
	.byte	$55
	.byte	$55
	.byte	$dd
	.byte	$0f
	.byte	$0f
	.byte	$0f
	.byte	$0f
	.byte	$0f
	.byte	$0f
	.byte	$0f
	.byte	$0f
	.byte	$0f
	.byte	$0f
	.byte	$0f
	.byte	$0f
	.byte	$0f
	.byte	$0f
	.byte	$0f
	.byte	$0f
_Level1A:
	.byte	$a2
	.byte	$a3
	.byte	$a6
	.byte	$a7
	.byte	$a6
	.byte	$a7
	.byte	$a6
	.byte	$a7
	.byte	$a6
	.byte	$a7
	.byte	$a6
	.byte	$a7
	.byte	$a6
	.byte	$a7
	.byte	$a6
	.byte	$a7
	.byte	$a6
	.byte	$a7
	.byte	$a6
	.byte	$a7
	.byte	$a6
	.byte	$a7
	.byte	$a6
	.byte	$a7
	.byte	$a6
	.byte	$a7
	.byte	$a6
	.byte	$a7
	.byte	$a6
	.byte	$a7
	.byte	$a6
	.byte	$a7
	.byte	$b2
	.byte	$b3
	.byte	$91
	.byte	$91
	.byte	$91
	.byte	$91
	.byte	$91
	.byte	$91
	.byte	$91
	.byte	$91
	.byte	$91
	.byte	$91
	.byte	$91
	.byte	$91
	.byte	$91
	.byte	$91
	.byte	$91
	.byte	$91
	.byte	$91
	.byte	$91
	.byte	$91
	.byte	$91
	.byte	$91
	.byte	$91
	.byte	$91
	.byte	$91
	.byte	$91
	.byte	$91
	.byte	$91
	.byte	$91
	.byte	$91
	.byte	$91
	.byte	$82
	.byte	$83
	.byte	$b3
	.byte	$a2
	.byte	$a3
	.byte	$b2
	.byte	$b3
	.byte	$a2
	.byte	$a3
	.byte	$b2
	.byte	$b3
	.byte	$a2
	.byte	$a3
	.byte	$b2
	.byte	$b3
	.byte	$a2
	.byte	$a3
	.byte	$b2
	.byte	$b3
	.byte	$a2
	.byte	$a3
	.byte	$b2
	.byte	$b3
	.byte	$a2
	.byte	$a3
	.byte	$b2
	.byte	$b3
	.byte	$a2
	.byte	$a3
	.byte	$b2
	.byte	$b3
	.byte	$a2
	.byte	$92
	.byte	$93
	.byte	$a3
	.byte	$b2
	.byte	$b3
	.byte	$a2
	.byte	$a3
	.byte	$b2
	.byte	$b3
	.byte	$a2
	.byte	$a3
	.byte	$b2
	.byte	$b3
	.byte	$a2
	.byte	$a3
	.byte	$b2
	.byte	$b3
	.byte	$a2
	.byte	$a3
	.byte	$b2
	.byte	$b3
	.byte	$a2
	.byte	$a3
	.byte	$b2
	.byte	$b3
	.byte	$a2
	.byte	$a3
	.byte	$b2
	.byte	$b3
	.byte	$a2
	.byte	$a3
	.byte	$b2
	.byte	$82
	.byte	$83
	.byte	$a2
	.byte	$a3
	.byte	$b2
	.byte	$b3
	.byte	$a2
	.byte	$a3
	.byte	$b2
	.byte	$b3
	.byte	$a2
	.byte	$a3
	.byte	$b2
	.byte	$b3
	.byte	$a2
	.byte	$a3
	.byte	$b2
	.byte	$b3
	.byte	$a2
	.byte	$a3
	.byte	$b2
	.byte	$b3
	.byte	$a2
	.byte	$a3
	.byte	$b2
	.byte	$b3
	.byte	$a2
	.byte	$a3
	.byte	$b2
	.byte	$b3
	.byte	$a2
	.byte	$a3
	.byte	$92
	.byte	$93
	.byte	$b2
	.byte	$b3
	.byte	$a2
	.byte	$a3
	.byte	$b2
	.byte	$b3
	.byte	$a2
	.byte	$a3
	.byte	$b2
	.byte	$b3
	.byte	$a2
	.byte	$a3
	.byte	$b2
	.byte	$b3
	.byte	$a2
	.byte	$a3
	.byte	$b2
	.byte	$b3
	.byte	$a2
	.byte	$a3
	.byte	$b2
	.byte	$b3
	.byte	$a2
	.byte	$a3
	.byte	$b2
	.byte	$b3
	.byte	$a2
	.byte	$a3
	.byte	$b2
	.byte	$b3
	.byte	$82
	.byte	$83
	.byte	$b3
	.byte	$a2
	.byte	$a3
	.byte	$b2
	.byte	$b3
	.byte	$a2
	.byte	$a3
	.byte	$b2
	.byte	$b3
	.byte	$a2
	.byte	$a3
	.byte	$b2
	.byte	$b3
	.byte	$a2
	.byte	$a3
	.byte	$b2
	.byte	$b3
	.byte	$a2
	.byte	$a3
	.byte	$b2
	.byte	$b3
	.byte	$a2
	.byte	$a3
	.byte	$b2
	.byte	$b3
	.byte	$a2
	.byte	$a3
	.byte	$b2
	.byte	$b3
	.byte	$a2
	.byte	$92
	.byte	$93
	.byte	$a3
	.byte	$b2
	.byte	$b3
	.byte	$a2
	.byte	$a3
	.byte	$b2
	.byte	$b3
	.byte	$a2
	.byte	$a3
	.byte	$b2
	.byte	$b3
	.byte	$a2
	.byte	$a3
	.byte	$b2
	.byte	$b3
	.byte	$a2
	.byte	$a3
	.byte	$b2
	.byte	$b3
	.byte	$a2
	.byte	$a3
	.byte	$b2
	.byte	$b3
	.byte	$a2
	.byte	$a3
	.byte	$b2
	.byte	$b3
	.byte	$a2
	.byte	$a3
	.byte	$b2
	.byte	$82
	.byte	$83
	.byte	$a2
	.byte	$a3
	.byte	$b2
	.byte	$b3
	.byte	$a2
	.byte	$a3
	.byte	$b2
	.byte	$b3
	.byte	$a2
	.byte	$a3
	.byte	$b2
	.byte	$b3
	.byte	$a2
	.byte	$a3
	.byte	$b2
	.byte	$b3
	.byte	$a2
	.byte	$a3
	.byte	$b2
	.byte	$b3
	.byte	$a2
	.byte	$a3
	.byte	$b2
	.byte	$b3
	.byte	$a2
	.byte	$a3
	.byte	$b2
	.byte	$b3
	.byte	$a2
	.byte	$a3
	.byte	$92
	.byte	$93
	.byte	$b2
	.byte	$b3
	.byte	$a2
	.byte	$a3
	.byte	$b2
	.byte	$b3
	.byte	$a2
	.byte	$a3
	.byte	$b2
	.byte	$b3
	.byte	$a2
	.byte	$a3
	.byte	$b2
	.byte	$b3
	.byte	$a2
	.byte	$a3
	.byte	$b2
	.byte	$b3
	.byte	$a2
	.byte	$a3
	.byte	$b2
	.byte	$b3
	.byte	$a2
	.byte	$a3
	.byte	$b2
	.byte	$b3
	.byte	$a2
	.byte	$a3
	.byte	$b2
	.byte	$b3
	.byte	$82
	.byte	$83
	.byte	$84
	.byte	$85
	.byte	$84
	.byte	$85
	.byte	$84
	.byte	$85
	.byte	$84
	.byte	$85
	.byte	$b3
	.byte	$a2
	.byte	$a3
	.byte	$b2
	.byte	$b3
	.byte	$a2
	.byte	$a3
	.byte	$b2
	.byte	$b3
	.byte	$a2
	.byte	$a3
	.byte	$b2
	.byte	$b3
	.byte	$a2
	.byte	$a3
	.byte	$b2
	.byte	$b3
	.byte	$a2
	.byte	$a3
	.byte	$b2
	.byte	$b3
	.byte	$a2
	.byte	$92
	.byte	$93
	.byte	$94
	.byte	$95
	.byte	$94
	.byte	$95
	.byte	$94
	.byte	$95
	.byte	$94
	.byte	$95
	.byte	$a3
	.byte	$b2
	.byte	$b3
	.byte	$a2
	.byte	$a3
	.byte	$b2
	.byte	$b3
	.byte	$a2
	.byte	$a3
	.byte	$b2
	.byte	$b3
	.byte	$a2
	.byte	$a3
	.byte	$b2
	.byte	$b3
	.byte	$a2
	.byte	$a3
	.byte	$b2
	.byte	$b3
	.byte	$a2
	.byte	$a3
	.byte	$b2
	.byte	$82
	.byte	$83
	.byte	$a2
	.byte	$a3
	.byte	$b2
	.byte	$b3
	.byte	$a2
	.byte	$a3
	.byte	$b2
	.byte	$b3
	.byte	$a2
	.byte	$a3
	.byte	$b2
	.byte	$b3
	.byte	$a2
	.byte	$a3
	.byte	$b2
	.byte	$b3
	.byte	$a2
	.byte	$a3
	.byte	$b2
	.byte	$b3
	.byte	$a2
	.byte	$a3
	.byte	$b2
	.byte	$b3
	.byte	$a2
	.byte	$a3
	.byte	$b2
	.byte	$b3
	.byte	$a2
	.byte	$a3
	.byte	$92
	.byte	$93
	.byte	$b2
	.byte	$b3
	.byte	$a2
	.byte	$a3
	.byte	$b2
	.byte	$b3
	.byte	$a2
	.byte	$a3
	.byte	$b2
	.byte	$b3
	.byte	$a2
	.byte	$a3
	.byte	$b2
	.byte	$b3
	.byte	$a2
	.byte	$a3
	.byte	$b2
	.byte	$b3
	.byte	$a2
	.byte	$a3
	.byte	$b2
	.byte	$b3
	.byte	$a2
	.byte	$a3
	.byte	$b2
	.byte	$b3
	.byte	$a2
	.byte	$a3
	.byte	$b2
	.byte	$b3
	.byte	$82
	.byte	$83
	.byte	$a3
	.byte	$a2
	.byte	$a3
	.byte	$b2
	.byte	$b3
	.byte	$a2
	.byte	$84
	.byte	$85
	.byte	$84
	.byte	$85
	.byte	$84
	.byte	$85
	.byte	$84
	.byte	$85
	.byte	$b3
	.byte	$b2
	.byte	$b3
	.byte	$a2
	.byte	$a3
	.byte	$b2
	.byte	$b3
	.byte	$a2
	.byte	$a3
	.byte	$b2
	.byte	$b3
	.byte	$a2
	.byte	$a3
	.byte	$b2
	.byte	$b3
	.byte	$a2
	.byte	$92
	.byte	$93
	.byte	$b3
	.byte	$b2
	.byte	$b3
	.byte	$a2
	.byte	$a3
	.byte	$b2
	.byte	$94
	.byte	$95
	.byte	$94
	.byte	$95
	.byte	$94
	.byte	$95
	.byte	$94
	.byte	$95
	.byte	$a3
	.byte	$a2
	.byte	$a3
	.byte	$b2
	.byte	$b3
	.byte	$a2
	.byte	$a3
	.byte	$b2
	.byte	$b3
	.byte	$a2
	.byte	$a3
	.byte	$b2
	.byte	$b3
	.byte	$a2
	.byte	$a3
	.byte	$b2
	.byte	$82
	.byte	$83
	.byte	$a2
	.byte	$a3
	.byte	$b2
	.byte	$b3
	.byte	$a2
	.byte	$a3
	.byte	$b2
	.byte	$b3
	.byte	$a2
	.byte	$a3
	.byte	$b2
	.byte	$b3
	.byte	$a2
	.byte	$a3
	.byte	$b2
	.byte	$b3
	.byte	$a2
	.byte	$a3
	.byte	$b2
	.byte	$b3
	.byte	$a2
	.byte	$a3
	.byte	$b2
	.byte	$b3
	.byte	$a2
	.byte	$a3
	.byte	$b2
	.byte	$b3
	.byte	$a2
	.byte	$a3
	.byte	$92
	.byte	$93
	.byte	$b2
	.byte	$b3
	.byte	$a2
	.byte	$a3
	.byte	$b2
	.byte	$b3
	.byte	$a2
	.byte	$a3
	.byte	$b2
	.byte	$b3
	.byte	$a2
	.byte	$a3
	.byte	$b2
	.byte	$b3
	.byte	$a2
	.byte	$a3
	.byte	$b2
	.byte	$b3
	.byte	$a2
	.byte	$a3
	.byte	$b2
	.byte	$b3
	.byte	$a2
	.byte	$a3
	.byte	$b2
	.byte	$b3
	.byte	$a2
	.byte	$a3
	.byte	$b2
	.byte	$b3
	.byte	$82
	.byte	$83
	.byte	$a3
	.byte	$a2
	.byte	$a3
	.byte	$b2
	.byte	$b3
	.byte	$a2
	.byte	$a3
	.byte	$b2
	.byte	$b3
	.byte	$a2
	.byte	$a3
	.byte	$b2
	.byte	$b3
	.byte	$a2
	.byte	$a3
	.byte	$b2
	.byte	$b3
	.byte	$a2
	.byte	$84
	.byte	$85
	.byte	$84
	.byte	$85
	.byte	$84
	.byte	$85
	.byte	$84
	.byte	$85
	.byte	$b3
	.byte	$b2
	.byte	$b3
	.byte	$a2
	.byte	$92
	.byte	$93
	.byte	$b3
	.byte	$b2
	.byte	$b3
	.byte	$a2
	.byte	$a3
	.byte	$b2
	.byte	$b3
	.byte	$a2
	.byte	$a3
	.byte	$b2
	.byte	$b3
	.byte	$a2
	.byte	$a3
	.byte	$b2
	.byte	$b3
	.byte	$a2
	.byte	$a3
	.byte	$b2
	.byte	$94
	.byte	$95
	.byte	$94
	.byte	$95
	.byte	$94
	.byte	$95
	.byte	$94
	.byte	$95
	.byte	$a3
	.byte	$a2
	.byte	$a3
	.byte	$b2
	.byte	$82
	.byte	$83
	.byte	$a2
	.byte	$a3
	.byte	$b2
	.byte	$b3
	.byte	$a2
	.byte	$a3
	.byte	$b2
	.byte	$b3
	.byte	$a2
	.byte	$a3
	.byte	$b2
	.byte	$b3
	.byte	$a2
	.byte	$a3
	.byte	$b2
	.byte	$b3
	.byte	$a2
	.byte	$a3
	.byte	$b2
	.byte	$b3
	.byte	$a2
	.byte	$a3
	.byte	$b2
	.byte	$b3
	.byte	$a2
	.byte	$a3
	.byte	$b2
	.byte	$b3
	.byte	$a2
	.byte	$a3
	.byte	$92
	.byte	$93
	.byte	$b2
	.byte	$b3
	.byte	$a2
	.byte	$a3
	.byte	$b2
	.byte	$b3
	.byte	$a2
	.byte	$a3
	.byte	$b2
	.byte	$b3
	.byte	$a2
	.byte	$a3
	.byte	$b2
	.byte	$b3
	.byte	$a2
	.byte	$a3
	.byte	$b2
	.byte	$b3
	.byte	$a2
	.byte	$a3
	.byte	$b2
	.byte	$b3
	.byte	$a2
	.byte	$a3
	.byte	$b2
	.byte	$b3
	.byte	$a2
	.byte	$a3
	.byte	$b2
	.byte	$b3
	.byte	$82
	.byte	$83
	.byte	$b3
	.byte	$a2
	.byte	$a3
	.byte	$b2
	.byte	$b3
	.byte	$a2
	.byte	$a3
	.byte	$b2
	.byte	$84
	.byte	$85
	.byte	$84
	.byte	$85
	.byte	$84
	.byte	$85
	.byte	$84
	.byte	$85
	.byte	$a3
	.byte	$a2
	.byte	$a3
	.byte	$b2
	.byte	$b3
	.byte	$a2
	.byte	$a3
	.byte	$b2
	.byte	$b3
	.byte	$a2
	.byte	$a3
	.byte	$b2
	.byte	$b3
	.byte	$a2
	.byte	$92
	.byte	$93
	.byte	$a3
	.byte	$b2
	.byte	$b3
	.byte	$a2
	.byte	$a3
	.byte	$b2
	.byte	$b3
	.byte	$a2
	.byte	$94
	.byte	$95
	.byte	$94
	.byte	$95
	.byte	$94
	.byte	$95
	.byte	$94
	.byte	$95
	.byte	$b3
	.byte	$b2
	.byte	$b3
	.byte	$a2
	.byte	$a3
	.byte	$b2
	.byte	$b3
	.byte	$a2
	.byte	$a3
	.byte	$b2
	.byte	$b3
	.byte	$a2
	.byte	$a3
	.byte	$b2
	.byte	$82
	.byte	$83
	.byte	$a2
	.byte	$a3
	.byte	$b2
	.byte	$b3
	.byte	$a2
	.byte	$a3
	.byte	$b2
	.byte	$b3
	.byte	$a2
	.byte	$a3
	.byte	$b2
	.byte	$b3
	.byte	$a2
	.byte	$a3
	.byte	$b2
	.byte	$b3
	.byte	$a2
	.byte	$a3
	.byte	$b2
	.byte	$b3
	.byte	$a2
	.byte	$a3
	.byte	$b2
	.byte	$b3
	.byte	$a2
	.byte	$a3
	.byte	$b2
	.byte	$b3
	.byte	$a2
	.byte	$a3
	.byte	$92
	.byte	$93
	.byte	$b2
	.byte	$b3
	.byte	$a2
	.byte	$a3
	.byte	$b2
	.byte	$b3
	.byte	$a2
	.byte	$a3
	.byte	$b2
	.byte	$b3
	.byte	$a2
	.byte	$a3
	.byte	$b2
	.byte	$b3
	.byte	$a2
	.byte	$a3
	.byte	$b2
	.byte	$b3
	.byte	$a2
	.byte	$a3
	.byte	$b2
	.byte	$b3
	.byte	$a2
	.byte	$a3
	.byte	$b2
	.byte	$b3
	.byte	$a2
	.byte	$a3
	.byte	$b2
	.byte	$b3
	.byte	$82
	.byte	$83
	.byte	$b3
	.byte	$a2
	.byte	$a3
	.byte	$b2
	.byte	$b3
	.byte	$a2
	.byte	$a3
	.byte	$b2
	.byte	$b3
	.byte	$a2
	.byte	$a3
	.byte	$b2
	.byte	$b3
	.byte	$a2
	.byte	$a3
	.byte	$b2
	.byte	$b3
	.byte	$a2
	.byte	$a3
	.byte	$b2
	.byte	$b3
	.byte	$a2
	.byte	$a3
	.byte	$b2
	.byte	$b3
	.byte	$a2
	.byte	$a3
	.byte	$b2
	.byte	$b3
	.byte	$a2
	.byte	$92
	.byte	$93
	.byte	$a3
	.byte	$b2
	.byte	$b3
	.byte	$a2
	.byte	$a3
	.byte	$b2
	.byte	$b3
	.byte	$a2
	.byte	$a3
	.byte	$b2
	.byte	$b3
	.byte	$a2
	.byte	$a3
	.byte	$b2
	.byte	$b3
	.byte	$a2
	.byte	$a3
	.byte	$b2
	.byte	$b3
	.byte	$a2
	.byte	$a3
	.byte	$b2
	.byte	$b3
	.byte	$a2
	.byte	$a3
	.byte	$b2
	.byte	$b3
	.byte	$a2
	.byte	$a3
	.byte	$b2
	.byte	$a2
	.byte	$a3
	.byte	$a0
	.byte	$a1
	.byte	$a0
	.byte	$a1
	.byte	$a0
	.byte	$a1
	.byte	$a0
	.byte	$a1
	.byte	$a0
	.byte	$a1
	.byte	$a0
	.byte	$a1
	.byte	$a0
	.byte	$a1
	.byte	$a0
	.byte	$a1
	.byte	$a0
	.byte	$a1
	.byte	$a0
	.byte	$a1
	.byte	$a0
	.byte	$a1
	.byte	$a0
	.byte	$a1
	.byte	$a0
	.byte	$a1
	.byte	$a0
	.byte	$a1
	.byte	$a0
	.byte	$a1
	.byte	$b2
	.byte	$b3
	.byte	$b0
	.byte	$b1
	.byte	$b0
	.byte	$b1
	.byte	$b0
	.byte	$b1
	.byte	$b0
	.byte	$b1
	.byte	$b0
	.byte	$b1
	.byte	$b0
	.byte	$b1
	.byte	$b0
	.byte	$b1
	.byte	$b0
	.byte	$b1
	.byte	$b0
	.byte	$b1
	.byte	$b0
	.byte	$b1
	.byte	$b0
	.byte	$b1
	.byte	$b0
	.byte	$b1
	.byte	$b0
	.byte	$b1
	.byte	$b0
	.byte	$b1
	.byte	$b0
	.byte	$b1
	.byte	$80
	.byte	$a0
	.byte	$a0
	.byte	$a0
	.byte	$a0
	.byte	$a0
	.byte	$a0
	.byte	$a0
	.byte	$88
	.byte	$aa
	.byte	$aa
	.byte	$aa
	.byte	$aa
	.byte	$aa
	.byte	$aa
	.byte	$aa
	.byte	$08
	.byte	$0a
	.byte	$8a
	.byte	$aa
	.byte	$aa
	.byte	$aa
	.byte	$aa
	.byte	$aa
	.byte	$88
	.byte	$aa
	.byte	$0a
	.byte	$0a
	.byte	$aa
	.byte	$aa
	.byte	$aa
	.byte	$aa
	.byte	$88
	.byte	$aa
	.byte	$aa
	.byte	$aa
	.byte	$aa
	.byte	$0a
	.byte	$0a
	.byte	$aa
	.byte	$88
	.byte	$aa
	.byte	$2a
	.byte	$0a
	.byte	$8a
	.byte	$aa
	.byte	$aa
	.byte	$aa
	.byte	$88
	.byte	$aa
	.byte	$aa
	.byte	$aa
	.byte	$aa
	.byte	$aa
	.byte	$aa
	.byte	$aa
	.byte	$00
	.byte	$00
	.byte	$00
	.byte	$00
	.byte	$00
	.byte	$00
	.byte	$00
	.byte	$00
_Level1B:
	.byte	$a6
	.byte	$a7
	.byte	$a6
	.byte	$a7
	.byte	$a6
	.byte	$a7
	.byte	$a6
	.byte	$a7
	.byte	$a6
	.byte	$a7
	.byte	$a6
	.byte	$a7
	.byte	$a6
	.byte	$a7
	.byte	$a6
	.byte	$a7
	.byte	$a6
	.byte	$a7
	.byte	$a6
	.byte	$a7
	.byte	$a6
	.byte	$a7
	.byte	$a6
	.byte	$a7
	.byte	$a6
	.byte	$a7
	.byte	$a6
	.byte	$a7
	.byte	$a6
	.byte	$a7
	.byte	$a2
	.byte	$a3
	.byte	$91
	.byte	$91
	.byte	$91
	.byte	$91
	.byte	$91
	.byte	$91
	.byte	$91
	.byte	$91
	.byte	$91
	.byte	$91
	.byte	$91
	.byte	$91
	.byte	$91
	.byte	$91
	.byte	$91
	.byte	$91
	.byte	$91
	.byte	$91
	.byte	$91
	.byte	$91
	.byte	$91
	.byte	$91
	.byte	$91
	.byte	$91
	.byte	$91
	.byte	$91
	.byte	$91
	.byte	$91
	.byte	$91
	.byte	$91
	.byte	$b2
	.byte	$b3
	.byte	$a3
	.byte	$b2
	.byte	$b3
	.byte	$a2
	.byte	$a3
	.byte	$b2
	.byte	$b3
	.byte	$a2
	.byte	$a3
	.byte	$b2
	.byte	$b3
	.byte	$a2
	.byte	$a3
	.byte	$b2
	.byte	$b3
	.byte	$a2
	.byte	$a3
	.byte	$b2
	.byte	$b3
	.byte	$a2
	.byte	$a3
	.byte	$b2
	.byte	$b3
	.byte	$a2
	.byte	$a3
	.byte	$b2
	.byte	$b3
	.byte	$a2
	.byte	$a3
	.byte	$b2
	.byte	$83
	.byte	$82
	.byte	$b3
	.byte	$a2
	.byte	$a3
	.byte	$b2
	.byte	$b3
	.byte	$a2
	.byte	$a3
	.byte	$b2
	.byte	$b3
	.byte	$a2
	.byte	$a3
	.byte	$b2
	.byte	$b3
	.byte	$a2
	.byte	$a3
	.byte	$b2
	.byte	$b3
	.byte	$a2
	.byte	$a3
	.byte	$b2
	.byte	$b3
	.byte	$a2
	.byte	$a3
	.byte	$b2
	.byte	$b3
	.byte	$a2
	.byte	$a3
	.byte	$b2
	.byte	$b3
	.byte	$a2
	.byte	$93
	.byte	$92
	.byte	$b2
	.byte	$b3
	.byte	$a2
	.byte	$a3
	.byte	$b2
	.byte	$b3
	.byte	$a2
	.byte	$a3
	.byte	$b2
	.byte	$b3
	.byte	$a2
	.byte	$a3
	.byte	$b2
	.byte	$b3
	.byte	$a2
	.byte	$a3
	.byte	$b2
	.byte	$b3
	.byte	$a2
	.byte	$a3
	.byte	$b2
	.byte	$b3
	.byte	$a2
	.byte	$a3
	.byte	$b2
	.byte	$b3
	.byte	$a2
	.byte	$a3
	.byte	$b2
	.byte	$b3
	.byte	$83
	.byte	$82
	.byte	$a2
	.byte	$a3
	.byte	$b2
	.byte	$b3
	.byte	$a2
	.byte	$a3
	.byte	$b2
	.byte	$b3
	.byte	$a2
	.byte	$a3
	.byte	$b2
	.byte	$b3
	.byte	$a2
	.byte	$a3
	.byte	$b2
	.byte	$b3
	.byte	$a2
	.byte	$a3
	.byte	$b2
	.byte	$b3
	.byte	$a2
	.byte	$a3
	.byte	$b2
	.byte	$b3
	.byte	$a2
	.byte	$a3
	.byte	$b2
	.byte	$b3
	.byte	$a2
	.byte	$a3
	.byte	$93
	.byte	$92
	.byte	$a3
	.byte	$b2
	.byte	$b3
	.byte	$a2
	.byte	$a3
	.byte	$b2
	.byte	$b3
	.byte	$a2
	.byte	$a3
	.byte	$b2
	.byte	$b3
	.byte	$a2
	.byte	$a3
	.byte	$b2
	.byte	$b3
	.byte	$a2
	.byte	$a3
	.byte	$b2
	.byte	$b3
	.byte	$a2
	.byte	$a3
	.byte	$b2
	.byte	$04
	.byte	$05
	.byte	$b3
	.byte	$b2
	.byte	$b3
	.byte	$a2
	.byte	$a3
	.byte	$b2
	.byte	$83
	.byte	$82
	.byte	$b3
	.byte	$a2
	.byte	$a3
	.byte	$b2
	.byte	$b3
	.byte	$a2
	.byte	$a3
	.byte	$b2
	.byte	$b3
	.byte	$a2
	.byte	$a3
	.byte	$b2
	.byte	$b3
	.byte	$a2
	.byte	$a3
	.byte	$b2
	.byte	$b3
	.byte	$a2
	.byte	$a3
	.byte	$b2
	.byte	$b3
	.byte	$a2
	.byte	$14
	.byte	$15
	.byte	$a3
	.byte	$a2
	.byte	$a3
	.byte	$b2
	.byte	$b3
	.byte	$a2
	.byte	$93
	.byte	$92
	.byte	$b2
	.byte	$b3
	.byte	$a2
	.byte	$a3
	.byte	$b2
	.byte	$b3
	.byte	$a2
	.byte	$a3
	.byte	$b2
	.byte	$b3
	.byte	$a2
	.byte	$a3
	.byte	$b2
	.byte	$b3
	.byte	$a2
	.byte	$a3
	.byte	$b2
	.byte	$b3
	.byte	$a2
	.byte	$a3
	.byte	$84
	.byte	$85
	.byte	$84
	.byte	$85
	.byte	$84
	.byte	$85
	.byte	$a2
	.byte	$a3
	.byte	$b2
	.byte	$b3
	.byte	$83
	.byte	$82
	.byte	$a2
	.byte	$a3
	.byte	$b2
	.byte	$b3
	.byte	$a2
	.byte	$a3
	.byte	$b2
	.byte	$b3
	.byte	$a2
	.byte	$a3
	.byte	$b2
	.byte	$b3
	.byte	$a2
	.byte	$a3
	.byte	$b2
	.byte	$b3
	.byte	$a2
	.byte	$a3
	.byte	$b2
	.byte	$b3
	.byte	$94
	.byte	$95
	.byte	$94
	.byte	$95
	.byte	$94
	.byte	$95
	.byte	$b2
	.byte	$b3
	.byte	$a2
	.byte	$a3
	.byte	$93
	.byte	$92
	.byte	$a3
	.byte	$b2
	.byte	$b3
	.byte	$a2
	.byte	$a3
	.byte	$b2
	.byte	$b3
	.byte	$a2
	.byte	$a3
	.byte	$b2
	.byte	$b3
	.byte	$a2
	.byte	$a3
	.byte	$b2
	.byte	$b3
	.byte	$a2
	.byte	$a3
	.byte	$b2
	.byte	$b3
	.byte	$a2
	.byte	$a3
	.byte	$b2
	.byte	$b3
	.byte	$a2
	.byte	$a3
	.byte	$b2
	.byte	$b3
	.byte	$a2
	.byte	$a3
	.byte	$b2
	.byte	$83
	.byte	$82
	.byte	$b3
	.byte	$a2
	.byte	$a3
	.byte	$b2
	.byte	$b3
	.byte	$a2
	.byte	$a3
	.byte	$b2
	.byte	$b3
	.byte	$a2
	.byte	$a3
	.byte	$b2
	.byte	$b3
	.byte	$a2
	.byte	$a3
	.byte	$b2
	.byte	$b3
	.byte	$a2
	.byte	$a3
	.byte	$b2
	.byte	$b3
	.byte	$a2
	.byte	$a3
	.byte	$b2
	.byte	$b3
	.byte	$a2
	.byte	$a3
	.byte	$b2
	.byte	$b3
	.byte	$a2
	.byte	$93
	.byte	$92
	.byte	$b2
	.byte	$b3
	.byte	$a2
	.byte	$a3
	.byte	$b2
	.byte	$b3
	.byte	$a2
	.byte	$a3
	.byte	$b2
	.byte	$b3
	.byte	$84
	.byte	$85
	.byte	$84
	.byte	$85
	.byte	$84
	.byte	$85
	.byte	$b2
	.byte	$b3
	.byte	$a2
	.byte	$a3
	.byte	$b2
	.byte	$b3
	.byte	$a2
	.byte	$a3
	.byte	$b2
	.byte	$b3
	.byte	$a2
	.byte	$a3
	.byte	$b2
	.byte	$b3
	.byte	$83
	.byte	$82
	.byte	$a2
	.byte	$a3
	.byte	$b2
	.byte	$b3
	.byte	$a2
	.byte	$a3
	.byte	$b2
	.byte	$b3
	.byte	$a2
	.byte	$a3
	.byte	$94
	.byte	$95
	.byte	$94
	.byte	$95
	.byte	$94
	.byte	$95
	.byte	$a2
	.byte	$a3
	.byte	$b2
	.byte	$b3
	.byte	$a2
	.byte	$a3
	.byte	$b2
	.byte	$b3
	.byte	$a2
	.byte	$a3
	.byte	$b2
	.byte	$b3
	.byte	$a2
	.byte	$a3
	.byte	$93
	.byte	$92
	.byte	$a3
	.byte	$b2
	.byte	$b3
	.byte	$a2
	.byte	$a3
	.byte	$b2
	.byte	$b3
	.byte	$a2
	.byte	$a3
	.byte	$b2
	.byte	$b3
	.byte	$a2
	.byte	$a3
	.byte	$b2
	.byte	$b3
	.byte	$a2
	.byte	$a3
	.byte	$b2
	.byte	$b3
	.byte	$a2
	.byte	$a3
	.byte	$b2
	.byte	$b3
	.byte	$a2
	.byte	$a3
	.byte	$b2
	.byte	$b3
	.byte	$a2
	.byte	$a3
	.byte	$b2
	.byte	$83
	.byte	$82
	.byte	$b3
	.byte	$a2
	.byte	$a3
	.byte	$b2
	.byte	$b3
	.byte	$a2
	.byte	$a3
	.byte	$b2
	.byte	$b3
	.byte	$a2
	.byte	$a3
	.byte	$b2
	.byte	$b3
	.byte	$a2
	.byte	$a3
	.byte	$b2
	.byte	$b3
	.byte	$a2
	.byte	$a3
	.byte	$b2
	.byte	$b3
	.byte	$a2
	.byte	$a3
	.byte	$b2
	.byte	$b3
	.byte	$a2
	.byte	$a3
	.byte	$b2
	.byte	$b3
	.byte	$a2
	.byte	$93
	.byte	$92
	.byte	$84
	.byte	$85
	.byte	$84
	.byte	$85
	.byte	$84
	.byte	$85
	.byte	$a2
	.byte	$a3
	.byte	$b2
	.byte	$b3
	.byte	$a2
	.byte	$a3
	.byte	$b2
	.byte	$b3
	.byte	$a2
	.byte	$a3
	.byte	$b2
	.byte	$b3
	.byte	$a2
	.byte	$a3
	.byte	$b2
	.byte	$b3
	.byte	$a2
	.byte	$a3
	.byte	$b2
	.byte	$b3
	.byte	$a2
	.byte	$a3
	.byte	$b2
	.byte	$b3
	.byte	$83
	.byte	$82
	.byte	$94
	.byte	$95
	.byte	$94
	.byte	$95
	.byte	$94
	.byte	$95
	.byte	$b2
	.byte	$b3
	.byte	$a2
	.byte	$a3
	.byte	$b2
	.byte	$b3
	.byte	$a2
	.byte	$a3
	.byte	$b2
	.byte	$b3
	.byte	$a2
	.byte	$a3
	.byte	$b2
	.byte	$b3
	.byte	$a2
	.byte	$a3
	.byte	$b2
	.byte	$b3
	.byte	$a2
	.byte	$a3
	.byte	$b2
	.byte	$b3
	.byte	$a2
	.byte	$a3
	.byte	$93
	.byte	$92
	.byte	$a3
	.byte	$b2
	.byte	$b3
	.byte	$a2
	.byte	$a3
	.byte	$b2
	.byte	$b3
	.byte	$a2
	.byte	$a3
	.byte	$b2
	.byte	$b3
	.byte	$a2
	.byte	$a3
	.byte	$b2
	.byte	$84
	.byte	$85
	.byte	$84
	.byte	$85
	.byte	$84
	.byte	$85
	.byte	$b3
	.byte	$b2
	.byte	$b3
	.byte	$a2
	.byte	$a3
	.byte	$b2
	.byte	$b3
	.byte	$a2
	.byte	$a3
	.byte	$b2
	.byte	$83
	.byte	$82
	.byte	$b3
	.byte	$a2
	.byte	$a3
	.byte	$b2
	.byte	$b3
	.byte	$a2
	.byte	$a3
	.byte	$b2
	.byte	$b3
	.byte	$a2
	.byte	$a3
	.byte	$b2
	.byte	$b3
	.byte	$a2
	.byte	$94
	.byte	$95
	.byte	$94
	.byte	$95
	.byte	$94
	.byte	$95
	.byte	$a3
	.byte	$a2
	.byte	$a3
	.byte	$b2
	.byte	$b3
	.byte	$a2
	.byte	$a3
	.byte	$b2
	.byte	$b3
	.byte	$a2
	.byte	$93
	.byte	$92
	.byte	$b2
	.byte	$b3
	.byte	$a2
	.byte	$a3
	.byte	$b2
	.byte	$b3
	.byte	$a2
	.byte	$a3
	.byte	$b2
	.byte	$b3
	.byte	$a2
	.byte	$a3
	.byte	$b2
	.byte	$b3
	.byte	$a2
	.byte	$a3
	.byte	$b2
	.byte	$b3
	.byte	$a2
	.byte	$a3
	.byte	$b2
	.byte	$b3
	.byte	$a2
	.byte	$a3
	.byte	$b2
	.byte	$b3
	.byte	$a2
	.byte	$a3
	.byte	$b2
	.byte	$b3
	.byte	$83
	.byte	$82
	.byte	$a2
	.byte	$a3
	.byte	$b2
	.byte	$b3
	.byte	$a2
	.byte	$a3
	.byte	$b2
	.byte	$b3
	.byte	$a2
	.byte	$a3
	.byte	$b2
	.byte	$b3
	.byte	$a2
	.byte	$a3
	.byte	$b2
	.byte	$b3
	.byte	$a2
	.byte	$a3
	.byte	$b2
	.byte	$b3
	.byte	$a2
	.byte	$a3
	.byte	$b2
	.byte	$b3
	.byte	$a2
	.byte	$a3
	.byte	$b2
	.byte	$b3
	.byte	$a2
	.byte	$a3
	.byte	$93
	.byte	$92
	.byte	$a3
	.byte	$b2
	.byte	$b3
	.byte	$a2
	.byte	$a3
	.byte	$b2
	.byte	$b3
	.byte	$a2
	.byte	$a3
	.byte	$b2
	.byte	$b3
	.byte	$a2
	.byte	$a3
	.byte	$b2
	.byte	$b3
	.byte	$a2
	.byte	$a3
	.byte	$b2
	.byte	$b3
	.byte	$a2
	.byte	$a3
	.byte	$b2
	.byte	$b3
	.byte	$a2
	.byte	$84
	.byte	$85
	.byte	$84
	.byte	$85
	.byte	$84
	.byte	$85
	.byte	$83
	.byte	$82
	.byte	$b3
	.byte	$a2
	.byte	$a3
	.byte	$b2
	.byte	$b3
	.byte	$a2
	.byte	$a3
	.byte	$b2
	.byte	$b3
	.byte	$a2
	.byte	$a3
	.byte	$b2
	.byte	$b3
	.byte	$a2
	.byte	$a3
	.byte	$b2
	.byte	$b3
	.byte	$a2
	.byte	$a3
	.byte	$b2
	.byte	$b3
	.byte	$a2
	.byte	$a3
	.byte	$b2
	.byte	$94
	.byte	$95
	.byte	$94
	.byte	$95
	.byte	$94
	.byte	$95
	.byte	$93
	.byte	$92
	.byte	$b2
	.byte	$b3
	.byte	$a2
	.byte	$a3
	.byte	$b2
	.byte	$b3
	.byte	$a2
	.byte	$a3
	.byte	$b2
	.byte	$b3
	.byte	$a2
	.byte	$a3
	.byte	$b2
	.byte	$b3
	.byte	$a2
	.byte	$a3
	.byte	$b2
	.byte	$b3
	.byte	$a2
	.byte	$a3
	.byte	$b2
	.byte	$b3
	.byte	$a2
	.byte	$a3
	.byte	$b2
	.byte	$b3
	.byte	$a2
	.byte	$a3
	.byte	$b2
	.byte	$b3
	.byte	$83
	.byte	$82
	.byte	$a2
	.byte	$a3
	.byte	$b2
	.byte	$b3
	.byte	$a2
	.byte	$a3
	.byte	$b2
	.byte	$b3
	.byte	$a2
	.byte	$a3
	.byte	$b2
	.byte	$b3
	.byte	$a2
	.byte	$a3
	.byte	$b2
	.byte	$b3
	.byte	$a2
	.byte	$a3
	.byte	$b2
	.byte	$b3
	.byte	$a2
	.byte	$a3
	.byte	$b2
	.byte	$b3
	.byte	$a2
	.byte	$a3
	.byte	$b2
	.byte	$b3
	.byte	$a2
	.byte	$a3
	.byte	$93
	.byte	$92
	.byte	$a3
	.byte	$b2
	.byte	$b3
	.byte	$a2
	.byte	$a3
	.byte	$b2
	.byte	$b3
	.byte	$a2
	.byte	$a3
	.byte	$b2
	.byte	$b3
	.byte	$a2
	.byte	$a3
	.byte	$b2
	.byte	$b3
	.byte	$a2
	.byte	$a3
	.byte	$b2
	.byte	$b3
	.byte	$a2
	.byte	$a3
	.byte	$b2
	.byte	$b3
	.byte	$a2
	.byte	$a3
	.byte	$b2
	.byte	$b3
	.byte	$a2
	.byte	$a3
	.byte	$b2
	.byte	$83
	.byte	$82
	.byte	$b3
	.byte	$a2
	.byte	$a3
	.byte	$b2
	.byte	$b3
	.byte	$a2
	.byte	$a3
	.byte	$b2
	.byte	$b3
	.byte	$a2
	.byte	$a3
	.byte	$b2
	.byte	$b3
	.byte	$a2
	.byte	$a3
	.byte	$b2
	.byte	$b3
	.byte	$a2
	.byte	$a3
	.byte	$b2
	.byte	$b3
	.byte	$a2
	.byte	$a3
	.byte	$b2
	.byte	$b3
	.byte	$a2
	.byte	$a3
	.byte	$b2
	.byte	$b3
	.byte	$a2
	.byte	$93
	.byte	$92
	.byte	$a0
	.byte	$a1
	.byte	$a0
	.byte	$a1
	.byte	$a0
	.byte	$a1
	.byte	$a0
	.byte	$a1
	.byte	$a0
	.byte	$a1
	.byte	$a0
	.byte	$a1
	.byte	$a0
	.byte	$a1
	.byte	$a0
	.byte	$a1
	.byte	$a0
	.byte	$a1
	.byte	$a0
	.byte	$a1
	.byte	$a0
	.byte	$a1
	.byte	$a0
	.byte	$a1
	.byte	$a0
	.byte	$a1
	.byte	$a0
	.byte	$a1
	.byte	$a0
	.byte	$a1
	.byte	$a2
	.byte	$a3
	.byte	$b0
	.byte	$b1
	.byte	$b0
	.byte	$b1
	.byte	$b0
	.byte	$b1
	.byte	$b0
	.byte	$b1
	.byte	$b0
	.byte	$b1
	.byte	$b0
	.byte	$b1
	.byte	$b0
	.byte	$b1
	.byte	$b0
	.byte	$b1
	.byte	$b0
	.byte	$b1
	.byte	$b0
	.byte	$b1
	.byte	$b0
	.byte	$b1
	.byte	$b0
	.byte	$b1
	.byte	$b0
	.byte	$b1
	.byte	$b0
	.byte	$b1
	.byte	$b0
	.byte	$b1
	.byte	$b2
	.byte	$b3
	.byte	$a0
	.byte	$a0
	.byte	$a0
	.byte	$a0
	.byte	$a0
	.byte	$a0
	.byte	$a0
	.byte	$20
	.byte	$aa
	.byte	$aa
	.byte	$aa
	.byte	$aa
	.byte	$aa
	.byte	$2a
	.byte	$aa
	.byte	$22
	.byte	$aa
	.byte	$aa
	.byte	$aa
	.byte	$aa
	.byte	$aa
	.byte	$a0
	.byte	$a8
	.byte	$22
	.byte	$aa
	.byte	$aa
	.byte	$a2
	.byte	$a0
	.byte	$aa
	.byte	$aa
	.byte	$aa
	.byte	$22
	.byte	$a0
	.byte	$a8
	.byte	$aa
	.byte	$2a
	.byte	$0a
	.byte	$aa
	.byte	$aa
	.byte	$22
	.byte	$aa
	.byte	$aa
	.byte	$aa
	.byte	$aa
	.byte	$aa
	.byte	$aa
	.byte	$0a
	.byte	$02
	.byte	$aa
	.byte	$aa
	.byte	$aa
	.byte	$aa
	.byte	$aa
	.byte	$aa
	.byte	$aa
	.byte	$22
	.byte	$00
	.byte	$00
	.byte	$00
	.byte	$00
	.byte	$00
	.byte	$00
	.byte	$00
	.byte	$00
_Level2A:
	.byte	$b0
	.byte	$b1
	.byte	$b0
	.byte	$b1
	.byte	$b0
	.byte	$b1
	.byte	$b0
	.byte	$b1
	.byte	$b0
	.byte	$b1
	.byte	$b0
	.byte	$b1
	.byte	$b0
	.byte	$b1
	.byte	$b0
	.byte	$b1
	.byte	$b0
	.byte	$b1
	.byte	$b0
	.byte	$b1
	.byte	$b0
	.byte	$b1
	.byte	$b0
	.byte	$b1
	.byte	$b0
	.byte	$b1
	.byte	$b0
	.byte	$b1
	.byte	$b0
	.byte	$b1
	.byte	$b0
	.byte	$b1
	.byte	$b6
	.byte	$b7
	.byte	$b6
	.byte	$b7
	.byte	$b6
	.byte	$b7
	.byte	$b6
	.byte	$b7
	.byte	$b6
	.byte	$b7
	.byte	$b6
	.byte	$b7
	.byte	$b6
	.byte	$b7
	.byte	$b6
	.byte	$b7
	.byte	$b6
	.byte	$b7
	.byte	$b6
	.byte	$b7
	.byte	$b6
	.byte	$b7
	.byte	$b6
	.byte	$b7
	.byte	$b6
	.byte	$b7
	.byte	$b6
	.byte	$b7
	.byte	$b6
	.byte	$b7
	.byte	$b6
	.byte	$b7
	.byte	$a8
	.byte	$a9
	.byte	$df
	.byte	$ce
	.byte	$cf
	.byte	$de
	.byte	$df
	.byte	$ae
	.byte	$af
	.byte	$de
	.byte	$df
	.byte	$ae
	.byte	$af
	.byte	$de
	.byte	$df
	.byte	$ae
	.byte	$af
	.byte	$de
	.byte	$df
	.byte	$ae
	.byte	$af
	.byte	$de
	.byte	$df
	.byte	$ae
	.byte	$af
	.byte	$de
	.byte	$df
	.byte	$ae
	.byte	$af
	.byte	$de
	.byte	$df
	.byte	$ae
	.byte	$b8
	.byte	$b9
	.byte	$af
	.byte	$de
	.byte	$df
	.byte	$ae
	.byte	$af
	.byte	$be
	.byte	$bf
	.byte	$ae
	.byte	$af
	.byte	$be
	.byte	$bf
	.byte	$ae
	.byte	$af
	.byte	$be
	.byte	$bf
	.byte	$ae
	.byte	$af
	.byte	$be
	.byte	$bf
	.byte	$ae
	.byte	$af
	.byte	$be
	.byte	$bf
	.byte	$ae
	.byte	$af
	.byte	$be
	.byte	$bf
	.byte	$ae
	.byte	$af
	.byte	$be
	.byte	$a8
	.byte	$a9
	.byte	$ae
	.byte	$af
	.byte	$be
	.byte	$bf
	.byte	$ce
	.byte	$cf
	.byte	$be
	.byte	$bf
	.byte	$ce
	.byte	$cf
	.byte	$be
	.byte	$bf
	.byte	$ce
	.byte	$cf
	.byte	$be
	.byte	$bf
	.byte	$ce
	.byte	$cf
	.byte	$be
	.byte	$bf
	.byte	$ce
	.byte	$cf
	.byte	$be
	.byte	$bf
	.byte	$ce
	.byte	$cf
	.byte	$be
	.byte	$bf
	.byte	$ce
	.byte	$cf
	.byte	$b8
	.byte	$b9
	.byte	$be
	.byte	$bf
	.byte	$ce
	.byte	$cf
	.byte	$de
	.byte	$df
	.byte	$ce
	.byte	$cf
	.byte	$de
	.byte	$df
	.byte	$ce
	.byte	$cf
	.byte	$de
	.byte	$df
	.byte	$ce
	.byte	$cf
	.byte	$de
	.byte	$df
	.byte	$ce
	.byte	$cf
	.byte	$de
	.byte	$df
	.byte	$ce
	.byte	$cf
	.byte	$de
	.byte	$df
	.byte	$ce
	.byte	$cf
	.byte	$de
	.byte	$df
	.byte	$a8
	.byte	$a9
	.byte	$df
	.byte	$ce
	.byte	$cf
	.byte	$de
	.byte	$df
	.byte	$ae
	.byte	$af
	.byte	$de
	.byte	$df
	.byte	$ae
	.byte	$af
	.byte	$de
	.byte	$df
	.byte	$ae
	.byte	$af
	.byte	$de
	.byte	$df
	.byte	$ae
	.byte	$af
	.byte	$de
	.byte	$df
	.byte	$ae
	.byte	$af
	.byte	$de
	.byte	$df
	.byte	$ae
	.byte	$af
	.byte	$de
	.byte	$df
	.byte	$ae
	.byte	$b8
	.byte	$b9
	.byte	$af
	.byte	$de
	.byte	$df
	.byte	$ae
	.byte	$af
	.byte	$be
	.byte	$bf
	.byte	$ae
	.byte	$af
	.byte	$be
	.byte	$bf
	.byte	$ae
	.byte	$af
	.byte	$be
	.byte	$bf
	.byte	$ae
	.byte	$af
	.byte	$be
	.byte	$bf
	.byte	$ae
	.byte	$af
	.byte	$be
	.byte	$bf
	.byte	$ae
	.byte	$af
	.byte	$be
	.byte	$bf
	.byte	$ae
	.byte	$af
	.byte	$be
	.byte	$a8
	.byte	$a9
	.byte	$ae
	.byte	$af
	.byte	$be
	.byte	$bf
	.byte	$ce
	.byte	$cf
	.byte	$be
	.byte	$bf
	.byte	$ce
	.byte	$cf
	.byte	$be
	.byte	$bf
	.byte	$ce
	.byte	$cf
	.byte	$be
	.byte	$bf
	.byte	$ce
	.byte	$cf
	.byte	$be
	.byte	$bf
	.byte	$ce
	.byte	$cf
	.byte	$be
	.byte	$bf
	.byte	$ce
	.byte	$cf
	.byte	$be
	.byte	$bf
	.byte	$ce
	.byte	$cf
	.byte	$b8
	.byte	$b9
	.byte	$be
	.byte	$bf
	.byte	$ce
	.byte	$cf
	.byte	$de
	.byte	$df
	.byte	$ce
	.byte	$cf
	.byte	$de
	.byte	$df
	.byte	$ce
	.byte	$cf
	.byte	$de
	.byte	$df
	.byte	$ce
	.byte	$cf
	.byte	$de
	.byte	$df
	.byte	$ce
	.byte	$cf
	.byte	$de
	.byte	$df
	.byte	$ce
	.byte	$cf
	.byte	$de
	.byte	$df
	.byte	$ce
	.byte	$cf
	.byte	$de
	.byte	$df
	.byte	$a8
	.byte	$a9
	.byte	$df
	.byte	$ce
	.byte	$cf
	.byte	$de
	.byte	$df
	.byte	$ae
	.byte	$af
	.byte	$de
	.byte	$df
	.byte	$ae
	.byte	$af
	.byte	$de
	.byte	$df
	.byte	$ae
	.byte	$af
	.byte	$de
	.byte	$df
	.byte	$ae
	.byte	$af
	.byte	$de
	.byte	$df
	.byte	$ae
	.byte	$af
	.byte	$de
	.byte	$df
	.byte	$ae
	.byte	$af
	.byte	$de
	.byte	$df
	.byte	$ae
	.byte	$b8
	.byte	$b9
	.byte	$af
	.byte	$de
	.byte	$df
	.byte	$ae
	.byte	$af
	.byte	$be
	.byte	$bf
	.byte	$ae
	.byte	$af
	.byte	$be
	.byte	$bf
	.byte	$ae
	.byte	$af
	.byte	$be
	.byte	$bf
	.byte	$ae
	.byte	$af
	.byte	$be
	.byte	$bf
	.byte	$ae
	.byte	$af
	.byte	$be
	.byte	$bf
	.byte	$ae
	.byte	$af
	.byte	$be
	.byte	$bf
	.byte	$ae
	.byte	$af
	.byte	$be
	.byte	$a8
	.byte	$a9
	.byte	$ae
	.byte	$af
	.byte	$be
	.byte	$bf
	.byte	$ce
	.byte	$cf
	.byte	$be
	.byte	$bf
	.byte	$ce
	.byte	$cf
	.byte	$be
	.byte	$bf
	.byte	$ce
	.byte	$cf
	.byte	$be
	.byte	$bf
	.byte	$ce
	.byte	$cf
	.byte	$be
	.byte	$bf
	.byte	$ce
	.byte	$cf
	.byte	$be
	.byte	$bf
	.byte	$ce
	.byte	$cf
	.byte	$be
	.byte	$bf
	.byte	$ce
	.byte	$cf
	.byte	$b8
	.byte	$b9
	.byte	$be
	.byte	$bf
	.byte	$ae
	.byte	$af
	.byte	$de
	.byte	$df
	.byte	$ce
	.byte	$cf
	.byte	$de
	.byte	$df
	.byte	$ce
	.byte	$cf
	.byte	$de
	.byte	$df
	.byte	$ce
	.byte	$cf
	.byte	$de
	.byte	$df
	.byte	$ce
	.byte	$cf
	.byte	$de
	.byte	$df
	.byte	$ce
	.byte	$cf
	.byte	$de
	.byte	$df
	.byte	$ce
	.byte	$cf
	.byte	$de
	.byte	$df
	.byte	$a8
	.byte	$a9
	.byte	$ce
	.byte	$cf
	.byte	$84
	.byte	$85
	.byte	$84
	.byte	$85
	.byte	$84
	.byte	$85
	.byte	$84
	.byte	$85
	.byte	$de
	.byte	$df
	.byte	$ae
	.byte	$af
	.byte	$de
	.byte	$df
	.byte	$ae
	.byte	$af
	.byte	$de
	.byte	$df
	.byte	$ae
	.byte	$af
	.byte	$de
	.byte	$df
	.byte	$ae
	.byte	$af
	.byte	$de
	.byte	$df
	.byte	$84
	.byte	$85
	.byte	$b8
	.byte	$b9
	.byte	$de
	.byte	$df
	.byte	$94
	.byte	$95
	.byte	$94
	.byte	$95
	.byte	$94
	.byte	$95
	.byte	$94
	.byte	$95
	.byte	$ae
	.byte	$af
	.byte	$be
	.byte	$bf
	.byte	$ae
	.byte	$af
	.byte	$be
	.byte	$bf
	.byte	$ae
	.byte	$af
	.byte	$be
	.byte	$bf
	.byte	$ae
	.byte	$af
	.byte	$be
	.byte	$bf
	.byte	$ae
	.byte	$af
	.byte	$94
	.byte	$95
	.byte	$a8
	.byte	$a9
	.byte	$ae
	.byte	$af
	.byte	$de
	.byte	$df
	.byte	$ae
	.byte	$af
	.byte	$de
	.byte	$df
	.byte	$ae
	.byte	$af
	.byte	$be
	.byte	$bf
	.byte	$ce
	.byte	$cf
	.byte	$be
	.byte	$bf
	.byte	$ce
	.byte	$cf
	.byte	$be
	.byte	$bf
	.byte	$ce
	.byte	$cf
	.byte	$be
	.byte	$bf
	.byte	$ce
	.byte	$cf
	.byte	$be
	.byte	$bf
	.byte	$ae
	.byte	$af
	.byte	$b8
	.byte	$b9
	.byte	$be
	.byte	$bf
	.byte	$ae
	.byte	$af
	.byte	$be
	.byte	$bf
	.byte	$ae
	.byte	$af
	.byte	$be
	.byte	$bf
	.byte	$ce
	.byte	$cf
	.byte	$de
	.byte	$df
	.byte	$ce
	.byte	$cf
	.byte	$de
	.byte	$df
	.byte	$ce
	.byte	$cf
	.byte	$de
	.byte	$df
	.byte	$ce
	.byte	$cf
	.byte	$de
	.byte	$df
	.byte	$ce
	.byte	$cf
	.byte	$be
	.byte	$bf
	.byte	$a8
	.byte	$a9
	.byte	$ce
	.byte	$cf
	.byte	$be
	.byte	$bf
	.byte	$ce
	.byte	$cf
	.byte	$be
	.byte	$bf
	.byte	$ce
	.byte	$cf
	.byte	$de
	.byte	$df
	.byte	$ae
	.byte	$af
	.byte	$de
	.byte	$df
	.byte	$ae
	.byte	$af
	.byte	$84
	.byte	$85
	.byte	$84
	.byte	$85
	.byte	$84
	.byte	$85
	.byte	$84
	.byte	$85
	.byte	$de
	.byte	$df
	.byte	$ce
	.byte	$cf
	.byte	$b8
	.byte	$b9
	.byte	$de
	.byte	$df
	.byte	$ce
	.byte	$cf
	.byte	$de
	.byte	$df
	.byte	$ce
	.byte	$cf
	.byte	$de
	.byte	$df
	.byte	$ae
	.byte	$af
	.byte	$be
	.byte	$ae
	.byte	$ae
	.byte	$af
	.byte	$be
	.byte	$bf
	.byte	$94
	.byte	$95
	.byte	$94
	.byte	$95
	.byte	$94
	.byte	$95
	.byte	$94
	.byte	$95
	.byte	$ae
	.byte	$af
	.byte	$de
	.byte	$df
	.byte	$a8
	.byte	$a9
	.byte	$af
	.byte	$de
	.byte	$df
	.byte	$ae
	.byte	$af
	.byte	$de
	.byte	$df
	.byte	$ae
	.byte	$af
	.byte	$be
	.byte	$bf
	.byte	$ce
	.byte	$be
	.byte	$be
	.byte	$bf
	.byte	$ce
	.byte	$cf
	.byte	$de
	.byte	$df
	.byte	$ae
	.byte	$af
	.byte	$de
	.byte	$df
	.byte	$ae
	.byte	$af
	.byte	$be
	.byte	$bf
	.byte	$ae
	.byte	$af
	.byte	$de
	.byte	$b8
	.byte	$b9
	.byte	$bf
	.byte	$ae
	.byte	$af
	.byte	$be
	.byte	$bf
	.byte	$ae
	.byte	$af
	.byte	$be
	.byte	$bf
	.byte	$ce
	.byte	$cf
	.byte	$de
	.byte	$ce
	.byte	$ce
	.byte	$cf
	.byte	$de
	.byte	$df
	.byte	$ae
	.byte	$af
	.byte	$be
	.byte	$bf
	.byte	$ae
	.byte	$af
	.byte	$be
	.byte	$bf
	.byte	$ce
	.byte	$cf
	.byte	$be
	.byte	$bf
	.byte	$ae
	.byte	$a8
	.byte	$a9
	.byte	$ce
	.byte	$cf
	.byte	$be
	.byte	$bf
	.byte	$ce
	.byte	$cf
	.byte	$be
	.byte	$bf
	.byte	$84
	.byte	$85
	.byte	$84
	.byte	$85
	.byte	$84
	.byte	$85
	.byte	$84
	.byte	$85
	.byte	$ae
	.byte	$af
	.byte	$be
	.byte	$bf
	.byte	$ce
	.byte	$cf
	.byte	$be
	.byte	$bf
	.byte	$ce
	.byte	$cf
	.byte	$de
	.byte	$df
	.byte	$ce
	.byte	$cf
	.byte	$b8
	.byte	$b9
	.byte	$de
	.byte	$df
	.byte	$ce
	.byte	$cf
	.byte	$de
	.byte	$df
	.byte	$ce
	.byte	$cf
	.byte	$94
	.byte	$95
	.byte	$94
	.byte	$95
	.byte	$94
	.byte	$95
	.byte	$94
	.byte	$95
	.byte	$be
	.byte	$bf
	.byte	$ce
	.byte	$cf
	.byte	$de
	.byte	$df
	.byte	$ce
	.byte	$cf
	.byte	$de
	.byte	$df
	.byte	$ae
	.byte	$af
	.byte	$de
	.byte	$df
	.byte	$a8
	.byte	$a9
	.byte	$ae
	.byte	$af
	.byte	$de
	.byte	$df
	.byte	$ae
	.byte	$af
	.byte	$de
	.byte	$df
	.byte	$ae
	.byte	$af
	.byte	$be
	.byte	$bf
	.byte	$ae
	.byte	$af
	.byte	$be
	.byte	$bf
	.byte	$ce
	.byte	$cf
	.byte	$de
	.byte	$df
	.byte	$ae
	.byte	$af
	.byte	$de
	.byte	$df
	.byte	$ae
	.byte	$af
	.byte	$be
	.byte	$bf
	.byte	$ae
	.byte	$af
	.byte	$b8
	.byte	$b9
	.byte	$be
	.byte	$bf
	.byte	$ae
	.byte	$af
	.byte	$be
	.byte	$bf
	.byte	$ae
	.byte	$af
	.byte	$be
	.byte	$bf
	.byte	$ce
	.byte	$cf
	.byte	$be
	.byte	$bf
	.byte	$ce
	.byte	$cf
	.byte	$de
	.byte	$df
	.byte	$ae
	.byte	$af
	.byte	$be
	.byte	$bf
	.byte	$ae
	.byte	$af
	.byte	$be
	.byte	$bf
	.byte	$ce
	.byte	$cf
	.byte	$be
	.byte	$bf
	.byte	$a8
	.byte	$a9
	.byte	$cf
	.byte	$be
	.byte	$bf
	.byte	$ce
	.byte	$cf
	.byte	$be
	.byte	$bf
	.byte	$ce
	.byte	$cf
	.byte	$de
	.byte	$df
	.byte	$ce
	.byte	$cf
	.byte	$de
	.byte	$df
	.byte	$ae
	.byte	$af
	.byte	$be
	.byte	$bf
	.byte	$ce
	.byte	$cf
	.byte	$be
	.byte	$bf
	.byte	$ce
	.byte	$cf
	.byte	$de
	.byte	$df
	.byte	$ce
	.byte	$cf
	.byte	$be
	.byte	$b8
	.byte	$b9
	.byte	$df
	.byte	$ce
	.byte	$cf
	.byte	$de
	.byte	$df
	.byte	$ce
	.byte	$cf
	.byte	$de
	.byte	$df
	.byte	$ae
	.byte	$af
	.byte	$de
	.byte	$df
	.byte	$ae
	.byte	$af
	.byte	$be
	.byte	$bf
	.byte	$ce
	.byte	$cf
	.byte	$de
	.byte	$df
	.byte	$ce
	.byte	$cf
	.byte	$de
	.byte	$df
	.byte	$ae
	.byte	$af
	.byte	$de
	.byte	$df
	.byte	$ce
	.byte	$10
	.byte	$11
	.byte	$10
	.byte	$11
	.byte	$10
	.byte	$11
	.byte	$10
	.byte	$11
	.byte	$10
	.byte	$11
	.byte	$10
	.byte	$11
	.byte	$10
	.byte	$11
	.byte	$10
	.byte	$11
	.byte	$10
	.byte	$11
	.byte	$10
	.byte	$11
	.byte	$10
	.byte	$11
	.byte	$10
	.byte	$11
	.byte	$10
	.byte	$11
	.byte	$10
	.byte	$11
	.byte	$10
	.byte	$11
	.byte	$10
	.byte	$11
	.byte	$b0
	.byte	$b1
	.byte	$b0
	.byte	$b1
	.byte	$b0
	.byte	$b1
	.byte	$b0
	.byte	$b1
	.byte	$b0
	.byte	$b1
	.byte	$b0
	.byte	$b1
	.byte	$b0
	.byte	$b1
	.byte	$b0
	.byte	$b1
	.byte	$b0
	.byte	$b1
	.byte	$b0
	.byte	$b1
	.byte	$b0
	.byte	$b1
	.byte	$b0
	.byte	$b1
	.byte	$b0
	.byte	$b1
	.byte	$b0
	.byte	$b1
	.byte	$b0
	.byte	$b1
	.byte	$b0
	.byte	$b1
	.byte	$15
	.byte	$05
	.byte	$05
	.byte	$05
	.byte	$05
	.byte	$05
	.byte	$05
	.byte	$05
	.byte	$11
	.byte	$00
	.byte	$00
	.byte	$00
	.byte	$00
	.byte	$00
	.byte	$00
	.byte	$00
	.byte	$11
	.byte	$00
	.byte	$00
	.byte	$00
	.byte	$00
	.byte	$00
	.byte	$00
	.byte	$00
	.byte	$11
	.byte	$50
	.byte	$50
	.byte	$00
	.byte	$00
	.byte	$00
	.byte	$00
	.byte	$40
	.byte	$11
	.byte	$00
	.byte	$00
	.byte	$00
	.byte	$00
	.byte	$50
	.byte	$50
	.byte	$00
	.byte	$11
	.byte	$00
	.byte	$40
	.byte	$50
	.byte	$10
	.byte	$00
	.byte	$00
	.byte	$00
	.byte	$11
	.byte	$00
	.byte	$00
	.byte	$00
	.byte	$00
	.byte	$00
	.byte	$00
	.byte	$00
	.byte	$05
	.byte	$05
	.byte	$05
	.byte	$05
	.byte	$05
	.byte	$05
	.byte	$05
	.byte	$05
_Level2B:
	.byte	$b0
	.byte	$b1
	.byte	$b0
	.byte	$b1
	.byte	$b0
	.byte	$b1
	.byte	$b0
	.byte	$b1
	.byte	$b0
	.byte	$b1
	.byte	$b0
	.byte	$b1
	.byte	$b0
	.byte	$b1
	.byte	$b0
	.byte	$b1
	.byte	$b0
	.byte	$b1
	.byte	$b0
	.byte	$b1
	.byte	$b0
	.byte	$b1
	.byte	$b0
	.byte	$b1
	.byte	$b0
	.byte	$b1
	.byte	$b0
	.byte	$b1
	.byte	$b0
	.byte	$b1
	.byte	$b0
	.byte	$b1
	.byte	$b6
	.byte	$b7
	.byte	$b6
	.byte	$b7
	.byte	$b6
	.byte	$b7
	.byte	$b6
	.byte	$b7
	.byte	$b6
	.byte	$b7
	.byte	$b6
	.byte	$b7
	.byte	$b6
	.byte	$b7
	.byte	$b6
	.byte	$b7
	.byte	$b6
	.byte	$b7
	.byte	$b6
	.byte	$b7
	.byte	$b6
	.byte	$b7
	.byte	$b6
	.byte	$b7
	.byte	$b6
	.byte	$b7
	.byte	$b6
	.byte	$b7
	.byte	$b6
	.byte	$b7
	.byte	$b6
	.byte	$b7
	.byte	$af
	.byte	$de
	.byte	$df
	.byte	$ae
	.byte	$af
	.byte	$de
	.byte	$df
	.byte	$ae
	.byte	$af
	.byte	$de
	.byte	$df
	.byte	$ae
	.byte	$af
	.byte	$de
	.byte	$df
	.byte	$ae
	.byte	$af
	.byte	$de
	.byte	$df
	.byte	$ae
	.byte	$af
	.byte	$de
	.byte	$df
	.byte	$ae
	.byte	$af
	.byte	$de
	.byte	$df
	.byte	$ae
	.byte	$af
	.byte	$de
	.byte	$a4
	.byte	$a5
	.byte	$bf
	.byte	$ae
	.byte	$af
	.byte	$be
	.byte	$bf
	.byte	$ae
	.byte	$af
	.byte	$be
	.byte	$bf
	.byte	$ae
	.byte	$af
	.byte	$be
	.byte	$bf
	.byte	$ae
	.byte	$af
	.byte	$be
	.byte	$bf
	.byte	$ae
	.byte	$af
	.byte	$be
	.byte	$bf
	.byte	$ae
	.byte	$af
	.byte	$be
	.byte	$bf
	.byte	$ae
	.byte	$af
	.byte	$be
	.byte	$bf
	.byte	$ae
	.byte	$b4
	.byte	$b5
	.byte	$be
	.byte	$bf
	.byte	$ce
	.byte	$cf
	.byte	$be
	.byte	$bf
	.byte	$ce
	.byte	$cf
	.byte	$be
	.byte	$bf
	.byte	$ce
	.byte	$cf
	.byte	$be
	.byte	$bf
	.byte	$ce
	.byte	$cf
	.byte	$be
	.byte	$bf
	.byte	$ce
	.byte	$cf
	.byte	$be
	.byte	$bf
	.byte	$ce
	.byte	$cf
	.byte	$be
	.byte	$bf
	.byte	$ce
	.byte	$cf
	.byte	$be
	.byte	$bf
	.byte	$a4
	.byte	$a5
	.byte	$ce
	.byte	$cf
	.byte	$de
	.byte	$df
	.byte	$ce
	.byte	$cf
	.byte	$de
	.byte	$df
	.byte	$ce
	.byte	$cf
	.byte	$de
	.byte	$df
	.byte	$ce
	.byte	$cf
	.byte	$de
	.byte	$df
	.byte	$ce
	.byte	$cf
	.byte	$de
	.byte	$df
	.byte	$ce
	.byte	$cf
	.byte	$de
	.byte	$df
	.byte	$ce
	.byte	$cf
	.byte	$de
	.byte	$df
	.byte	$ce
	.byte	$cf
	.byte	$b4
	.byte	$b5
	.byte	$af
	.byte	$de
	.byte	$df
	.byte	$ae
	.byte	$af
	.byte	$de
	.byte	$df
	.byte	$ae
	.byte	$af
	.byte	$de
	.byte	$df
	.byte	$ae
	.byte	$af
	.byte	$de
	.byte	$df
	.byte	$ae
	.byte	$af
	.byte	$de
	.byte	$df
	.byte	$ae
	.byte	$af
	.byte	$de
	.byte	$df
	.byte	$ae
	.byte	$af
	.byte	$de
	.byte	$df
	.byte	$ae
	.byte	$af
	.byte	$de
	.byte	$a4
	.byte	$a5
	.byte	$bf
	.byte	$ae
	.byte	$af
	.byte	$be
	.byte	$bf
	.byte	$ae
	.byte	$af
	.byte	$be
	.byte	$bf
	.byte	$ae
	.byte	$af
	.byte	$be
	.byte	$bf
	.byte	$ae
	.byte	$af
	.byte	$be
	.byte	$bf
	.byte	$ae
	.byte	$af
	.byte	$be
	.byte	$bf
	.byte	$ae
	.byte	$af
	.byte	$be
	.byte	$bf
	.byte	$ae
	.byte	$af
	.byte	$be
	.byte	$bf
	.byte	$ae
	.byte	$b4
	.byte	$b5
	.byte	$be
	.byte	$bf
	.byte	$ce
	.byte	$cf
	.byte	$be
	.byte	$bf
	.byte	$ce
	.byte	$cf
	.byte	$be
	.byte	$bf
	.byte	$ce
	.byte	$cf
	.byte	$be
	.byte	$bf
	.byte	$ce
	.byte	$cf
	.byte	$be
	.byte	$bf
	.byte	$ce
	.byte	$cf
	.byte	$be
	.byte	$bf
	.byte	$ce
	.byte	$cf
	.byte	$be
	.byte	$bf
	.byte	$ce
	.byte	$cf
	.byte	$be
	.byte	$bf
	.byte	$a4
	.byte	$a5
	.byte	$ce
	.byte	$cf
	.byte	$de
	.byte	$df
	.byte	$ce
	.byte	$cf
	.byte	$de
	.byte	$df
	.byte	$ce
	.byte	$cf
	.byte	$de
	.byte	$df
	.byte	$ce
	.byte	$cf
	.byte	$de
	.byte	$df
	.byte	$ce
	.byte	$cf
	.byte	$de
	.byte	$df
	.byte	$ce
	.byte	$cf
	.byte	$de
	.byte	$df
	.byte	$ce
	.byte	$cf
	.byte	$de
	.byte	$df
	.byte	$ce
	.byte	$cf
	.byte	$b4
	.byte	$b5
	.byte	$af
	.byte	$de
	.byte	$df
	.byte	$ae
	.byte	$af
	.byte	$de
	.byte	$df
	.byte	$ae
	.byte	$af
	.byte	$de
	.byte	$84
	.byte	$85
	.byte	$84
	.byte	$85
	.byte	$84
	.byte	$85
	.byte	$84
	.byte	$85
	.byte	$ae
	.byte	$af
	.byte	$de
	.byte	$df
	.byte	$ae
	.byte	$af
	.byte	$de
	.byte	$df
	.byte	$ae
	.byte	$af
	.byte	$de
	.byte	$df
	.byte	$a4
	.byte	$a5
	.byte	$bf
	.byte	$ae
	.byte	$af
	.byte	$be
	.byte	$bf
	.byte	$ae
	.byte	$af
	.byte	$be
	.byte	$bf
	.byte	$ae
	.byte	$94
	.byte	$95
	.byte	$94
	.byte	$95
	.byte	$94
	.byte	$95
	.byte	$94
	.byte	$95
	.byte	$be
	.byte	$bf
	.byte	$ae
	.byte	$af
	.byte	$be
	.byte	$bf
	.byte	$ae
	.byte	$af
	.byte	$be
	.byte	$bf
	.byte	$ae
	.byte	$af
	.byte	$b4
	.byte	$b5
	.byte	$be
	.byte	$bf
	.byte	$ce
	.byte	$cf
	.byte	$be
	.byte	$bf
	.byte	$ce
	.byte	$cf
	.byte	$be
	.byte	$bf
	.byte	$ae
	.byte	$af
	.byte	$de
	.byte	$df
	.byte	$ae
	.byte	$af
	.byte	$de
	.byte	$df
	.byte	$ce
	.byte	$cf
	.byte	$be
	.byte	$bf
	.byte	$ce
	.byte	$cf
	.byte	$be
	.byte	$bf
	.byte	$ce
	.byte	$cf
	.byte	$be
	.byte	$bf
	.byte	$a4
	.byte	$a5
	.byte	$ce
	.byte	$cf
	.byte	$de
	.byte	$df
	.byte	$ce
	.byte	$cf
	.byte	$de
	.byte	$df
	.byte	$ce
	.byte	$cf
	.byte	$be
	.byte	$bf
	.byte	$ae
	.byte	$af
	.byte	$be
	.byte	$bf
	.byte	$ae
	.byte	$af
	.byte	$de
	.byte	$df
	.byte	$ce
	.byte	$cf
	.byte	$de
	.byte	$df
	.byte	$ce
	.byte	$cf
	.byte	$de
	.byte	$df
	.byte	$ce
	.byte	$cf
	.byte	$b4
	.byte	$b5
	.byte	$84
	.byte	$85
	.byte	$84
	.byte	$85
	.byte	$84
	.byte	$85
	.byte	$ae
	.byte	$af
	.byte	$de
	.byte	$df
	.byte	$ce
	.byte	$cf
	.byte	$be
	.byte	$bf
	.byte	$ce
	.byte	$cf
	.byte	$be
	.byte	$bf
	.byte	$ae
	.byte	$af
	.byte	$de
	.byte	$df
	.byte	$ae
	.byte	$af
	.byte	$de
	.byte	$df
	.byte	$ae
	.byte	$af
	.byte	$de
	.byte	$df
	.byte	$a4
	.byte	$a5
	.byte	$94
	.byte	$95
	.byte	$94
	.byte	$95
	.byte	$94
	.byte	$95
	.byte	$be
	.byte	$bf
	.byte	$ae
	.byte	$af
	.byte	$de
	.byte	$df
	.byte	$ce
	.byte	$cf
	.byte	$de
	.byte	$df
	.byte	$ce
	.byte	$cf
	.byte	$be
	.byte	$bf
	.byte	$ae
	.byte	$af
	.byte	$be
	.byte	$bf
	.byte	$ae
	.byte	$af
	.byte	$be
	.byte	$bf
	.byte	$ae
	.byte	$af
	.byte	$b4
	.byte	$b5
	.byte	$de
	.byte	$df
	.byte	$ae
	.byte	$af
	.byte	$de
	.byte	$df
	.byte	$ce
	.byte	$cf
	.byte	$be
	.byte	$bf
	.byte	$ae
	.byte	$af
	.byte	$de
	.byte	$df
	.byte	$ae
	.byte	$af
	.byte	$de
	.byte	$df
	.byte	$ce
	.byte	$cf
	.byte	$be
	.byte	$bf
	.byte	$ce
	.byte	$cf
	.byte	$04
	.byte	$05
	.byte	$ce
	.byte	$cf
	.byte	$be
	.byte	$bf
	.byte	$a4
	.byte	$a5
	.byte	$ae
	.byte	$af
	.byte	$be
	.byte	$bf
	.byte	$ae
	.byte	$af
	.byte	$de
	.byte	$df
	.byte	$ce
	.byte	$cf
	.byte	$be
	.byte	$bf
	.byte	$ae
	.byte	$af
	.byte	$be
	.byte	$bf
	.byte	$ae
	.byte	$af
	.byte	$de
	.byte	$df
	.byte	$ce
	.byte	$cf
	.byte	$de
	.byte	$df
	.byte	$14
	.byte	$15
	.byte	$de
	.byte	$df
	.byte	$ce
	.byte	$cf
	.byte	$b4
	.byte	$b5
	.byte	$be
	.byte	$bf
	.byte	$ce
	.byte	$cf
	.byte	$be
	.byte	$bf
	.byte	$ae
	.byte	$af
	.byte	$de
	.byte	$df
	.byte	$ce
	.byte	$cf
	.byte	$be
	.byte	$bf
	.byte	$ce
	.byte	$cf
	.byte	$be
	.byte	$bf
	.byte	$ae
	.byte	$af
	.byte	$84
	.byte	$85
	.byte	$84
	.byte	$85
	.byte	$84
	.byte	$85
	.byte	$84
	.byte	$85
	.byte	$de
	.byte	$df
	.byte	$a4
	.byte	$a5
	.byte	$ce
	.byte	$cf
	.byte	$de
	.byte	$df
	.byte	$ce
	.byte	$cf
	.byte	$be
	.byte	$bf
	.byte	$ae
	.byte	$af
	.byte	$de
	.byte	$df
	.byte	$ce
	.byte	$cf
	.byte	$de
	.byte	$df
	.byte	$ce
	.byte	$cf
	.byte	$be
	.byte	$bf
	.byte	$94
	.byte	$95
	.byte	$94
	.byte	$95
	.byte	$94
	.byte	$95
	.byte	$94
	.byte	$95
	.byte	$ae
	.byte	$af
	.byte	$b4
	.byte	$b5
	.byte	$df
	.byte	$ae
	.byte	$af
	.byte	$de
	.byte	$df
	.byte	$ce
	.byte	$cf
	.byte	$be
	.byte	$bf
	.byte	$ae
	.byte	$af
	.byte	$de
	.byte	$df
	.byte	$ae
	.byte	$af
	.byte	$de
	.byte	$df
	.byte	$ce
	.byte	$cf
	.byte	$de
	.byte	$df
	.byte	$ae
	.byte	$af
	.byte	$de
	.byte	$df
	.byte	$ae
	.byte	$af
	.byte	$be
	.byte	$bf
	.byte	$ae
	.byte	$a4
	.byte	$a5
	.byte	$af
	.byte	$be
	.byte	$bf
	.byte	$ae
	.byte	$af
	.byte	$de
	.byte	$df
	.byte	$ce
	.byte	$cf
	.byte	$be
	.byte	$bf
	.byte	$ae
	.byte	$af
	.byte	$be
	.byte	$bf
	.byte	$ae
	.byte	$af
	.byte	$de
	.byte	$df
	.byte	$ae
	.byte	$af
	.byte	$be
	.byte	$bf
	.byte	$ae
	.byte	$af
	.byte	$be
	.byte	$bf
	.byte	$ce
	.byte	$cf
	.byte	$be
	.byte	$b4
	.byte	$b5
	.byte	$be
	.byte	$bf
	.byte	$ce
	.byte	$cf
	.byte	$be
	.byte	$bf
	.byte	$ae
	.byte	$af
	.byte	$de
	.byte	$df
	.byte	$84
	.byte	$85
	.byte	$84
	.byte	$85
	.byte	$84
	.byte	$85
	.byte	$84
	.byte	$85
	.byte	$ae
	.byte	$af
	.byte	$be
	.byte	$bf
	.byte	$ce
	.byte	$cf
	.byte	$be
	.byte	$bf
	.byte	$ce
	.byte	$cf
	.byte	$de
	.byte	$df
	.byte	$a4
	.byte	$a5
	.byte	$ce
	.byte	$cf
	.byte	$de
	.byte	$df
	.byte	$ce
	.byte	$cf
	.byte	$be
	.byte	$bf
	.byte	$ae
	.byte	$af
	.byte	$94
	.byte	$95
	.byte	$94
	.byte	$95
	.byte	$94
	.byte	$95
	.byte	$94
	.byte	$95
	.byte	$be
	.byte	$bf
	.byte	$ce
	.byte	$cf
	.byte	$de
	.byte	$df
	.byte	$ce
	.byte	$cf
	.byte	$de
	.byte	$df
	.byte	$ae
	.byte	$af
	.byte	$b4
	.byte	$b5
	.byte	$de
	.byte	$df
	.byte	$ae
	.byte	$af
	.byte	$de
	.byte	$df
	.byte	$ce
	.byte	$cf
	.byte	$be
	.byte	$bf
	.byte	$ae
	.byte	$af
	.byte	$be
	.byte	$bf
	.byte	$ae
	.byte	$af
	.byte	$be
	.byte	$bf
	.byte	$ce
	.byte	$cf
	.byte	$de
	.byte	$df
	.byte	$ae
	.byte	$af
	.byte	$de
	.byte	$df
	.byte	$ae
	.byte	$af
	.byte	$be
	.byte	$bf
	.byte	$a4
	.byte	$a5
	.byte	$ae
	.byte	$af
	.byte	$be
	.byte	$bf
	.byte	$ae
	.byte	$af
	.byte	$de
	.byte	$df
	.byte	$ce
	.byte	$cf
	.byte	$be
	.byte	$bf
	.byte	$ce
	.byte	$cf
	.byte	$be
	.byte	$bf
	.byte	$ce
	.byte	$cf
	.byte	$de
	.byte	$df
	.byte	$ae
	.byte	$af
	.byte	$be
	.byte	$bf
	.byte	$ae
	.byte	$af
	.byte	$be
	.byte	$bf
	.byte	$ce
	.byte	$cf
	.byte	$b4
	.byte	$b5
	.byte	$bf
	.byte	$ce
	.byte	$cf
	.byte	$be
	.byte	$bf
	.byte	$ae
	.byte	$af
	.byte	$de
	.byte	$df
	.byte	$ce
	.byte	$cf
	.byte	$de
	.byte	$df
	.byte	$ce
	.byte	$cf
	.byte	$de
	.byte	$df
	.byte	$ae
	.byte	$af
	.byte	$be
	.byte	$bf
	.byte	$ce
	.byte	$cf
	.byte	$be
	.byte	$bf
	.byte	$ce
	.byte	$cf
	.byte	$de
	.byte	$df
	.byte	$ce
	.byte	$a4
	.byte	$a5
	.byte	$cf
	.byte	$de
	.byte	$df
	.byte	$ce
	.byte	$cf
	.byte	$be
	.byte	$bf
	.byte	$ae
	.byte	$af
	.byte	$de
	.byte	$df
	.byte	$ae
	.byte	$af
	.byte	$de
	.byte	$df
	.byte	$ae
	.byte	$af
	.byte	$be
	.byte	$bf
	.byte	$ce
	.byte	$cf
	.byte	$de
	.byte	$df
	.byte	$ce
	.byte	$cf
	.byte	$de
	.byte	$df
	.byte	$ae
	.byte	$af
	.byte	$de
	.byte	$b4
	.byte	$b5
	.byte	$10
	.byte	$11
	.byte	$10
	.byte	$11
	.byte	$10
	.byte	$11
	.byte	$10
	.byte	$11
	.byte	$10
	.byte	$11
	.byte	$10
	.byte	$11
	.byte	$10
	.byte	$11
	.byte	$10
	.byte	$11
	.byte	$10
	.byte	$11
	.byte	$10
	.byte	$11
	.byte	$10
	.byte	$11
	.byte	$10
	.byte	$11
	.byte	$10
	.byte	$11
	.byte	$10
	.byte	$11
	.byte	$10
	.byte	$11
	.byte	$10
	.byte	$11
	.byte	$b0
	.byte	$b1
	.byte	$b0
	.byte	$b1
	.byte	$b0
	.byte	$b1
	.byte	$b0
	.byte	$b1
	.byte	$b0
	.byte	$b1
	.byte	$b0
	.byte	$b1
	.byte	$b0
	.byte	$b1
	.byte	$b0
	.byte	$b1
	.byte	$b0
	.byte	$b1
	.byte	$b0
	.byte	$b1
	.byte	$b0
	.byte	$b1
	.byte	$b0
	.byte	$b1
	.byte	$b0
	.byte	$b1
	.byte	$b0
	.byte	$b1
	.byte	$b0
	.byte	$b1
	.byte	$b0
	.byte	$b1
	.byte	$05
	.byte	$05
	.byte	$05
	.byte	$05
	.byte	$05
	.byte	$05
	.byte	$05
	.byte	$45
	.byte	$00
	.byte	$00
	.byte	$00
	.byte	$00
	.byte	$00
	.byte	$00
	.byte	$00
	.byte	$44
	.byte	$00
	.byte	$00
	.byte	$40
	.byte	$50
	.byte	$10
	.byte	$00
	.byte	$00
	.byte	$44
	.byte	$50
	.byte	$10
	.byte	$00
	.byte	$00
	.byte	$00
	.byte	$00
	.byte	$00
	.byte	$44
	.byte	$00
	.byte	$00
	.byte	$00
	.byte	$00
	.byte	$00
	.byte	$50
	.byte	$52
	.byte	$44
	.byte	$00
	.byte	$00
	.byte	$40
	.byte	$50
	.byte	$10
	.byte	$00
	.byte	$00
	.byte	$44
	.byte	$00
	.byte	$00
	.byte	$00
	.byte	$00
	.byte	$00
	.byte	$00
	.byte	$00
	.byte	$44
	.byte	$05
	.byte	$05
	.byte	$05
	.byte	$05
	.byte	$05
	.byte	$05
	.byte	$05
	.byte	$05
_Level3A:
	.byte	$a6
	.byte	$a7
	.byte	$a6
	.byte	$a7
	.byte	$a6
	.byte	$a7
	.byte	$a6
	.byte	$a7
	.byte	$a6
	.byte	$a7
	.byte	$a6
	.byte	$a7
	.byte	$a6
	.byte	$a7
	.byte	$a6
	.byte	$a7
	.byte	$a6
	.byte	$a7
	.byte	$a6
	.byte	$a7
	.byte	$a6
	.byte	$a7
	.byte	$a6
	.byte	$a7
	.byte	$a6
	.byte	$a7
	.byte	$a6
	.byte	$a7
	.byte	$a6
	.byte	$a7
	.byte	$a6
	.byte	$a7
	.byte	$b4
	.byte	$b5
	.byte	$b4
	.byte	$b4
	.byte	$b4
	.byte	$b5
	.byte	$b4
	.byte	$b9
	.byte	$b4
	.byte	$b5
	.byte	$b4
	.byte	$b5
	.byte	$b4
	.byte	$b5
	.byte	$b4
	.byte	$b9
	.byte	$b4
	.byte	$b8
	.byte	$b9
	.byte	$b5
	.byte	$b4
	.byte	$b5
	.byte	$b8
	.byte	$b9
	.byte	$b4
	.byte	$b5
	.byte	$b4
	.byte	$b5
	.byte	$b4
	.byte	$b9
	.byte	$b4
	.byte	$b5
	.byte	$10
	.byte	$11
	.byte	$a3
	.byte	$a2
	.byte	$a3
	.byte	$a2
	.byte	$a3
	.byte	$a2
	.byte	$a3
	.byte	$a2
	.byte	$a3
	.byte	$a2
	.byte	$a3
	.byte	$a2
	.byte	$a3
	.byte	$a2
	.byte	$a3
	.byte	$a2
	.byte	$a3
	.byte	$a2
	.byte	$a3
	.byte	$a2
	.byte	$a3
	.byte	$a2
	.byte	$a3
	.byte	$a2
	.byte	$a3
	.byte	$a2
	.byte	$a3
	.byte	$a2
	.byte	$a3
	.byte	$a2
	.byte	$b6
	.byte	$b7
	.byte	$b2
	.byte	$b3
	.byte	$b2
	.byte	$b3
	.byte	$b2
	.byte	$b3
	.byte	$b2
	.byte	$b3
	.byte	$b2
	.byte	$b3
	.byte	$b2
	.byte	$b3
	.byte	$b2
	.byte	$b3
	.byte	$b2
	.byte	$b3
	.byte	$b2
	.byte	$b3
	.byte	$b2
	.byte	$b3
	.byte	$b2
	.byte	$b3
	.byte	$b2
	.byte	$b3
	.byte	$b2
	.byte	$b3
	.byte	$b2
	.byte	$b3
	.byte	$b2
	.byte	$b3
	.byte	$10
	.byte	$11
	.byte	$a3
	.byte	$a2
	.byte	$a3
	.byte	$a2
	.byte	$a3
	.byte	$a2
	.byte	$a3
	.byte	$a2
	.byte	$a3
	.byte	$a2
	.byte	$a3
	.byte	$a2
	.byte	$a3
	.byte	$a2
	.byte	$a3
	.byte	$a2
	.byte	$a3
	.byte	$a2
	.byte	$a3
	.byte	$a2
	.byte	$a3
	.byte	$a2
	.byte	$a3
	.byte	$a2
	.byte	$a3
	.byte	$a2
	.byte	$a3
	.byte	$a2
	.byte	$a3
	.byte	$a2
	.byte	$b6
	.byte	$b7
	.byte	$b2
	.byte	$b3
	.byte	$b2
	.byte	$b3
	.byte	$b2
	.byte	$b3
	.byte	$b2
	.byte	$b3
	.byte	$b2
	.byte	$b3
	.byte	$b2
	.byte	$b3
	.byte	$b2
	.byte	$b3
	.byte	$b2
	.byte	$b3
	.byte	$b2
	.byte	$b3
	.byte	$b2
	.byte	$b3
	.byte	$b2
	.byte	$b3
	.byte	$b2
	.byte	$b3
	.byte	$b2
	.byte	$b3
	.byte	$b2
	.byte	$b3
	.byte	$b2
	.byte	$b3
	.byte	$10
	.byte	$11
	.byte	$a3
	.byte	$a2
	.byte	$a3
	.byte	$a2
	.byte	$a3
	.byte	$a2
	.byte	$a3
	.byte	$a2
	.byte	$a3
	.byte	$a2
	.byte	$a3
	.byte	$a2
	.byte	$a3
	.byte	$a2
	.byte	$a3
	.byte	$a2
	.byte	$a3
	.byte	$a2
	.byte	$a3
	.byte	$a2
	.byte	$a3
	.byte	$a2
	.byte	$a3
	.byte	$a2
	.byte	$a3
	.byte	$a2
	.byte	$84
	.byte	$85
	.byte	$84
	.byte	$85
	.byte	$b6
	.byte	$b7
	.byte	$b2
	.byte	$b3
	.byte	$b2
	.byte	$b3
	.byte	$b2
	.byte	$b3
	.byte	$b2
	.byte	$b3
	.byte	$b2
	.byte	$b3
	.byte	$b2
	.byte	$b3
	.byte	$b2
	.byte	$b3
	.byte	$b2
	.byte	$b3
	.byte	$b2
	.byte	$b3
	.byte	$b2
	.byte	$b3
	.byte	$b2
	.byte	$b3
	.byte	$b2
	.byte	$b3
	.byte	$b2
	.byte	$b3
	.byte	$94
	.byte	$95
	.byte	$94
	.byte	$95
	.byte	$10
	.byte	$11
	.byte	$a3
	.byte	$a2
	.byte	$a3
	.byte	$a2
	.byte	$a3
	.byte	$a2
	.byte	$a3
	.byte	$a2
	.byte	$a3
	.byte	$a2
	.byte	$a3
	.byte	$a2
	.byte	$a3
	.byte	$a2
	.byte	$a3
	.byte	$a2
	.byte	$a3
	.byte	$a2
	.byte	$a3
	.byte	$a2
	.byte	$a3
	.byte	$a2
	.byte	$a3
	.byte	$a2
	.byte	$a3
	.byte	$a2
	.byte	$a3
	.byte	$a2
	.byte	$a3
	.byte	$a2
	.byte	$b6
	.byte	$b7
	.byte	$b2
	.byte	$b3
	.byte	$b2
	.byte	$b3
	.byte	$b2
	.byte	$b3
	.byte	$b2
	.byte	$b3
	.byte	$b2
	.byte	$b3
	.byte	$b2
	.byte	$b3
	.byte	$b2
	.byte	$b3
	.byte	$b2
	.byte	$b3
	.byte	$b2
	.byte	$b3
	.byte	$b2
	.byte	$b3
	.byte	$b2
	.byte	$b3
	.byte	$b2
	.byte	$b3
	.byte	$b2
	.byte	$b3
	.byte	$b2
	.byte	$b3
	.byte	$b2
	.byte	$b3
	.byte	$10
	.byte	$11
	.byte	$a3
	.byte	$a2
	.byte	$a3
	.byte	$a2
	.byte	$a3
	.byte	$a2
	.byte	$a3
	.byte	$a2
	.byte	$a3
	.byte	$a2
	.byte	$a3
	.byte	$a2
	.byte	$a3
	.byte	$a2
	.byte	$84
	.byte	$85
	.byte	$84
	.byte	$85
	.byte	$84
	.byte	$85
	.byte	$84
	.byte	$85
	.byte	$a3
	.byte	$a2
	.byte	$a3
	.byte	$a2
	.byte	$a3
	.byte	$a2
	.byte	$a3
	.byte	$a2
	.byte	$b6
	.byte	$b7
	.byte	$b2
	.byte	$b3
	.byte	$b2
	.byte	$b3
	.byte	$b2
	.byte	$b3
	.byte	$b2
	.byte	$b3
	.byte	$b2
	.byte	$b3
	.byte	$b2
	.byte	$b3
	.byte	$b2
	.byte	$b3
	.byte	$94
	.byte	$95
	.byte	$94
	.byte	$95
	.byte	$94
	.byte	$95
	.byte	$94
	.byte	$95
	.byte	$b2
	.byte	$b3
	.byte	$b2
	.byte	$b3
	.byte	$b2
	.byte	$b3
	.byte	$b2
	.byte	$b3
	.byte	$10
	.byte	$11
	.byte	$a3
	.byte	$a2
	.byte	$a3
	.byte	$a2
	.byte	$a3
	.byte	$a2
	.byte	$a3
	.byte	$a2
	.byte	$a3
	.byte	$a2
	.byte	$a3
	.byte	$a2
	.byte	$a3
	.byte	$a2
	.byte	$a3
	.byte	$a2
	.byte	$a3
	.byte	$a2
	.byte	$a3
	.byte	$a2
	.byte	$a3
	.byte	$a2
	.byte	$a3
	.byte	$a2
	.byte	$a3
	.byte	$a2
	.byte	$a3
	.byte	$a2
	.byte	$a3
	.byte	$a2
	.byte	$b6
	.byte	$b7
	.byte	$b2
	.byte	$b3
	.byte	$b2
	.byte	$b3
	.byte	$b2
	.byte	$b3
	.byte	$b2
	.byte	$b3
	.byte	$b2
	.byte	$b3
	.byte	$b2
	.byte	$b3
	.byte	$b2
	.byte	$b3
	.byte	$b2
	.byte	$b3
	.byte	$b2
	.byte	$b3
	.byte	$b2
	.byte	$b3
	.byte	$b2
	.byte	$b3
	.byte	$b2
	.byte	$b3
	.byte	$b2
	.byte	$b3
	.byte	$b2
	.byte	$b3
	.byte	$b2
	.byte	$b3
	.byte	$10
	.byte	$11
	.byte	$a3
	.byte	$a2
	.byte	$84
	.byte	$85
	.byte	$84
	.byte	$85
	.byte	$84
	.byte	$85
	.byte	$84
	.byte	$85
	.byte	$a3
	.byte	$a2
	.byte	$a3
	.byte	$a2
	.byte	$a3
	.byte	$a2
	.byte	$a3
	.byte	$a2
	.byte	$a3
	.byte	$a2
	.byte	$a3
	.byte	$a2
	.byte	$a3
	.byte	$a2
	.byte	$a3
	.byte	$a2
	.byte	$a3
	.byte	$a2
	.byte	$a3
	.byte	$a2
	.byte	$b6
	.byte	$b7
	.byte	$b2
	.byte	$b3
	.byte	$94
	.byte	$95
	.byte	$94
	.byte	$95
	.byte	$94
	.byte	$95
	.byte	$94
	.byte	$95
	.byte	$b2
	.byte	$b3
	.byte	$b2
	.byte	$b3
	.byte	$b2
	.byte	$b3
	.byte	$b2
	.byte	$b3
	.byte	$b2
	.byte	$b3
	.byte	$b2
	.byte	$b3
	.byte	$b2
	.byte	$b3
	.byte	$b2
	.byte	$b3
	.byte	$b2
	.byte	$b3
	.byte	$b2
	.byte	$b3
	.byte	$10
	.byte	$11
	.byte	$a3
	.byte	$a2
	.byte	$a3
	.byte	$a2
	.byte	$a3
	.byte	$a2
	.byte	$a3
	.byte	$a2
	.byte	$a3
	.byte	$a2
	.byte	$a3
	.byte	$a2
	.byte	$a3
	.byte	$a2
	.byte	$a3
	.byte	$a2
	.byte	$a3
	.byte	$a2
	.byte	$a3
	.byte	$a2
	.byte	$a3
	.byte	$a2
	.byte	$a3
	.byte	$a2
	.byte	$a3
	.byte	$a2
	.byte	$a3
	.byte	$a2
	.byte	$a3
	.byte	$a2
	.byte	$b6
	.byte	$b7
	.byte	$b2
	.byte	$b3
	.byte	$b2
	.byte	$b3
	.byte	$b2
	.byte	$b3
	.byte	$b2
	.byte	$b3
	.byte	$b2
	.byte	$b3
	.byte	$b2
	.byte	$b3
	.byte	$b2
	.byte	$b3
	.byte	$b2
	.byte	$b3
	.byte	$b2
	.byte	$b3
	.byte	$b2
	.byte	$b3
	.byte	$b2
	.byte	$b3
	.byte	$b2
	.byte	$b3
	.byte	$b2
	.byte	$b3
	.byte	$b2
	.byte	$b3
	.byte	$b2
	.byte	$b3
	.byte	$10
	.byte	$11
	.byte	$a3
	.byte	$a2
	.byte	$a3
	.byte	$a2
	.byte	$a3
	.byte	$a2
	.byte	$a3
	.byte	$a2
	.byte	$a3
	.byte	$a2
	.byte	$a3
	.byte	$a2
	.byte	$a3
	.byte	$a2
	.byte	$84
	.byte	$85
	.byte	$84
	.byte	$85
	.byte	$84
	.byte	$85
	.byte	$84
	.byte	$85
	.byte	$a3
	.byte	$a2
	.byte	$a3
	.byte	$a2
	.byte	$a3
	.byte	$a2
	.byte	$84
	.byte	$85
	.byte	$b6
	.byte	$b7
	.byte	$b2
	.byte	$b3
	.byte	$b2
	.byte	$b3
	.byte	$b2
	.byte	$b3
	.byte	$b2
	.byte	$b3
	.byte	$b2
	.byte	$b3
	.byte	$b2
	.byte	$b3
	.byte	$b2
	.byte	$b3
	.byte	$94
	.byte	$95
	.byte	$94
	.byte	$95
	.byte	$94
	.byte	$95
	.byte	$94
	.byte	$95
	.byte	$b2
	.byte	$b3
	.byte	$b2
	.byte	$b3
	.byte	$b2
	.byte	$b3
	.byte	$94
	.byte	$95
	.byte	$10
	.byte	$11
	.byte	$a3
	.byte	$a2
	.byte	$a3
	.byte	$a2
	.byte	$a3
	.byte	$a2
	.byte	$a3
	.byte	$a2
	.byte	$a3
	.byte	$a2
	.byte	$a3
	.byte	$a2
	.byte	$a3
	.byte	$a2
	.byte	$a3
	.byte	$a2
	.byte	$a3
	.byte	$a2
	.byte	$a3
	.byte	$a2
	.byte	$a3
	.byte	$a2
	.byte	$a3
	.byte	$a2
	.byte	$a3
	.byte	$a2
	.byte	$a3
	.byte	$a2
	.byte	$a3
	.byte	$a2
	.byte	$b6
	.byte	$b7
	.byte	$b2
	.byte	$b3
	.byte	$b2
	.byte	$b3
	.byte	$b2
	.byte	$b3
	.byte	$b2
	.byte	$b3
	.byte	$b2
	.byte	$b3
	.byte	$b2
	.byte	$b3
	.byte	$b2
	.byte	$b3
	.byte	$b2
	.byte	$b3
	.byte	$b2
	.byte	$b3
	.byte	$b2
	.byte	$b3
	.byte	$b2
	.byte	$b3
	.byte	$b2
	.byte	$b3
	.byte	$b2
	.byte	$b3
	.byte	$b2
	.byte	$b3
	.byte	$b2
	.byte	$b3
	.byte	$10
	.byte	$11
	.byte	$a3
	.byte	$a2
	.byte	$a3
	.byte	$a2
	.byte	$a3
	.byte	$a2
	.byte	$a3
	.byte	$a2
	.byte	$a3
	.byte	$a2
	.byte	$a3
	.byte	$a2
	.byte	$a3
	.byte	$a2
	.byte	$a3
	.byte	$a2
	.byte	$a3
	.byte	$a2
	.byte	$a3
	.byte	$a2
	.byte	$a3
	.byte	$a2
	.byte	$a3
	.byte	$a2
	.byte	$a3
	.byte	$a2
	.byte	$a3
	.byte	$a2
	.byte	$a3
	.byte	$a2
	.byte	$b6
	.byte	$b7
	.byte	$b2
	.byte	$b3
	.byte	$b2
	.byte	$b3
	.byte	$b2
	.byte	$b3
	.byte	$b2
	.byte	$b3
	.byte	$b2
	.byte	$b3
	.byte	$b2
	.byte	$b3
	.byte	$b2
	.byte	$b3
	.byte	$b2
	.byte	$b3
	.byte	$b2
	.byte	$b3
	.byte	$b2
	.byte	$b3
	.byte	$b2
	.byte	$b3
	.byte	$b2
	.byte	$b3
	.byte	$b2
	.byte	$b3
	.byte	$b2
	.byte	$b3
	.byte	$b2
	.byte	$b3
	.byte	$10
	.byte	$11
	.byte	$a3
	.byte	$a2
	.byte	$a3
	.byte	$a2
	.byte	$a3
	.byte	$a2
	.byte	$a3
	.byte	$a2
	.byte	$a3
	.byte	$a2
	.byte	$a3
	.byte	$a2
	.byte	$a3
	.byte	$a2
	.byte	$a3
	.byte	$a2
	.byte	$a3
	.byte	$a2
	.byte	$a3
	.byte	$a2
	.byte	$a3
	.byte	$a2
	.byte	$a3
	.byte	$a2
	.byte	$a3
	.byte	$a2
	.byte	$a3
	.byte	$a2
	.byte	$a3
	.byte	$a2
	.byte	$b6
	.byte	$b7
	.byte	$b2
	.byte	$b3
	.byte	$b2
	.byte	$b3
	.byte	$b2
	.byte	$b3
	.byte	$b2
	.byte	$b3
	.byte	$b2
	.byte	$b3
	.byte	$b2
	.byte	$b3
	.byte	$b2
	.byte	$b3
	.byte	$b2
	.byte	$b3
	.byte	$b2
	.byte	$b3
	.byte	$b2
	.byte	$b3
	.byte	$b2
	.byte	$b3
	.byte	$b2
	.byte	$b3
	.byte	$b2
	.byte	$b3
	.byte	$b2
	.byte	$b3
	.byte	$b2
	.byte	$b3
	.byte	$10
	.byte	$11
	.byte	$a3
	.byte	$a2
	.byte	$a3
	.byte	$a2
	.byte	$a3
	.byte	$a2
	.byte	$a3
	.byte	$a2
	.byte	$a3
	.byte	$a2
	.byte	$a3
	.byte	$a2
	.byte	$a3
	.byte	$a2
	.byte	$a3
	.byte	$a2
	.byte	$a3
	.byte	$a2
	.byte	$a3
	.byte	$a2
	.byte	$a3
	.byte	$a2
	.byte	$a3
	.byte	$a2
	.byte	$a3
	.byte	$a2
	.byte	$a3
	.byte	$a2
	.byte	$a3
	.byte	$a2
	.byte	$b6
	.byte	$b7
	.byte	$b2
	.byte	$b3
	.byte	$b2
	.byte	$b3
	.byte	$b2
	.byte	$b3
	.byte	$b2
	.byte	$b3
	.byte	$b2
	.byte	$b3
	.byte	$b2
	.byte	$b3
	.byte	$b2
	.byte	$b3
	.byte	$b2
	.byte	$b3
	.byte	$b2
	.byte	$b3
	.byte	$b2
	.byte	$b3
	.byte	$b2
	.byte	$b3
	.byte	$b2
	.byte	$b3
	.byte	$b2
	.byte	$b3
	.byte	$b2
	.byte	$b3
	.byte	$b2
	.byte	$b3
	.byte	$a0
	.byte	$a1
	.byte	$a0
	.byte	$a1
	.byte	$a0
	.byte	$a1
	.byte	$a0
	.byte	$a1
	.byte	$a0
	.byte	$a1
	.byte	$a0
	.byte	$a1
	.byte	$a0
	.byte	$a1
	.byte	$a0
	.byte	$a1
	.byte	$a0
	.byte	$a1
	.byte	$a0
	.byte	$a1
	.byte	$a0
	.byte	$a1
	.byte	$a0
	.byte	$a1
	.byte	$a0
	.byte	$a1
	.byte	$a0
	.byte	$a1
	.byte	$a0
	.byte	$a1
	.byte	$a0
	.byte	$a1
	.byte	$b0
	.byte	$b1
	.byte	$b0
	.byte	$b1
	.byte	$b0
	.byte	$b1
	.byte	$b0
	.byte	$b1
	.byte	$b0
	.byte	$b1
	.byte	$b0
	.byte	$b1
	.byte	$b0
	.byte	$b1
	.byte	$b0
	.byte	$b1
	.byte	$b0
	.byte	$b1
	.byte	$b0
	.byte	$b1
	.byte	$b0
	.byte	$b1
	.byte	$b0
	.byte	$b1
	.byte	$b0
	.byte	$b1
	.byte	$b0
	.byte	$b1
	.byte	$b0
	.byte	$b1
	.byte	$b0
	.byte	$b1
	.byte	$7f
	.byte	$5f
	.byte	$5f
	.byte	$5f
	.byte	$5f
	.byte	$5f
	.byte	$5f
	.byte	$5f
	.byte	$77
	.byte	$55
	.byte	$55
	.byte	$55
	.byte	$55
	.byte	$55
	.byte	$55
	.byte	$f5
	.byte	$77
	.byte	$55
	.byte	$55
	.byte	$55
	.byte	$f5
	.byte	$f5
	.byte	$55
	.byte	$55
	.byte	$77
	.byte	$f5
	.byte	$f5
	.byte	$55
	.byte	$55
	.byte	$55
	.byte	$55
	.byte	$55
	.byte	$77
	.byte	$55
	.byte	$55
	.byte	$55
	.byte	$f5
	.byte	$f5
	.byte	$55
	.byte	$d5
	.byte	$77
	.byte	$55
	.byte	$55
	.byte	$55
	.byte	$55
	.byte	$55
	.byte	$55
	.byte	$55
	.byte	$77
	.byte	$55
	.byte	$55
	.byte	$55
	.byte	$55
	.byte	$55
	.byte	$55
	.byte	$55
	.byte	$0f
	.byte	$0f
	.byte	$0f
	.byte	$0f
	.byte	$0f
	.byte	$0f
	.byte	$0f
	.byte	$0f
_Level3B:
	.byte	$a6
	.byte	$a7
	.byte	$a6
	.byte	$a7
	.byte	$a6
	.byte	$a7
	.byte	$a6
	.byte	$a7
	.byte	$a6
	.byte	$a7
	.byte	$a6
	.byte	$a7
	.byte	$a6
	.byte	$a7
	.byte	$a6
	.byte	$a7
	.byte	$a6
	.byte	$a7
	.byte	$a6
	.byte	$a7
	.byte	$a6
	.byte	$a7
	.byte	$a6
	.byte	$a7
	.byte	$a6
	.byte	$a7
	.byte	$a6
	.byte	$a7
	.byte	$a6
	.byte	$a7
	.byte	$a6
	.byte	$a7
	.byte	$b4
	.byte	$b5
	.byte	$b4
	.byte	$b5
	.byte	$b4
	.byte	$b5
	.byte	$b4
	.byte	$b4
	.byte	$b4
	.byte	$b5
	.byte	$b4
	.byte	$b5
	.byte	$b4
	.byte	$b9
	.byte	$b4
	.byte	$b5
	.byte	$b4
	.byte	$b5
	.byte	$b4
	.byte	$b5
	.byte	$b4
	.byte	$b9
	.byte	$b4
	.byte	$b5
	.byte	$b4
	.byte	$b8
	.byte	$b9
	.byte	$b5
	.byte	$b4
	.byte	$b5
	.byte	$b8
	.byte	$b9
	.byte	$a3
	.byte	$a2
	.byte	$a3
	.byte	$a2
	.byte	$a3
	.byte	$a2
	.byte	$a3
	.byte	$a2
	.byte	$a3
	.byte	$a2
	.byte	$a3
	.byte	$a2
	.byte	$a3
	.byte	$a2
	.byte	$a3
	.byte	$a2
	.byte	$a3
	.byte	$a2
	.byte	$a3
	.byte	$a2
	.byte	$a3
	.byte	$a2
	.byte	$a3
	.byte	$a2
	.byte	$a3
	.byte	$a2
	.byte	$a3
	.byte	$a2
	.byte	$a3
	.byte	$a2
	.byte	$10
	.byte	$11
	.byte	$b2
	.byte	$b3
	.byte	$b2
	.byte	$b3
	.byte	$b2
	.byte	$b3
	.byte	$b2
	.byte	$b3
	.byte	$b2
	.byte	$b3
	.byte	$b2
	.byte	$b3
	.byte	$b2
	.byte	$b3
	.byte	$b2
	.byte	$b3
	.byte	$b2
	.byte	$b3
	.byte	$b2
	.byte	$b3
	.byte	$b2
	.byte	$b3
	.byte	$b2
	.byte	$b3
	.byte	$b2
	.byte	$b3
	.byte	$b2
	.byte	$b3
	.byte	$b2
	.byte	$b3
	.byte	$b6
	.byte	$b7
	.byte	$a3
	.byte	$a2
	.byte	$a3
	.byte	$a2
	.byte	$a3
	.byte	$a2
	.byte	$a3
	.byte	$a2
	.byte	$a3
	.byte	$a2
	.byte	$a3
	.byte	$a2
	.byte	$a3
	.byte	$a2
	.byte	$a3
	.byte	$a2
	.byte	$a3
	.byte	$a2
	.byte	$a3
	.byte	$a2
	.byte	$a3
	.byte	$a2
	.byte	$a3
	.byte	$a2
	.byte	$a3
	.byte	$a2
	.byte	$04
	.byte	$05
	.byte	$a3
	.byte	$a2
	.byte	$10
	.byte	$11
	.byte	$b2
	.byte	$b3
	.byte	$b2
	.byte	$b3
	.byte	$b2
	.byte	$b3
	.byte	$b2
	.byte	$b3
	.byte	$b2
	.byte	$b3
	.byte	$b2
	.byte	$b3
	.byte	$b2
	.byte	$b3
	.byte	$b2
	.byte	$b3
	.byte	$b2
	.byte	$b3
	.byte	$b2
	.byte	$b3
	.byte	$b2
	.byte	$b3
	.byte	$b2
	.byte	$b3
	.byte	$b2
	.byte	$b3
	.byte	$14
	.byte	$15
	.byte	$b2
	.byte	$b3
	.byte	$b6
	.byte	$b7
	.byte	$84
	.byte	$85
	.byte	$84
	.byte	$85
	.byte	$a3
	.byte	$a2
	.byte	$a3
	.byte	$a2
	.byte	$a3
	.byte	$a2
	.byte	$a3
	.byte	$a2
	.byte	$a3
	.byte	$a2
	.byte	$a3
	.byte	$a2
	.byte	$a3
	.byte	$a2
	.byte	$a3
	.byte	$a2
	.byte	$84
	.byte	$85
	.byte	$84
	.byte	$85
	.byte	$84
	.byte	$85
	.byte	$84
	.byte	$85
	.byte	$a3
	.byte	$a2
	.byte	$10
	.byte	$11
	.byte	$94
	.byte	$95
	.byte	$94
	.byte	$95
	.byte	$b2
	.byte	$b3
	.byte	$b2
	.byte	$b3
	.byte	$b2
	.byte	$b3
	.byte	$b2
	.byte	$b3
	.byte	$b2
	.byte	$b3
	.byte	$b2
	.byte	$b3
	.byte	$b2
	.byte	$b3
	.byte	$b2
	.byte	$b3
	.byte	$94
	.byte	$95
	.byte	$94
	.byte	$95
	.byte	$94
	.byte	$95
	.byte	$94
	.byte	$95
	.byte	$b2
	.byte	$b3
	.byte	$b6
	.byte	$b7
	.byte	$a3
	.byte	$a2
	.byte	$a3
	.byte	$a2
	.byte	$a3
	.byte	$a2
	.byte	$a3
	.byte	$a2
	.byte	$a3
	.byte	$a2
	.byte	$a3
	.byte	$a2
	.byte	$a3
	.byte	$a2
	.byte	$a3
	.byte	$a2
	.byte	$a3
	.byte	$a2
	.byte	$a3
	.byte	$a2
	.byte	$a3
	.byte	$a2
	.byte	$a3
	.byte	$a2
	.byte	$a3
	.byte	$a2
	.byte	$a3
	.byte	$a2
	.byte	$a3
	.byte	$a2
	.byte	$10
	.byte	$11
	.byte	$b2
	.byte	$b3
	.byte	$b2
	.byte	$b3
	.byte	$b2
	.byte	$b3
	.byte	$b2
	.byte	$b3
	.byte	$b2
	.byte	$b3
	.byte	$b2
	.byte	$b3
	.byte	$b2
	.byte	$b3
	.byte	$b2
	.byte	$b3
	.byte	$b2
	.byte	$b3
	.byte	$b2
	.byte	$b3
	.byte	$b2
	.byte	$b3
	.byte	$b2
	.byte	$b3
	.byte	$b2
	.byte	$b3
	.byte	$b2
	.byte	$b3
	.byte	$b2
	.byte	$b3
	.byte	$b6
	.byte	$b7
	.byte	$a3
	.byte	$a2
	.byte	$a3
	.byte	$a2
	.byte	$a3
	.byte	$a2
	.byte	$a3
	.byte	$a2
	.byte	$84
	.byte	$85
	.byte	$84
	.byte	$85
	.byte	$84
	.byte	$85
	.byte	$84
	.byte	$85
	.byte	$a3
	.byte	$a2
	.byte	$a3
	.byte	$a2
	.byte	$a3
	.byte	$a2
	.byte	$a3
	.byte	$a2
	.byte	$a3
	.byte	$a2
	.byte	$a3
	.byte	$a2
	.byte	$a3
	.byte	$a2
	.byte	$10
	.byte	$11
	.byte	$b2
	.byte	$b3
	.byte	$b2
	.byte	$b3
	.byte	$b2
	.byte	$b3
	.byte	$b2
	.byte	$b3
	.byte	$94
	.byte	$95
	.byte	$94
	.byte	$95
	.byte	$94
	.byte	$95
	.byte	$94
	.byte	$95
	.byte	$b2
	.byte	$b3
	.byte	$b2
	.byte	$b3
	.byte	$b2
	.byte	$b3
	.byte	$b2
	.byte	$b3
	.byte	$b2
	.byte	$b3
	.byte	$b2
	.byte	$b3
	.byte	$b2
	.byte	$b3
	.byte	$b6
	.byte	$b7
	.byte	$a3
	.byte	$a2
	.byte	$a3
	.byte	$a2
	.byte	$a3
	.byte	$a2
	.byte	$a3
	.byte	$a2
	.byte	$a3
	.byte	$a2
	.byte	$a3
	.byte	$a2
	.byte	$a3
	.byte	$a2
	.byte	$a3
	.byte	$a2
	.byte	$a3
	.byte	$a2
	.byte	$a3
	.byte	$a2
	.byte	$a3
	.byte	$a2
	.byte	$a3
	.byte	$a2
	.byte	$a3
	.byte	$a2
	.byte	$a3
	.byte	$a2
	.byte	$a3
	.byte	$a2
	.byte	$10
	.byte	$11
	.byte	$b2
	.byte	$b3
	.byte	$b2
	.byte	$b3
	.byte	$b2
	.byte	$b3
	.byte	$b2
	.byte	$b3
	.byte	$b2
	.byte	$b3
	.byte	$b2
	.byte	$b3
	.byte	$b2
	.byte	$b3
	.byte	$b2
	.byte	$b3
	.byte	$b2
	.byte	$b3
	.byte	$b2
	.byte	$b3
	.byte	$b2
	.byte	$b3
	.byte	$b2
	.byte	$b3
	.byte	$b2
	.byte	$b3
	.byte	$b2
	.byte	$b3
	.byte	$b2
	.byte	$b3
	.byte	$b6
	.byte	$b7
	.byte	$a3
	.byte	$a2
	.byte	$a3
	.byte	$a2
	.byte	$a3
	.byte	$a2
	.byte	$a3
	.byte	$a2
	.byte	$a3
	.byte	$a2
	.byte	$a3
	.byte	$a2
	.byte	$a3
	.byte	$a2
	.byte	$a3
	.byte	$a2
	.byte	$84
	.byte	$85
	.byte	$84
	.byte	$85
	.byte	$84
	.byte	$85
	.byte	$a3
	.byte	$a2
	.byte	$a3
	.byte	$a2
	.byte	$a3
	.byte	$a2
	.byte	$a3
	.byte	$a2
	.byte	$10
	.byte	$11
	.byte	$b2
	.byte	$b3
	.byte	$b2
	.byte	$b3
	.byte	$b2
	.byte	$b3
	.byte	$b2
	.byte	$b3
	.byte	$b2
	.byte	$b3
	.byte	$b2
	.byte	$b3
	.byte	$b2
	.byte	$b3
	.byte	$b2
	.byte	$b3
	.byte	$94
	.byte	$95
	.byte	$94
	.byte	$95
	.byte	$94
	.byte	$95
	.byte	$b2
	.byte	$b3
	.byte	$b2
	.byte	$b3
	.byte	$b2
	.byte	$b3
	.byte	$b2
	.byte	$b3
	.byte	$b6
	.byte	$b7
	.byte	$a3
	.byte	$a2
	.byte	$a3
	.byte	$a2
	.byte	$a3
	.byte	$a2
	.byte	$a3
	.byte	$a2
	.byte	$a3
	.byte	$a2
	.byte	$a3
	.byte	$a2
	.byte	$a3
	.byte	$a2
	.byte	$a3
	.byte	$a2
	.byte	$a3
	.byte	$a2
	.byte	$a3
	.byte	$a2
	.byte	$a3
	.byte	$a2
	.byte	$a3
	.byte	$a2
	.byte	$a3
	.byte	$a2
	.byte	$a3
	.byte	$a2
	.byte	$a3
	.byte	$a2
	.byte	$10
	.byte	$11
	.byte	$b2
	.byte	$b3
	.byte	$b2
	.byte	$b3
	.byte	$b2
	.byte	$b3
	.byte	$b2
	.byte	$b3
	.byte	$b2
	.byte	$b3
	.byte	$b2
	.byte	$b3
	.byte	$b2
	.byte	$b3
	.byte	$b2
	.byte	$b3
	.byte	$b2
	.byte	$b3
	.byte	$b2
	.byte	$b3
	.byte	$b2
	.byte	$b3
	.byte	$b2
	.byte	$b3
	.byte	$b2
	.byte	$b3
	.byte	$b2
	.byte	$b3
	.byte	$b2
	.byte	$b3
	.byte	$b6
	.byte	$b7
	.byte	$84
	.byte	$85
	.byte	$84
	.byte	$85
	.byte	$84
	.byte	$85
	.byte	$a3
	.byte	$a2
	.byte	$a3
	.byte	$a2
	.byte	$a3
	.byte	$a2
	.byte	$a3
	.byte	$a2
	.byte	$a3
	.byte	$a2
	.byte	$a3
	.byte	$a2
	.byte	$a3
	.byte	$a2
	.byte	$a3
	.byte	$a2
	.byte	$a3
	.byte	$a2
	.byte	$84
	.byte	$85
	.byte	$84
	.byte	$85
	.byte	$84
	.byte	$85
	.byte	$10
	.byte	$11
	.byte	$94
	.byte	$95
	.byte	$94
	.byte	$95
	.byte	$94
	.byte	$95
	.byte	$b2
	.byte	$b3
	.byte	$b2
	.byte	$b3
	.byte	$b2
	.byte	$b3
	.byte	$b2
	.byte	$b3
	.byte	$b2
	.byte	$b3
	.byte	$b2
	.byte	$b3
	.byte	$b2
	.byte	$b3
	.byte	$b2
	.byte	$b3
	.byte	$b2
	.byte	$b3
	.byte	$94
	.byte	$95
	.byte	$94
	.byte	$95
	.byte	$94
	.byte	$95
	.byte	$b6
	.byte	$b7
	.byte	$a3
	.byte	$a2
	.byte	$a3
	.byte	$a2
	.byte	$a3
	.byte	$a2
	.byte	$a3
	.byte	$a2
	.byte	$a3
	.byte	$a2
	.byte	$a3
	.byte	$a2
	.byte	$a3
	.byte	$a2
	.byte	$a3
	.byte	$a2
	.byte	$a3
	.byte	$a2
	.byte	$a3
	.byte	$a2
	.byte	$a3
	.byte	$a2
	.byte	$a3
	.byte	$a2
	.byte	$a3
	.byte	$a2
	.byte	$a3
	.byte	$a2
	.byte	$a3
	.byte	$a2
	.byte	$10
	.byte	$11
	.byte	$b2
	.byte	$b3
	.byte	$b2
	.byte	$b3
	.byte	$b2
	.byte	$b3
	.byte	$b2
	.byte	$b3
	.byte	$b2
	.byte	$b3
	.byte	$b2
	.byte	$b3
	.byte	$b2
	.byte	$b3
	.byte	$b2
	.byte	$b3
	.byte	$b2
	.byte	$b3
	.byte	$b2
	.byte	$b3
	.byte	$b2
	.byte	$b3
	.byte	$b2
	.byte	$b3
	.byte	$b2
	.byte	$b3
	.byte	$b2
	.byte	$b3
	.byte	$b2
	.byte	$b3
	.byte	$b6
	.byte	$b7
	.byte	$a3
	.byte	$a2
	.byte	$a3
	.byte	$a2
	.byte	$a3
	.byte	$a2
	.byte	$a3
	.byte	$a2
	.byte	$a3
	.byte	$a2
	.byte	$84
	.byte	$85
	.byte	$84
	.byte	$85
	.byte	$84
	.byte	$85
	.byte	$84
	.byte	$85
	.byte	$a3
	.byte	$a2
	.byte	$a3
	.byte	$a2
	.byte	$a3
	.byte	$a2
	.byte	$a3
	.byte	$a2
	.byte	$a3
	.byte	$a2
	.byte	$a3
	.byte	$a2
	.byte	$10
	.byte	$11
	.byte	$b2
	.byte	$b3
	.byte	$b2
	.byte	$b3
	.byte	$b2
	.byte	$b3
	.byte	$b2
	.byte	$b3
	.byte	$b2
	.byte	$b3
	.byte	$94
	.byte	$95
	.byte	$94
	.byte	$95
	.byte	$94
	.byte	$95
	.byte	$94
	.byte	$95
	.byte	$b2
	.byte	$b3
	.byte	$b2
	.byte	$b3
	.byte	$b2
	.byte	$b3
	.byte	$b2
	.byte	$b3
	.byte	$b2
	.byte	$b3
	.byte	$b2
	.byte	$b3
	.byte	$b6
	.byte	$b7
	.byte	$a3
	.byte	$a2
	.byte	$a3
	.byte	$a2
	.byte	$a3
	.byte	$a2
	.byte	$a3
	.byte	$a2
	.byte	$a3
	.byte	$a2
	.byte	$a3
	.byte	$a2
	.byte	$a3
	.byte	$a2
	.byte	$a3
	.byte	$a2
	.byte	$a3
	.byte	$a2
	.byte	$a3
	.byte	$a2
	.byte	$a3
	.byte	$a2
	.byte	$a3
	.byte	$a2
	.byte	$a3
	.byte	$a2
	.byte	$a3
	.byte	$a2
	.byte	$a3
	.byte	$a2
	.byte	$10
	.byte	$11
	.byte	$b2
	.byte	$b3
	.byte	$b2
	.byte	$b3
	.byte	$b2
	.byte	$b3
	.byte	$b2
	.byte	$b3
	.byte	$b2
	.byte	$b3
	.byte	$b2
	.byte	$b3
	.byte	$b2
	.byte	$b3
	.byte	$b2
	.byte	$b3
	.byte	$b2
	.byte	$b3
	.byte	$b2
	.byte	$b3
	.byte	$b2
	.byte	$b3
	.byte	$b2
	.byte	$b3
	.byte	$b2
	.byte	$b3
	.byte	$b2
	.byte	$b3
	.byte	$b2
	.byte	$b3
	.byte	$b6
	.byte	$b7
	.byte	$a3
	.byte	$a2
	.byte	$a3
	.byte	$a2
	.byte	$a3
	.byte	$a2
	.byte	$a3
	.byte	$a2
	.byte	$a3
	.byte	$a2
	.byte	$a3
	.byte	$a2
	.byte	$a3
	.byte	$a2
	.byte	$a3
	.byte	$a2
	.byte	$a3
	.byte	$a2
	.byte	$a3
	.byte	$a2
	.byte	$a3
	.byte	$a2
	.byte	$a3
	.byte	$a2
	.byte	$a3
	.byte	$a2
	.byte	$a3
	.byte	$a2
	.byte	$a3
	.byte	$a2
	.byte	$10
	.byte	$11
	.byte	$b2
	.byte	$b3
	.byte	$b2
	.byte	$b3
	.byte	$b2
	.byte	$b3
	.byte	$b2
	.byte	$b3
	.byte	$b2
	.byte	$b3
	.byte	$b2
	.byte	$b3
	.byte	$b2
	.byte	$b3
	.byte	$b2
	.byte	$b3
	.byte	$b2
	.byte	$b3
	.byte	$b2
	.byte	$b3
	.byte	$b2
	.byte	$b3
	.byte	$b2
	.byte	$b3
	.byte	$b2
	.byte	$b3
	.byte	$b2
	.byte	$b3
	.byte	$b2
	.byte	$b3
	.byte	$b6
	.byte	$b7
	.byte	$a0
	.byte	$a1
	.byte	$a0
	.byte	$a1
	.byte	$a0
	.byte	$a1
	.byte	$a0
	.byte	$a1
	.byte	$a0
	.byte	$a1
	.byte	$a0
	.byte	$a1
	.byte	$a0
	.byte	$a1
	.byte	$a0
	.byte	$a1
	.byte	$a0
	.byte	$a1
	.byte	$a0
	.byte	$a1
	.byte	$a0
	.byte	$a1
	.byte	$a0
	.byte	$a1
	.byte	$a0
	.byte	$a1
	.byte	$a0
	.byte	$a1
	.byte	$a0
	.byte	$a1
	.byte	$a0
	.byte	$a1
	.byte	$b0
	.byte	$b1
	.byte	$b0
	.byte	$b1
	.byte	$b0
	.byte	$b1
	.byte	$b0
	.byte	$b1
	.byte	$b0
	.byte	$b1
	.byte	$b0
	.byte	$b1
	.byte	$b0
	.byte	$b1
	.byte	$b0
	.byte	$b1
	.byte	$b0
	.byte	$b1
	.byte	$b0
	.byte	$b1
	.byte	$b0
	.byte	$b1
	.byte	$b0
	.byte	$b1
	.byte	$b0
	.byte	$b1
	.byte	$b0
	.byte	$b1
	.byte	$b0
	.byte	$b1
	.byte	$b0
	.byte	$b1
	.byte	$5f
	.byte	$5f
	.byte	$5f
	.byte	$5f
	.byte	$5f
	.byte	$5f
	.byte	$5f
	.byte	$df
	.byte	$f5
	.byte	$55
	.byte	$55
	.byte	$55
	.byte	$55
	.byte	$f5
	.byte	$f1
	.byte	$dd
	.byte	$55
	.byte	$55
	.byte	$f5
	.byte	$f5
	.byte	$55
	.byte	$55
	.byte	$55
	.byte	$dd
	.byte	$55
	.byte	$55
	.byte	$55
	.byte	$55
	.byte	$f5
	.byte	$75
	.byte	$55
	.byte	$dd
	.byte	$f5
	.byte	$75
	.byte	$55
	.byte	$55
	.byte	$55
	.byte	$55
	.byte	$f5
	.byte	$fd
	.byte	$55
	.byte	$55
	.byte	$d5
	.byte	$f5
	.byte	$75
	.byte	$55
	.byte	$55
	.byte	$dd
	.byte	$55
	.byte	$55
	.byte	$55
	.byte	$55
	.byte	$55
	.byte	$55
	.byte	$55
	.byte	$dd
	.byte	$0f
	.byte	$0f
	.byte	$0f
	.byte	$0f
	.byte	$0f
	.byte	$0f
	.byte	$0f
	.byte	$0f
_palette:
	.byte	$0f
	.byte	$00
	.byte	$10
	.byte	$30
	.byte	$0f
	.byte	$01
	.byte	$11
	.byte	$31
	.byte	$0f
	.byte	$05
	.byte	$16
	.byte	$27
	.byte	$0f
	.byte	$09
	.byte	$19
	.byte	$29
_spritePalette:
	.byte	$0f
	.byte	$00
	.byte	$10
	.byte	$30
	.byte	$0f
	.byte	$01
	.byte	$11
	.byte	$21
	.byte	$0f
	.byte	$05
	.byte	$16
	.byte	$36
	.byte	$0f
	.byte	$09
	.byte	$19
	.byte	$39
_text:
	.byte	$4E,$6F,$63,$74,$75,$72,$6E,$65,$73,$20,$42,$6C,$6F,$6F,$64,$00
_titlePrompt:
	.byte	$50,$72,$65,$73,$73,$20,$53,$54,$41,$52,$54,$00
_endScreenTitle:
	.byte	$45,$6E,$64,$20,$53,$63,$72,$65,$65,$6E,$00
_endScreenPrompt:
	.byte	$54,$6F,$20,$70,$6C,$61,$79,$20,$61,$67,$61,$69,$6E,$00

.segment	"BSS"

.segment	"ZEROPAGE"
_inputPad:
	.res	1,$00
_movementPad:
	.res	1,$00
_currentLevelData:
	.res	2,$00
_enemies:
	.res	42,$00

; ---------------------------------------------------------------
; void __near__ DrawTitleScreen (void)
; ---------------------------------------------------------------

.segment	"CODE"

.proc	_DrawTitleScreen: near

.segment	"CODE"

;
; ppu_off(); // screen off
;
	jsr     _ppu_off
;
; pal_bg(palette); // load the BG palette
;
	lda     #<(_palette)
	ldx     #>(_palette)
	jsr     _pal_bg
;
; vram_adr(NAMETABLE_A);
;
	ldx     #$20
	lda     #$00
	jsr     _vram_adr
;
; vram_fill(0x00, 1024);
;
	lda     #$00
	jsr     pusha
	ldx     #$04
	jsr     _vram_fill
;
; vram_adr(NAMETABLE_B);
;
	ldx     #$24
	lda     #$00
	jsr     _vram_adr
;
; vram_fill(0x00, 1024);
;
	lda     #$00
	jsr     pusha
	ldx     #$04
	jsr     _vram_fill
;
; vram_adr(NTADR_A(8, 8)); // places text at screen position
;
	ldx     #$21
	lda     #$08
	jsr     _vram_adr
;
; vram_write(text, sizeof(text) - 1); //write Title to screen
;
	lda     #<(_text)
	ldx     #>(_text)
	jsr     pushax
	ldx     #$00
	lda     #$0F
	jsr     _vram_write
;
; vram_adr(NTADR_A(10, 14));
;
	ldx     #$21
	lda     #$CA
	jsr     _vram_adr
;
; vram_write(titlePrompt, sizeof(titlePrompt) - 1);
;
	lda     #<(_titlePrompt)
	ldx     #>(_titlePrompt)
	jsr     pushax
	ldx     #$00
	lda     #$0B
	jsr     _vram_write
;
; ppu_on_all(); // turn on screen
;
	jmp     _ppu_on_all

.endproc

; ---------------------------------------------------------------
; void __near__ GameLoop (void)
; ---------------------------------------------------------------

.segment	"CODE"

.proc	_GameLoop: near

.segment	"CODE"

;
; ppu_off(); 
;
	jsr     _ppu_off
;
; switch(currentLevel)
;
	lda     _currentLevel
	ldx     _currentLevel+1
;
; }
;
	cpx     #$00
	jne     L0003
	cmp     #$01
	beq     L0004
	cmp     #$02
	beq     L0005
	cmp     #$03
	beq     L0006
	jmp     L0003
;
; currentLevelData = Level1Data;
;
L0004:	lda     #>(_Level1Data)
	sta     _currentLevelData+1
	lda     #<(_Level1Data)
	sta     _currentLevelData
;
; vram_adr(NAMETABLE_A);   // Set VRAM address to the top-left of the screen
;
	ldx     #$20
	lda     #$00
	jsr     _vram_adr
;
; vram_write(Level1A, 1024);
;
	lda     #<(_Level1A)
	ldx     #>(_Level1A)
	jsr     pushax
	ldx     #$04
	lda     #$00
	jsr     _vram_write
;
; vram_adr(NAMETABLE_B);   // Set VRAM address to the top-left of the screen
;
	ldx     #$24
	lda     #$00
	jsr     _vram_adr
;
; vram_write(Level1B, 1024);
;
	lda     #<(_Level1B)
	ldx     #>(_Level1B)
;
; break;
;
	jmp     L000A
;
; currentLevelData = Level2Data;
;
L0005:	lda     #>(_Level2Data)
	sta     _currentLevelData+1
	lda     #<(_Level2Data)
	sta     _currentLevelData
;
; vram_adr(NAMETABLE_A);
;
	ldx     #$20
	lda     #$00
	jsr     _vram_adr
;
; vram_write(Level2A, 1024);
;
	lda     #<(_Level2A)
	ldx     #>(_Level2A)
	jsr     pushax
	ldx     #$04
	lda     #$00
	jsr     _vram_write
;
; vram_adr(NAMETABLE_B);
;
	ldx     #$24
	lda     #$00
	jsr     _vram_adr
;
; vram_write(Level2B, 1024);
;
	lda     #<(_Level2B)
	ldx     #>(_Level2B)
;
; break;
;
	jmp     L000A
;
; currentLevelData = Level3Data;
;
L0006:	lda     #>(_Level3Data)
	sta     _currentLevelData+1
	lda     #<(_Level3Data)
	sta     _currentLevelData
;
; vram_adr(NAMETABLE_A);
;
	ldx     #$20
	lda     #$00
	jsr     _vram_adr
;
; vram_write(Level3A, 1024);
;
	lda     #<(_Level3A)
	ldx     #>(_Level3A)
	jsr     pushax
	ldx     #$04
	lda     #$00
	jsr     _vram_write
;
; vram_adr(NAMETABLE_B);
;
	ldx     #$24
	lda     #$00
	jsr     _vram_adr
;
; vram_write(Level3B, 1024);
;
	lda     #<(_Level3B)
	ldx     #>(_Level3B)
L000A:	jsr     pushax
	ldx     #$04
	lda     #$00
	jsr     _vram_write
;
; pal_bg(palette);
;
L0003:	lda     #<(_palette)
	ldx     #>(_palette)
	jsr     _pal_bg
;
; pal_spr((const char*)spritePalette);
;
	lda     #<(_spritePalette)
	ldx     #>(_spritePalette)
	jsr     _pal_spr
;
; ppu_on_all();
;
	jmp     _ppu_on_all

.endproc

; ---------------------------------------------------------------
; void __near__ MovePlayer (void)
; ---------------------------------------------------------------

.segment	"CODE"

.proc	_MovePlayer: near

.segment	"CODE"

;
; if (OnGround()) 
;
	jsr     _OnGround
	tax
	beq     L0002
;
; coyoteTime = COYOTE_FRAMES;
;
	lda     #$0A
	sta     _coyoteTime
;
; hasDashedInAir = 0;
;
	lda     #$00
	sta     _hasDashedInAir
;
; else if (!OnGround() && coyoteTime > 0) 
;
	jmp     L004D
L0002:	jsr     _OnGround
	tax
	bne     L004D
	lda     _coyoteTime
	beq     L004D
;
; coyoteTime--;
;
	dec     _coyoteTime
;
; if (dashCooldown > 0) 
;
L004D:	lda     _dashCooldown
	beq     L004E
;
; dashCooldown--;
;
	dec     _dashCooldown
;
; if (movementPad & PAD_LEFT)
;
L004E:	lda     _movementPad
	and     #$02
	beq     L004F
;
; if (!CheckIfCollidableTile(currentLevelData[GetTileIndex(playerLeft, playerY + 1)]))
;
	lda     _currentLevelData
	ldx     _currentLevelData+1
	jsr     pushax
	lda     _playerLeft
	jsr     pusha
	lda     _playerY
	clc
	adc     #$01
	jsr     _GetTileIndex
	jsr     tosaddax
	sta     ptr1
	stx     ptr1+1
	ldy     #$00
	lda     (ptr1),y
	jsr     _CheckIfCollidableTile
	tax
	bne     L004F
;
; HandleLeftMovement(4, PLAYER_SPEED);
;
	lda     #$04
	jsr     pusha0
	lda     #$02
	jsr     _HandleLeftMovement
;
; facingRight = 0;
;
	lda     #$00
	sta     _facingRight
;
; if (movementPad & PAD_RIGHT)
;
L004F:	lda     _movementPad
	and     #$01
	beq     L0050
;
; if (!CheckIfCollidableTile(currentLevelData[GetTileIndex(playerRight, playerY + 1)]))
;
	lda     _currentLevelData
	ldx     _currentLevelData+1
	jsr     pushax
	lda     _playerRight
	jsr     pusha
	lda     _playerY
	clc
	adc     #$01
	jsr     _GetTileIndex
	jsr     tosaddax
	sta     ptr1
	stx     ptr1+1
	ldy     #$00
	lda     (ptr1),y
	jsr     _CheckIfCollidableTile
	tax
	bne     L0050
;
; HandleRightMovement(252, PLAYER_SPEED);
;
	lda     #$FC
	jsr     pusha0
	lda     #$02
	jsr     _HandleRightMovement
;
; facingRight = 1;
;
	lda     #$01
	sta     _facingRight
;
; if ((inputPad & PAD_B) && !isDashing && !(dashCooldown > 0)) 
;
L0050:	lda     _inputPad
	and     #$40
	beq     L0057
	lda     _isDashing
	ora     _isDashing+1
	bne     L0057
	lda     _dashCooldown
	bne     L0057
;
; if (OnGround() || !hasDashedInAir)
;
	jsr     _OnGround
	tax
	bne     L0054
	lda     _hasDashedInAir
	bne     L0057
;
; dashDirection = (movementPad & PAD_LEFT ? -1 : movementPad & PAD_RIGHT ? 1 : 0);
;
L0054:	lda     _movementPad
	and     #$02
	beq     L0055
	ldx     #$FF
	txa
	jmp     L0019
L0055:	lda     _movementPad
	ldx     #$00
	and     #$01
	beq     L0019
	lda     #$01
L0019:	sta     _dashDirection
	stx     _dashDirection+1
;
; isDashing = 1;
;
	ldx     #$00
	lda     #$01
	sta     _isDashing
	stx     _isDashing+1
;
; dashTimer = DASH_DURATION;
;
	lda     #$06
	sta     _dashTimer
;
; if (!OnGround())
;
	jsr     _OnGround
	tax
	bne     L0057
;
; hasDashedInAir = 1;
;
	lda     #$01
	sta     _hasDashedInAir
;
; if (inputPad & PAD_A && !isDashing) 
;
L0057:	lda     _inputPad
	and     #$80
	beq     L005B
	lda     _isDashing
	ora     _isDashing+1
	bne     L005B
;
; jumpBufferTimer = JUMP_BUFFER_FRAMES;
;
	lda     #$06
	sta     _jumpBufferTimer
;
; if (jumpBufferTimer > 0 && !isJumping && coyoteTime > 0) 
;
L005B:	lda     _jumpBufferTimer
	beq     L005F
	lda     _isJumping
	bne     L005F
	lda     _coyoteTime
	beq     L005F
;
; isJumping = 1;
;
	lda     #$01
	sta     _isJumping
;
; velocityY = JUMP_VELOCITY;
;
	ldx     #$FF
	lda     #$F6
	sta     _velocityY
	stx     _velocityY+1
;
; jumpBufferTimer = 0;
;
	lda     #$00
	sta     _jumpBufferTimer
;
; else if (jumpBufferTimer > 0) 
;
	jmp     L0024
L005F:	lda     _jumpBufferTimer
	beq     L0024
;
; jumpBufferTimer--;
;
	dec     _jumpBufferTimer
;
; if (isDashing) 
;
L0024:	lda     _isDashing
	ora     _isDashing+1
	jeq     L0025
;
; dashTimer--;
;
	dec     _dashTimer
;
; for (i = 0; i < DASH_SPEED; i++) 
;
	lda     #$00
	sta     _i
	sta     _i+1
L0026:	lda     _i
	cmp     #$05
	lda     _i+1
	sbc     #$00
	bvc     L002A
	eor     #$80
L002A:	jpl     L0060
;
; int nextX = playerX + dashDirection;
;
	lda     _playerX
	clc
	adc     _dashDirection
	pha
	lda     _playerX+1
	adc     _dashDirection+1
	tax
	pla
	jsr     pushax
;
; int checkX = nextX + scrollX + (dashDirection == 1 ? 7 : -7);
;
	ldy     #$01
	lda     (sp),y
	tax
	dey
	lda     (sp),y
	clc
	adc     _scrollX
	sta     ptr1
	txa
	adc     _scrollX+1
	sta     ptr1+1
	lda     _dashDirection+1
	bne     L002D
	lda     _dashDirection
	cmp     #$01
	bne     L002D
	ldx     #$00
	lda     #$07
	jmp     L002E
L002D:	ldx     #$FF
	lda     #$F9
L002E:	clc
	adc     ptr1
	pha
	txa
	adc     ptr1+1
	tax
	pla
	jsr     pushax
;
; if (!CheckIfCollidableTile(currentLevelData[GetTileIndex(checkX, playerY + 1)])) 
;
	lda     _currentLevelData
	ldx     _currentLevelData+1
	jsr     pushax
	ldy     #$02
	lda     (sp),y
	jsr     pusha
	lda     _playerY
	clc
	adc     #$01
	jsr     _GetTileIndex
	jsr     tosaddax
	sta     ptr1
	stx     ptr1+1
	ldy     #$00
	lda     (ptr1),y
	jsr     _CheckIfCollidableTile
	tax
	bne     L002F
;
; if (dashDirection == 1) 
;
	lda     _dashDirection+1
	bne     L0031
	lda     _dashDirection
	cmp     #$01
	bne     L0031
;
; HandleRightMovement(255, 1);
;
	lda     #$FF
	jsr     pusha0
	lda     #$01
	jsr     _HandleRightMovement
;
; else if (dashDirection == -1)
;
	jmp     L0037
L0031:	lda     _dashDirection+1
	cmp     #$FF
	bne     L0034
	lda     _dashDirection
	cmp     #$FF
	bne     L0034
;
; HandleLeftMovement(1, 1);
;
	lda     #$01
	jsr     pusha0
	jsr     _HandleLeftMovement
;
; else
;
	jmp     L0037
;
; DashEnd();
;
L0034:	jsr     _DashEnd
;
; else 
;
	jmp     L0037
;
; DashEnd();
;
L002F:	jsr     _DashEnd
;
; break;
;
	jsr     incsp4
	jmp     L0060
;
; }
;
L0037:	jsr     incsp4
;
; for (i = 0; i < DASH_SPEED; i++) 
;
	inc     _i
	jne     L0026
	inc     _i+1
	jmp     L0026
;
; if (dashTimer <= 0) 
;
L0060:	lda     _dashTimer
	beq     L0061
;
; }
;
	rts
;
; DashEnd();
;
L0061:	jmp     _DashEnd
;
; if (isJumping) 
;
L0025:	lda     _isJumping
	jeq     L003A
;
; velocityY += GRAVITY;
;
	inc     _velocityY
	bne     L003B
	inc     _velocityY+1
;
; if (velocityY < 0) 
;
L003B:	ldx     _velocityY+1
	cpx     #$80
	bcc     L003D
;
; if (CheckIfCollidableTile(currentLevelData[GetTileIndex(playerX, playerTop)])) 
;
	lda     _currentLevelData
	ldx     _currentLevelData+1
	jsr     pushax
	lda     _playerX
	jsr     pusha
	lda     _playerTop
	jsr     _GetTileIndex
	jsr     tosaddax
	sta     ptr1
	stx     ptr1+1
	ldy     #$00
	lda     (ptr1),y
	jsr     _CheckIfCollidableTile
	tax
	beq     L003D
;
; velocityY = 0;
;
	lda     #$00
	sta     _velocityY
	sta     _velocityY+1
;
; playerY += 1;
;
	inc     _playerY
	bne     L003D
	inc     _playerY+1
;
; if (velocityY > MAX_FALL_SPEED)
;
L003D:	lda     _velocityY
	cmp     #$05
	lda     _velocityY+1
	sbc     #$00
	bvs     L0040
	eor     #$80
L0040:	bpl     L003F
;
; velocityY = MAX_FALL_SPEED;
;
	ldx     #$00
	lda     #$04
	sta     _velocityY
	stx     _velocityY+1
;
; playerY += velocityY;
;
L003F:	lda     _velocityY
	clc
	adc     _playerY
	sta     _playerY
	lda     _velocityY+1
	adc     _playerY+1
	sta     _playerY+1
;
; if (velocityY >= 0 && OnGround()) 
;
	ldx     _velocityY+1
	bmi     L0041
	jsr     _OnGround
	tax
	bne     L0047
	rts
;
; playerY -= 1;
;
L0045:	ldx     _playerY
	bne     L0048
	dec     _playerY+1
L0048:	dex
	stx     _playerY
;
; UpdateColliderPositions();
;
	jsr     _UpdateColliderPositions
;
; while (OnGround()) 
;
L0047:	jsr     _OnGround
	tax
	bne     L0045
;
; playerY += 1;
;
	inc     _playerY
	bne     L0049
	inc     _playerY+1
;
; UpdateColliderPositions();
;
L0049:	jsr     _UpdateColliderPositions
;
; velocityY = 0;
;
	lda     #$00
	sta     _velocityY
	sta     _velocityY+1
;
; isJumping = 0;
;
	sta     _isJumping
;
; hasDashedInAir = 0;
;
	sta     _hasDashedInAir
;
; else 
;
L0041:	rts
;
; if (!OnGround()) 
;
L003A:	jsr     _OnGround
	tax
	bne     L004B
;
; isJumping = 1;
;
	lda     #$01
	sta     _isJumping
;
; }
;
L004B:	rts

.endproc

; ---------------------------------------------------------------
; void __near__ DrawPlayer (void)
; ---------------------------------------------------------------

.segment	"CODE"

.proc	_DrawPlayer: near

.segment	"CODE"

;
; unsigned char playerAttributes =  isDashing ? 0x03 :
;
	lda     _isDashing
	ora     _isDashing+1
	beq     L0002
	lda     #$03
	jmp     L0025
;
; currentLevel == 3 ? 0X02 : 0x01;
;
L0002:	lda     _currentLevel+1
	bne     L0005
	lda     _currentLevel
	cmp     #$03
	bne     L0005
	lda     #$02
	jmp     L0025
L0005:	lda     #$01
L0025:	jsr     pusha
;
; if (!facingRight)
;
	lda     _facingRight
	bne     L0007
;
; playerAttributes |= 0x40;
;
	tay
	lda     (sp),y
	ora     #$40
	sta     (sp),y
;
; oam_clear();
;
L0007:	jsr     _oam_clear
;
; UpdateColliderPositions();
;
	jsr     _UpdateColliderPositions
;
; if (isDashing)
;
	lda     _isDashing
	ora     _isDashing+1
	jeq     L0008
;
; oam_spr((facingRight ? playerLeft : playerX), playerTop, 0x88, playerAttributes);
;
	jsr     decsp3
	lda     _facingRight
	beq     L0009
	lda     _playerLeft
	jmp     L000A
L0009:	lda     _playerX
L000A:	ldy     #$02
	sta     (sp),y
	lda     _playerTop
	dey
	sta     (sp),y
	lda     #$88
	dey
	sta     (sp),y
	ldy     #$03
	lda     (sp),y
	jsr     _oam_spr
;
; oam_spr((facingRight ? playerX : playerLeft), playerTop, 0x89, playerAttributes);
;
	jsr     decsp3
	lda     _facingRight
	beq     L000B
	lda     _playerX
	jmp     L000C
L000B:	lda     _playerLeft
L000C:	ldy     #$02
	sta     (sp),y
	lda     _playerTop
	dey
	sta     (sp),y
	lda     #$89
	dey
	sta     (sp),y
	ldy     #$03
	lda     (sp),y
	jsr     _oam_spr
;
; oam_spr((facingRight ? playerLeft : playerX), playerY, 0x98, playerAttributes);
;
	jsr     decsp3
	lda     _facingRight
	beq     L000D
	lda     _playerLeft
	jmp     L000E
L000D:	lda     _playerX
L000E:	ldy     #$02
	sta     (sp),y
	lda     _playerY
	dey
	sta     (sp),y
	lda     #$98
	dey
	sta     (sp),y
	ldy     #$03
	lda     (sp),y
	jsr     _oam_spr
;
; oam_spr((facingRight ? playerX : playerLeft), playerY, 0x99, playerAttributes);
;
	jsr     decsp3
	lda     _facingRight
	beq     L000F
	lda     _playerX
	jmp     L0010
L000F:	lda     _playerLeft
L0010:	ldy     #$02
	sta     (sp),y
	lda     _playerY
	dey
	sta     (sp),y
	lda     #$99
;
; else if (isJumping)
;
	jmp     L0029
L0008:	lda     _isJumping
	jeq     L0012
;
; oam_spr((facingRight ? playerLeft : playerX), playerTop, 0x0A, playerAttributes);
;
	jsr     decsp3
	lda     _facingRight
	beq     L0013
	lda     _playerLeft
	jmp     L0014
L0013:	lda     _playerX
L0014:	ldy     #$02
	sta     (sp),y
	lda     _playerTop
	dey
	sta     (sp),y
	lda     #$0A
	dey
	sta     (sp),y
	ldy     #$03
	lda     (sp),y
	jsr     _oam_spr
;
; oam_spr((facingRight ? playerX : playerLeft), playerTop, 0x0B, playerAttributes);
;
	jsr     decsp3
	lda     _facingRight
	beq     L0015
	lda     _playerX
	jmp     L0016
L0015:	lda     _playerLeft
L0016:	ldy     #$02
	sta     (sp),y
	lda     _playerTop
	dey
	sta     (sp),y
	lda     #$0B
	dey
	sta     (sp),y
	ldy     #$03
	lda     (sp),y
	jsr     _oam_spr
;
; oam_spr((facingRight ? playerLeft : playerX), playerY, 0x1A, playerAttributes);
;
	jsr     decsp3
	lda     _facingRight
	beq     L0017
	lda     _playerLeft
	jmp     L0018
L0017:	lda     _playerX
L0018:	ldy     #$02
	sta     (sp),y
	lda     _playerY
	dey
	sta     (sp),y
	lda     #$1A
	dey
	sta     (sp),y
	ldy     #$03
	lda     (sp),y
	jsr     _oam_spr
;
; oam_spr((facingRight ? playerX : playerLeft), playerY, 0x1B, playerAttributes);
;
	jsr     decsp3
	lda     _facingRight
	beq     L0019
	lda     _playerX
	jmp     L001A
L0019:	lda     _playerLeft
L001A:	ldy     #$02
	sta     (sp),y
	lda     _playerY
	dey
	sta     (sp),y
	lda     #$1B
;
; else
;
	jmp     L0029
;
; oam_spr((facingRight ? playerLeft : playerX), playerTop, 0x08, playerAttributes);
;
L0012:	jsr     decsp3
	lda     _facingRight
	beq     L001C
	lda     _playerLeft
	jmp     L001D
L001C:	lda     _playerX
L001D:	ldy     #$02
	sta     (sp),y
	lda     _playerTop
	dey
	sta     (sp),y
	lda     #$08
	dey
	sta     (sp),y
	ldy     #$03
	lda     (sp),y
	jsr     _oam_spr
;
; oam_spr((facingRight ? playerX : playerLeft), playerTop, 0x09, playerAttributes);
;
	jsr     decsp3
	lda     _facingRight
	beq     L001E
	lda     _playerX
	jmp     L001F
L001E:	lda     _playerLeft
L001F:	ldy     #$02
	sta     (sp),y
	lda     _playerTop
	dey
	sta     (sp),y
	lda     #$09
	dey
	sta     (sp),y
	ldy     #$03
	lda     (sp),y
	jsr     _oam_spr
;
; oam_spr((facingRight ? playerLeft : playerX), playerY, 0x18, playerAttributes);
;
	jsr     decsp3
	lda     _facingRight
	beq     L0020
	lda     _playerLeft
	jmp     L0021
L0020:	lda     _playerX
L0021:	ldy     #$02
	sta     (sp),y
	lda     _playerY
	dey
	sta     (sp),y
	lda     #$18
	dey
	sta     (sp),y
	ldy     #$03
	lda     (sp),y
	jsr     _oam_spr
;
; oam_spr((facingRight ? playerX : playerLeft), playerY, 0x19, playerAttributes);
;
	jsr     decsp3
	lda     _facingRight
	beq     L0022
	lda     _playerX
	jmp     L0023
L0022:	lda     _playerLeft
L0023:	ldy     #$02
	sta     (sp),y
	lda     _playerY
	dey
	sta     (sp),y
	lda     #$19
L0029:	dey
	sta     (sp),y
	ldy     #$03
	lda     (sp),y
	jsr     _oam_spr
;
; }
;
	jmp     incsp1

.endproc

; ---------------------------------------------------------------
; unsigned int __near__ GetTileIndex (unsigned char playerX, unsigned char playerY)
; ---------------------------------------------------------------

.segment	"CODE"

.proc	_GetTileIndex: near

.segment	"CODE"

;
; {
;
	jsr     pusha
;
; unsigned char tileX = (playerX + scrollX) / 8; 
;
	ldy     #$01
	lda     (sp),y
	clc
	adc     _scrollX
	pha
	lda     #$00
	adc     _scrollX+1
	tax
	pla
	jsr     shrax3
	jsr     pusha
;
; unsigned char tileY = playerY / 8;
;
	ldy     #$01
	lda     (sp),y
	lsr     a
	lsr     a
	lsr     a
	jsr     pusha
;
; unsigned int tileIndex = tileY * 64 + tileX;
;
	ldx     #$00
	lda     (sp,x)
	jsr     shlax4
	jsr     shlax2
	sta     ptr1
	stx     ptr1+1
	ldy     #$01
	lda     (sp),y
	clc
	adc     ptr1
	ldx     ptr1+1
	bcc     L0002
	inx
L0002:	jsr     pushax
;
; return tileIndex;
;
	ldy     #$01
	lda     (sp),y
	tax
	dey
	lda     (sp),y
;
; }
;
	jmp     incsp6

.endproc

; ---------------------------------------------------------------
; void __near__ CheckIfEnd (void)
; ---------------------------------------------------------------

.segment	"CODE"

.proc	_CheckIfEnd: near

.segment	"CODE"

;
; if (CheckIfGoalTile(currentLevelData[GetTileIndex(playerLeft + 4, playerBottom)]) ||
;
	lda     _currentLevelData
	ldx     _currentLevelData+1
	jsr     pushax
	lda     _playerLeft
	clc
	adc     #$04
	jsr     pusha
	lda     _playerBottom
	jsr     _GetTileIndex
	jsr     tosaddax
	sta     ptr1
	stx     ptr1+1
	ldy     #$00
	lda     (ptr1),y
	jsr     _CheckIfGoalTile
	tax
	bne     L0004
;
; CheckIfGoalTile(currentLevelData[GetTileIndex(playerRight - 4, playerBottom)]))
;
	lda     _currentLevelData
	ldx     _currentLevelData+1
	jsr     pushax
	lda     _playerRight
	sec
	sbc     #$04
	jsr     pusha
	lda     _playerBottom
	jsr     _GetTileIndex
	jsr     tosaddax
	sta     ptr1
	stx     ptr1+1
	ldy     #$00
	lda     (ptr1),y
	jsr     _CheckIfGoalTile
	tax
	bne     L0004
	rts
;
; if (currentLevel == 3)
;
L0004:	lda     _currentLevel+1
	bne     L0007
	lda     _currentLevel
	cmp     #$03
	bne     L0007
;
; scrollX = 0;
;
	ldx     #$00
	txa
	sta     _scrollX
	sta     _scrollX+1
;
; set_scroll_x(scrollX);
;
	jsr     _set_scroll_x
;
; playerX = 30;
;
	ldx     #$00
	lda     #$1E
	sta     _playerX
	stx     _playerX+1
;
; playerY = 215;
;
	lda     #$D7
	sta     _playerY
	stx     _playerY+1
;
; currentGameState = END_SCREEN;
;
	lda     #$02
	sta     _currentGameState
;
; DrawEndScreen();
;
	jmp     _DrawEndScreen
;
; currentLevel++;
;
L0007:	inc     _currentLevel
	bne     L000A
	inc     _currentLevel+1
;
; scrollX = 0;
;
L000A:	ldx     #$00
	txa
	sta     _scrollX
	sta     _scrollX+1
;
; set_scroll_x(scrollX);
;
	jsr     _set_scroll_x
;
; playerX = 30;
;
	ldx     #$00
	lda     #$1E
	sta     _playerX
	stx     _playerX+1
;
; playerY = 215;
;
	lda     #$D7
	sta     _playerY
	stx     _playerY+1
;
; GameLoop();
;
	jmp     _GameLoop

.endproc

; ---------------------------------------------------------------
; void __near__ DrawEndScreen (void)
; ---------------------------------------------------------------

.segment	"CODE"

.proc	_DrawEndScreen: near

.segment	"CODE"

;
; ppu_off(); // screen off
;
	jsr     _ppu_off
;
; pal_bg(palette); // load the BG palette
;
	lda     #<(_palette)
	ldx     #>(_palette)
	jsr     _pal_bg
;
; oam_clear();
;
	jsr     _oam_clear
;
; currentLevel = 1;
;
	ldx     #$00
	lda     #$01
	sta     _currentLevel
	stx     _currentLevel+1
;
; vram_adr(NAMETABLE_A);            // Set VRAM address to start of screen
;
	ldx     #$20
	lda     #$00
	jsr     _vram_adr
;
; vram_fill(0x00, 1024);
;
	lda     #$00
	jsr     pusha
	ldx     #$04
	jsr     _vram_fill
;
; vram_adr(NAMETABLE_B);            // Set VRAM address to start of screen
;
	ldx     #$24
	lda     #$00
	jsr     _vram_adr
;
; vram_fill(0x00, 1024);
;
	lda     #$00
	jsr     pusha
	ldx     #$04
	jsr     _vram_fill
;
; vram_adr(NTADR_A(8, 8)); // places text at screen position
;
	ldx     #$21
	lda     #$08
	jsr     _vram_adr
;
; vram_write(endScreenTitle, sizeof(endScreenTitle) - 1); //write Title to screen
;
	lda     #<(_endScreenTitle)
	ldx     #>(_endScreenTitle)
	jsr     pushax
	ldx     #$00
	lda     #$0A
	jsr     _vram_write
;
; vram_adr(NTADR_A(10, 14));
;
	ldx     #$21
	lda     #$CA
	jsr     _vram_adr
;
; vram_write(titlePrompt, sizeof(titlePrompt) - 1);
;
	lda     #<(_titlePrompt)
	ldx     #>(_titlePrompt)
	jsr     pushax
	ldx     #$00
	lda     #$0B
	jsr     _vram_write
;
; vram_adr(NTADR_A(10, 18));
;
	ldx     #$22
	lda     #$4A
	jsr     _vram_adr
;
; vram_write(endScreenPrompt, sizeof(endScreenPrompt) - 1);
;
	lda     #<(_endScreenPrompt)
	ldx     #>(_endScreenPrompt)
	jsr     pushax
	ldx     #$00
	lda     #$0D
	jsr     _vram_write
;
; ppu_on_all(); // turn on screen
;
	jmp     _ppu_on_all

.endproc

; ---------------------------------------------------------------
; char __near__ OnGround (void)
; ---------------------------------------------------------------

.segment	"CODE"

.proc	_OnGround: near

.segment	"CODE"

;
; return CheckIfCollidableTile(currentLevelData[GetTileIndex(playerRight - 4, playerBottom + 1)]) ||
;
	lda     _currentLevelData
	ldx     _currentLevelData+1
	jsr     pushax
	lda     _playerRight
	sec
	sbc     #$04
	jsr     pusha
	lda     _playerBottom
	clc
	adc     #$01
	jsr     _GetTileIndex
	jsr     tosaddax
	sta     ptr1
	stx     ptr1+1
	ldy     #$00
	lda     (ptr1),y
	jsr     _CheckIfCollidableTile
	tax
	jne     L0004
;
; CheckIfCollidableTile(currentLevelData[GetTileIndex(playerLeft + 4, playerBottom + 1)]) ||
;
	lda     _currentLevelData
	ldx     _currentLevelData+1
	jsr     pushax
	lda     _playerLeft
	clc
	adc     #$04
	jsr     pusha
	lda     _playerBottom
	clc
	adc     #$01
	jsr     _GetTileIndex
	jsr     tosaddax
	sta     ptr1
	stx     ptr1+1
	ldy     #$00
	lda     (ptr1),y
	jsr     _CheckIfCollidableTile
	tax
	bne     L0004
;
; CheckIfPlatformTile(currentLevelData[GetTileIndex(playerRight - 4, playerBottom + 1)]) ||
;
	lda     _currentLevelData
	ldx     _currentLevelData+1
	jsr     pushax
	lda     _playerRight
	sec
	sbc     #$04
	jsr     pusha
	lda     _playerBottom
	clc
	adc     #$01
	jsr     _GetTileIndex
	jsr     tosaddax
	sta     ptr1
	stx     ptr1+1
	ldy     #$00
	lda     (ptr1),y
	jsr     _CheckIfPlatformTile
	tax
	bne     L0004
;
; CheckIfPlatformTile(currentLevelData[GetTileIndex(playerLeft + 4, playerBottom + 1)]);
;
	lda     _currentLevelData
	ldx     _currentLevelData+1
	jsr     pushax
	lda     _playerLeft
	clc
	adc     #$04
	jsr     pusha
	lda     _playerBottom
	clc
	adc     #$01
	jsr     _GetTileIndex
	jsr     tosaddax
	sta     ptr1
	stx     ptr1+1
	ldy     #$00
	lda     (ptr1),y
	jsr     _CheckIfPlatformTile
	tax
	beq     L000C
L0004:	lda     #$01
	ldx     #$00
;
; }
;
L000C:	rts

.endproc

; ---------------------------------------------------------------
; char __near__ CheckIfCollidableTile (unsigned char tile)
; ---------------------------------------------------------------

.segment	"CODE"

.proc	_CheckIfCollidableTile: near

.segment	"CODE"

;
; {
;
	jsr     pusha
;
; return tile == 0x10 || tile == 0x11
;
	ldy     #$00
	lda     (sp),y
	cmp     #$10
	beq     L0004
;
; || tile == 0x80 || tile == 0x81 || tile == 0x82 || tile == 0x83 
;
	cmp     #$11
	beq     L0004
	cmp     #$80
	beq     L0004
	cmp     #$81
	beq     L0004
	cmp     #$82
	beq     L0004
;
; || tile == 0x90 || tile == 0x91 || tile == 0x92 || tile == 0x93
;
	cmp     #$83
	beq     L0004
	cmp     #$90
	beq     L0004
	cmp     #$91
	beq     L0004
	cmp     #$92
	beq     L0004
;
; || tile == 0xA0 || tile == 0xA1 || tile == 0xA4 || tile == 0xA5 
;
	cmp     #$93
	beq     L0004
	cmp     #$A0
	beq     L0004
	cmp     #$A1
	beq     L0004
	cmp     #$A4
	beq     L0004
;
; || tile == 0xA6 || tile == 0xA7 || tile == 0xA8 || tile == 0xA9 
;
	cmp     #$A5
	beq     L0004
	cmp     #$A6
	beq     L0004
	cmp     #$A7
	beq     L0004
	cmp     #$A8
	beq     L0004
;
; || tile == 0xB0 || tile == 0xB1 || tile == 0xB4 || tile == 0xB5 
;
	cmp     #$A9
	beq     L0004
	cmp     #$B0
	beq     L0004
	cmp     #$B1
	beq     L0004
	cmp     #$B4
	beq     L0004
;
; || tile == 0xB6 || tile == 0xB7 || tile == 0xB8 || tile == 0xB9;
;
	cmp     #$B5
	beq     L0004
	cmp     #$B6
	beq     L0004
	cmp     #$B7
	beq     L0004
	cmp     #$B8
	beq     L0004
	cmp     #$B9
	beq     L0004
	ldx     #$00
	txa
	jmp     incsp1
L0004:	lda     #$01
	ldx     #$00
;
; }
;
	jmp     incsp1

.endproc

; ---------------------------------------------------------------
; void __near__ HandleRightMovement (unsigned int bound, unsigned int amountToIncrement)
; ---------------------------------------------------------------

.segment	"CODE"

.proc	_HandleRightMovement: near

.segment	"CODE"

;
; {
;
	jsr     pushax
;
; if (playerX > 0 && playerX < 128 || (playerX + scrollX >= 384))
;
	lda     _playerX
	cmp     #$01
	lda     _playerX+1
	sbc     #$00
	bvs     L0003
	eor     #$80
L0003:	bpl     L0004
	lda     _playerX
	cmp     #$80
	lda     _playerX+1
	sbc     #$00
	bvc     L0005
	eor     #$80
L0005:	bmi     L0011
L0004:	lda     _playerX
	clc
	adc     _scrollX
	pha
	lda     _playerX+1
	adc     _scrollX+1
	tax
	pla
	cmp     #$80
	txa
	sbc     #$01
	bcc     L0002
;
; playerX += amountToIncrement;
;
L0011:	ldy     #$01
	lda     (sp),y
	tax
	dey
	lda     (sp),y
	clc
	adc     _playerX
	sta     _playerX
	txa
	adc     _playerX+1
	sta     _playerX+1
;
; else if ((playerX + scrollX) >= 128 && (playerX + scrollX) < 384)
;
	jmp     incsp4
L0002:	lda     _playerX
	clc
	adc     _scrollX
	pha
	lda     _playerX+1
	adc     _scrollX+1
	tax
	pla
	cmp     #$80
	txa
	sbc     #$00
	bcc     L000F
	lda     _playerX
	clc
	adc     _scrollX
	pha
	lda     _playerX+1
	adc     _scrollX+1
	tax
	pla
	cpx     #$01
	bne     L000B
	cmp     #$80
L000B:	bcs     L000F
;
; if (scrollX <= bound) 
;
	lda     _scrollX
	sec
	ldy     #$02
	sbc     (sp),y
	sta     tmp1
	lda     _scrollX+1
	iny
	sbc     (sp),y
	ora     tmp1
	beq     L0010
	bcs     L000E
;
; scrollX += amountToIncrement;
;
L0010:	ldy     #$01
	lda     (sp),y
	tax
	dey
	lda     (sp),y
	clc
	adc     _scrollX
	sta     _scrollX
	txa
	adc     _scrollX+1
	sta     _scrollX+1
;
; else 
;
	jmp     incsp4
;
; scrollX = MAX_SCROLL;
;
L000E:	ldx     #$01
	lda     #$00
	sta     _scrollX
	stx     _scrollX+1
;
; }
;
L000F:	jmp     incsp4

.endproc

; ---------------------------------------------------------------
; void __near__ HandleLeftMovement (unsigned int bound, unsigned int amountToDecrement)
; ---------------------------------------------------------------

.segment	"CODE"

.proc	_HandleLeftMovement: near

.segment	"CODE"

;
; {
;
	jsr     pushax
;
; if (playerX > 0 && playerX < 128 || (playerX + scrollX > 384) || 
;
	lda     _playerX
	cmp     #$01
	lda     _playerX+1
	sbc     #$00
	bvs     L0003
	eor     #$80
L0003:	bpl     L0004
	lda     _playerX
	cmp     #$80
	lda     _playerX+1
	sbc     #$00
	bvc     L0005
	eor     #$80
L0005:	bmi     L0011
L0004:	lda     _playerX
	clc
	adc     _scrollX
	pha
	lda     _playerX+1
	adc     _scrollX+1
	tax
	pla
	cmp     #$81
	txa
	sbc     #$01
	bcs     L0011
;
; (scrollX == MIN_SCROLL))
;
	lda     _scrollX
	ora     _scrollX+1
	bne     L0002
;
; playerX -= amountToDecrement;
;
L0011:	ldy     #$01
	lda     (sp),y
	tax
	dey
	lda     (sp),y
	eor     #$FF
	sec
	adc     _playerX
	sta     _playerX
	txa
	eor     #$FF
	adc     _playerX+1
	sta     _playerX+1
;
; else if ((playerX + scrollX) > 128 && (playerX + scrollX) <= 384)
;
	jmp     incsp4
L0002:	lda     _playerX
	clc
	adc     _scrollX
	pha
	lda     _playerX+1
	adc     _scrollX+1
	tax
	pla
	cmp     #$81
	txa
	sbc     #$00
	bcc     L0010
	lda     _playerX
	clc
	adc     _scrollX
	pha
	lda     _playerX+1
	adc     _scrollX+1
	tax
	pla
	cpx     #$01
	bne     L000C
	cmp     #$81
L000C:	bcs     L0010
;
; if (scrollX >= bound) 
;
	lda     _scrollX
	ldy     #$02
	cmp     (sp),y
	lda     _scrollX+1
	iny
	sbc     (sp),y
	lda     #$00
	bcc     L0015
;
; scrollX -= amountToDecrement;
;
	ldy     #$01
	lda     (sp),y
	tax
	dey
	lda     (sp),y
	eor     #$FF
	sec
	adc     _scrollX
	sta     _scrollX
	txa
	eor     #$FF
	adc     _scrollX+1
;
; else 
;
	jmp     L0016
;
; scrollX = MIN_SCROLL;
;
L0015:	sta     _scrollX
L0016:	sta     _scrollX+1
;
; }
;
L0010:	jmp     incsp4

.endproc

; ---------------------------------------------------------------
; char __near__ CheckIfGoalTile (unsigned char tile)
; ---------------------------------------------------------------

.segment	"CODE"

.proc	_CheckIfGoalTile: near

.segment	"CODE"

;
; {
;
	jsr     pusha
;
; return tile == 0x04 || tile == 0x05 || tile == 0x14 || tile == 0x15;
;
	ldy     #$00
	lda     (sp),y
	cmp     #$04
	beq     L0004
	cmp     #$05
	beq     L0004
	cmp     #$14
	beq     L0004
	cmp     #$15
	beq     L0004
	ldx     #$00
	txa
	jmp     incsp1
L0004:	lda     #$01
	ldx     #$00
;
; }
;
	jmp     incsp1

.endproc

; ---------------------------------------------------------------
; void __near__ UpdateColliderPositions (void)
; ---------------------------------------------------------------

.segment	"CODE"

.proc	_UpdateColliderPositions: near

.segment	"CODE"

;
; playerLeft = playerX - 8;
;
	lda     _playerX
	ldx     _playerX+1
	sec
	sbc     #$08
	bcs     L0002
	dex
L0002:	sta     _playerLeft
	stx     _playerLeft+1
;
; playerRight = playerX + 8;
;
	lda     _playerX
	ldx     _playerX+1
	clc
	adc     #$08
	bcc     L0003
	inx
L0003:	sta     _playerRight
	stx     _playerRight+1
;
; playerTop = playerY - 8;
;
	lda     _playerY
	ldx     _playerY+1
	sec
	sbc     #$08
	bcs     L0004
	dex
L0004:	sta     _playerTop
	stx     _playerTop+1
;
; playerBottom = playerY + 8;
;
	lda     _playerY
	ldx     _playerY+1
	clc
	adc     #$08
	bcc     L0005
	inx
L0005:	sta     _playerBottom
	stx     _playerBottom+1
;
; }
;
	rts

.endproc

; ---------------------------------------------------------------
; void __near__ DashEnd (void)
; ---------------------------------------------------------------

.segment	"CODE"

.proc	_DashEnd: near

.segment	"CODE"

;
; if (isDashing)
;
	lda     _isDashing
	ora     _isDashing+1
	beq     L0002
;
; isDashing = 0;
;
	lda     #$00
	sta     _isDashing
	sta     _isDashing+1
;
; dashCooldown = DASH_COOLDOWN;
;
	lda     #$14
	sta     _dashCooldown
;
; }
;
L0002:	rts

.endproc

; ---------------------------------------------------------------
; char __near__ CheckIfPlatformTile (unsigned char tile)
; ---------------------------------------------------------------

.segment	"CODE"

.proc	_CheckIfPlatformTile: near

.segment	"CODE"

;
; {
;
	jsr     pusha
;
; return tile == 0x84 || tile == 0x85 || tile == 0x94 || tile == 0x95;
;
	ldy     #$00
	lda     (sp),y
	cmp     #$84
	beq     L0004
	cmp     #$85
	beq     L0004
	cmp     #$94
	beq     L0004
	cmp     #$95
	beq     L0004
	ldx     #$00
	txa
	jmp     incsp1
L0004:	lda     #$01
	ldx     #$00
;
; }
;
	jmp     incsp1

.endproc

; ---------------------------------------------------------------
; void __near__ main (void)
; ---------------------------------------------------------------

.segment	"CODE"

.proc	_main: near

.segment	"CODE"

;
; DrawTitleScreen();
;
L000C:	jsr     _DrawTitleScreen
;
; ppu_wait_nmi();
;
L0002:	jsr     _ppu_wait_nmi
;
; movementPad = pad_poll(0);
;
	lda     #$00
	jsr     _pad_poll
	sta     _movementPad
;
; inputPad = get_pad_new(0);
;
	lda     #$00
	jsr     _get_pad_new
	sta     _inputPad
;
; switch(currentGameState)
;
	lda     _currentGameState
;
; }
;
	beq     L000D
	cmp     #$01
	beq     L0009
	cmp     #$02
	beq     L000E
	jmp     L0002
;
; if (inputPad & PAD_START)
;
L000D:	lda     _inputPad
	and     #$10
	beq     L0002
;
; currentGameState = GAME_LOOP;
;
	lda     #$01
	sta     _currentGameState
;
; GameLoop();
;
	jsr     _GameLoop
;
; break;
;
	jmp     L0002
;
; UpdateColliderPositions();
;
L0009:	jsr     _UpdateColliderPositions
;
; MovePlayer();
;
	jsr     _MovePlayer
;
; DrawPlayer();
;
	jsr     _DrawPlayer
;
; scroll(scrollX, 0);
;
	lda     _scrollX
	ldx     _scrollX+1
	jsr     pushax
	ldx     #$00
	txa
	jsr     _scroll
;
; CheckIfEnd();
;
	jsr     _CheckIfEnd
;
; break;
;
	jmp     L0002
;
; if (inputPad & PAD_START)
;
L000E:	lda     _inputPad
	and     #$10
	beq     L0002
;
; currentGameState = START_SCREEN;
;
	lda     #$00
	sta     _currentGameState
;
; break;
;
	jmp     L000C

.endproc

