;
; File generated by cc65 v 2.19 - Git 5cb1bc6
;
	.fopt		compiler,"cc65 v 2.19 - Git 5cb1bc6"
	.setcpu		"6502"
	.smart		on
	.autoimport	on
	.case		on
	.debuginfo	off
	.importzp	sp, sreg, regsave, regbank
	.importzp	tmp1, tmp2, tmp3, tmp4, ptr1, ptr2, ptr3, ptr4
	.macpack	longbranch
	.forceimport	__STARTUP__
	.import		_pal_bg
	.import		_pal_spr
	.import		_ppu_wait_nmi
	.import		_ppu_off
	.import		_ppu_on_all
	.import		_oam_clear
	.import		_oam_spr
	.import		_music_play
	.import		_sfx_play
	.import		_pad_poll
	.import		_vram_adr
	.import		_vram_fill
	.import		_vram_write
	.import		_delay
	.import		_get_pad_new
	.import		_set_music_speed
	.import		_sprintf
	.export		_Level1
	.export		_Level2
	.export		_Level3
	.export		_TitleScreen
	.export		_DeathScreen
	.export		_WinScreen
	.export		_LoadingScreen
	.export		_palette
	.export		_spritePalette
	.export		_currentGameState
	.export		_text
	.export		_titlePrompt
	.export		_endScreenTitle
	.export		_endScreenPrompt
	.export		_loadingText
	.export		_respawningText
	.export		_DeathCounter
	.export		_inputPad
	.export		_movementPad
	.export		_i
	.export		_currentLevel
	.export		_currentLevelData
	.export		_deathCounterText
	.export		_player
	.export		_DrawTitleScreen
	.export		_GameLoop
	.export		_MovePlayer
	.export		_DrawPlayer
	.export		_GetTileIndex
	.export		_CheckIfEnd
	.export		_DrawEndScreen
	.export		_OnGround
	.export		_CheckIfCollidableTile
	.export		_CheckIfGoalTile
	.export		_UpdateColliderPositions
	.export		_DashEnd
	.export		_CheckIfPlatformTile
	.export		_SetPlayerValues
	.export		_ResetLevel
	.export		_CheckIfSpikes
	.export		_WriteDeathCounter
	.export		_ChangeMusic
	.export		_main

.segment	"DATA"

_currentGameState:
	.byte	$00
_i:
	.word	$0000
_currentLevel:
	.word	$0001

.segment	"RODATA"

_Level1:
	.byte	$00
	.byte	$00
	.byte	$00
	.byte	$00
	.byte	$00
	.byte	$00
	.byte	$00
	.byte	$00
	.byte	$00
	.byte	$00
	.byte	$00
	.byte	$00
	.byte	$00
	.byte	$00
	.byte	$00
	.byte	$00
	.byte	$00
	.byte	$00
	.byte	$00
	.byte	$00
	.byte	$00
	.byte	$00
	.byte	$00
	.byte	$00
	.byte	$00
	.byte	$00
	.byte	$00
	.byte	$00
	.byte	$00
	.byte	$00
	.byte	$00
	.byte	$00
	.byte	$00
	.byte	$00
	.byte	$00
	.byte	$00
	.byte	$00
	.byte	$00
	.byte	$00
	.byte	$00
	.byte	$00
	.byte	$00
	.byte	$00
	.byte	$00
	.byte	$00
	.byte	$00
	.byte	$00
	.byte	$00
	.byte	$00
	.byte	$00
	.byte	$00
	.byte	$00
	.byte	$00
	.byte	$00
	.byte	$00
	.byte	$00
	.byte	$00
	.byte	$00
	.byte	$00
	.byte	$00
	.byte	$00
	.byte	$00
	.byte	$00
	.byte	$00
	.byte	$a2
	.byte	$a3
	.byte	$a6
	.byte	$a7
	.byte	$a6
	.byte	$a7
	.byte	$a6
	.byte	$a7
	.byte	$a6
	.byte	$a7
	.byte	$a6
	.byte	$a7
	.byte	$a6
	.byte	$a7
	.byte	$a6
	.byte	$a7
	.byte	$a6
	.byte	$a7
	.byte	$a6
	.byte	$a7
	.byte	$a6
	.byte	$a7
	.byte	$a6
	.byte	$a7
	.byte	$a6
	.byte	$a7
	.byte	$a6
	.byte	$a7
	.byte	$a6
	.byte	$a7
	.byte	$a2
	.byte	$a3
	.byte	$b2
	.byte	$b3
	.byte	$91
	.byte	$91
	.byte	$91
	.byte	$91
	.byte	$91
	.byte	$91
	.byte	$91
	.byte	$91
	.byte	$91
	.byte	$91
	.byte	$80
	.byte	$80
	.byte	$91
	.byte	$91
	.byte	$91
	.byte	$91
	.byte	$91
	.byte	$91
	.byte	$91
	.byte	$91
	.byte	$91
	.byte	$91
	.byte	$91
	.byte	$91
	.byte	$91
	.byte	$91
	.byte	$91
	.byte	$91
	.byte	$b2
	.byte	$b3
	.byte	$82
	.byte	$83
	.byte	$a2
	.byte	$a3
	.byte	$b2
	.byte	$b3
	.byte	$a2
	.byte	$a3
	.byte	$b2
	.byte	$b3
	.byte	$b2
	.byte	$b3
	.byte	$80
	.byte	$80
	.byte	$a2
	.byte	$a3
	.byte	$b2
	.byte	$b3
	.byte	$a2
	.byte	$a3
	.byte	$b2
	.byte	$b3
	.byte	$a2
	.byte	$a3
	.byte	$b2
	.byte	$b3
	.byte	$a2
	.byte	$a3
	.byte	$b2
	.byte	$b3
	.byte	$82
	.byte	$83
	.byte	$92
	.byte	$93
	.byte	$b2
	.byte	$b3
	.byte	$a2
	.byte	$a3
	.byte	$b2
	.byte	$b3
	.byte	$a2
	.byte	$a3
	.byte	$a2
	.byte	$a3
	.byte	$80
	.byte	$80
	.byte	$b2
	.byte	$b3
	.byte	$a2
	.byte	$a3
	.byte	$b2
	.byte	$b3
	.byte	$a2
	.byte	$a3
	.byte	$b2
	.byte	$b3
	.byte	$a2
	.byte	$a3
	.byte	$b2
	.byte	$b3
	.byte	$a2
	.byte	$a3
	.byte	$92
	.byte	$93
	.byte	$82
	.byte	$83
	.byte	$a2
	.byte	$a3
	.byte	$b2
	.byte	$b3
	.byte	$a2
	.byte	$a3
	.byte	$b2
	.byte	$b3
	.byte	$b2
	.byte	$b3
	.byte	$80
	.byte	$80
	.byte	$a2
	.byte	$a3
	.byte	$b2
	.byte	$b3
	.byte	$a2
	.byte	$a3
	.byte	$b2
	.byte	$b3
	.byte	$a2
	.byte	$a3
	.byte	$b2
	.byte	$b3
	.byte	$04
	.byte	$05
	.byte	$b2
	.byte	$b3
	.byte	$82
	.byte	$83
	.byte	$92
	.byte	$93
	.byte	$b2
	.byte	$b3
	.byte	$a2
	.byte	$a3
	.byte	$b2
	.byte	$b3
	.byte	$a2
	.byte	$a3
	.byte	$a2
	.byte	$a3
	.byte	$80
	.byte	$80
	.byte	$b2
	.byte	$b3
	.byte	$a2
	.byte	$a3
	.byte	$b2
	.byte	$b3
	.byte	$a2
	.byte	$a3
	.byte	$b2
	.byte	$b3
	.byte	$a2
	.byte	$a3
	.byte	$14
	.byte	$15
	.byte	$a2
	.byte	$a3
	.byte	$92
	.byte	$93
	.byte	$82
	.byte	$83
	.byte	$a2
	.byte	$a3
	.byte	$b2
	.byte	$b3
	.byte	$a2
	.byte	$a3
	.byte	$b2
	.byte	$b3
	.byte	$b2
	.byte	$b3
	.byte	$80
	.byte	$80
	.byte	$a2
	.byte	$a3
	.byte	$b2
	.byte	$b3
	.byte	$b2
	.byte	$b3
	.byte	$b2
	.byte	$b3
	.byte	$a2
	.byte	$a3
	.byte	$84
	.byte	$85
	.byte	$84
	.byte	$85
	.byte	$84
	.byte	$85
	.byte	$82
	.byte	$83
	.byte	$92
	.byte	$93
	.byte	$b2
	.byte	$b3
	.byte	$a2
	.byte	$a3
	.byte	$b2
	.byte	$b3
	.byte	$a2
	.byte	$a3
	.byte	$a2
	.byte	$a3
	.byte	$80
	.byte	$80
	.byte	$b2
	.byte	$b3
	.byte	$a2
	.byte	$a3
	.byte	$a2
	.byte	$a3
	.byte	$a2
	.byte	$a3
	.byte	$b2
	.byte	$b3
	.byte	$94
	.byte	$95
	.byte	$94
	.byte	$95
	.byte	$94
	.byte	$95
	.byte	$92
	.byte	$93
	.byte	$82
	.byte	$83
	.byte	$a2
	.byte	$a3
	.byte	$b2
	.byte	$b3
	.byte	$a2
	.byte	$a3
	.byte	$b2
	.byte	$b3
	.byte	$b2
	.byte	$b3
	.byte	$80
	.byte	$80
	.byte	$a2
	.byte	$a3
	.byte	$a2
	.byte	$a3
	.byte	$84
	.byte	$85
	.byte	$b2
	.byte	$b3
	.byte	$a2
	.byte	$a3
	.byte	$b2
	.byte	$b3
	.byte	$a2
	.byte	$a3
	.byte	$b2
	.byte	$b3
	.byte	$82
	.byte	$83
	.byte	$92
	.byte	$93
	.byte	$b2
	.byte	$b3
	.byte	$a2
	.byte	$a3
	.byte	$b2
	.byte	$b3
	.byte	$a2
	.byte	$a3
	.byte	$a2
	.byte	$a3
	.byte	$80
	.byte	$80
	.byte	$b2
	.byte	$b3
	.byte	$b2
	.byte	$b3
	.byte	$94
	.byte	$95
	.byte	$a2
	.byte	$a3
	.byte	$b2
	.byte	$b3
	.byte	$a2
	.byte	$a3
	.byte	$b2
	.byte	$b3
	.byte	$a2
	.byte	$a3
	.byte	$92
	.byte	$93
	.byte	$82
	.byte	$83
	.byte	$a2
	.byte	$a3
	.byte	$b2
	.byte	$b3
	.byte	$a0
	.byte	$a1
	.byte	$82
	.byte	$83
	.byte	$a2
	.byte	$a3
	.byte	$80
	.byte	$80
	.byte	$a2
	.byte	$a3
	.byte	$b2
	.byte	$b3
	.byte	$a2
	.byte	$a3
	.byte	$b2
	.byte	$b3
	.byte	$a2
	.byte	$a3
	.byte	$b2
	.byte	$b3
	.byte	$a2
	.byte	$a3
	.byte	$b2
	.byte	$b3
	.byte	$82
	.byte	$83
	.byte	$92
	.byte	$93
	.byte	$b2
	.byte	$b3
	.byte	$a2
	.byte	$a3
	.byte	$b0
	.byte	$b1
	.byte	$92
	.byte	$93
	.byte	$b2
	.byte	$b3
	.byte	$90
	.byte	$90
	.byte	$b2
	.byte	$b3
	.byte	$a2
	.byte	$a3
	.byte	$b2
	.byte	$b3
	.byte	$a2
	.byte	$a3
	.byte	$b2
	.byte	$b3
	.byte	$a2
	.byte	$a3
	.byte	$b2
	.byte	$b3
	.byte	$a2
	.byte	$a3
	.byte	$92
	.byte	$93
	.byte	$82
	.byte	$83
	.byte	$a2
	.byte	$a3
	.byte	$b2
	.byte	$b3
	.byte	$a2
	.byte	$a3
	.byte	$82
	.byte	$83
	.byte	$a2
	.byte	$a3
	.byte	$b2
	.byte	$b3
	.byte	$a2
	.byte	$a3
	.byte	$b2
	.byte	$b3
	.byte	$b2
	.byte	$b3
	.byte	$a2
	.byte	$a3
	.byte	$84
	.byte	$85
	.byte	$b2
	.byte	$b3
	.byte	$a2
	.byte	$a3
	.byte	$b2
	.byte	$b3
	.byte	$82
	.byte	$83
	.byte	$92
	.byte	$93
	.byte	$b2
	.byte	$b3
	.byte	$a2
	.byte	$a3
	.byte	$b2
	.byte	$b3
	.byte	$92
	.byte	$93
	.byte	$b2
	.byte	$b3
	.byte	$a2
	.byte	$a3
	.byte	$b2
	.byte	$b3
	.byte	$a2
	.byte	$a3
	.byte	$a2
	.byte	$a3
	.byte	$b2
	.byte	$b3
	.byte	$94
	.byte	$95
	.byte	$a2
	.byte	$a3
	.byte	$b2
	.byte	$b3
	.byte	$a2
	.byte	$a3
	.byte	$92
	.byte	$93
	.byte	$82
	.byte	$83
	.byte	$a2
	.byte	$a3
	.byte	$b2
	.byte	$b3
	.byte	$a2
	.byte	$a3
	.byte	$82
	.byte	$83
	.byte	$a2
	.byte	$a3
	.byte	$b2
	.byte	$b3
	.byte	$a2
	.byte	$a3
	.byte	$b2
	.byte	$b3
	.byte	$a2
	.byte	$a3
	.byte	$b2
	.byte	$b3
	.byte	$a2
	.byte	$a3
	.byte	$b2
	.byte	$b3
	.byte	$a2
	.byte	$a3
	.byte	$84
	.byte	$85
	.byte	$82
	.byte	$83
	.byte	$92
	.byte	$93
	.byte	$b2
	.byte	$b3
	.byte	$a2
	.byte	$a3
	.byte	$b2
	.byte	$b3
	.byte	$92
	.byte	$93
	.byte	$b2
	.byte	$b3
	.byte	$a2
	.byte	$a3
	.byte	$b2
	.byte	$b3
	.byte	$a2
	.byte	$a3
	.byte	$b2
	.byte	$b3
	.byte	$a2
	.byte	$a3
	.byte	$b2
	.byte	$b3
	.byte	$a2
	.byte	$a3
	.byte	$b2
	.byte	$b3
	.byte	$94
	.byte	$95
	.byte	$92
	.byte	$93
	.byte	$82
	.byte	$83
	.byte	$84
	.byte	$85
	.byte	$b2
	.byte	$b3
	.byte	$a2
	.byte	$a3
	.byte	$82
	.byte	$83
	.byte	$a2
	.byte	$a3
	.byte	$b2
	.byte	$b3
	.byte	$a2
	.byte	$a3
	.byte	$b2
	.byte	$b3
	.byte	$a2
	.byte	$a3
	.byte	$b2
	.byte	$b3
	.byte	$b2
	.byte	$b3
	.byte	$b2
	.byte	$b3
	.byte	$a2
	.byte	$a3
	.byte	$b2
	.byte	$b3
	.byte	$82
	.byte	$83
	.byte	$92
	.byte	$93
	.byte	$94
	.byte	$95
	.byte	$a2
	.byte	$a3
	.byte	$b2
	.byte	$b3
	.byte	$92
	.byte	$93
	.byte	$b2
	.byte	$b3
	.byte	$a2
	.byte	$a3
	.byte	$b2
	.byte	$b3
	.byte	$a2
	.byte	$a3
	.byte	$b2
	.byte	$b3
	.byte	$a2
	.byte	$a3
	.byte	$a2
	.byte	$a3
	.byte	$a2
	.byte	$a3
	.byte	$b2
	.byte	$b3
	.byte	$a2
	.byte	$a3
	.byte	$92
	.byte	$93
	.byte	$82
	.byte	$83
	.byte	$a2
	.byte	$a3
	.byte	$b2
	.byte	$b3
	.byte	$a2
	.byte	$a3
	.byte	$82
	.byte	$83
	.byte	$a2
	.byte	$a3
	.byte	$b2
	.byte	$b3
	.byte	$a2
	.byte	$a3
	.byte	$b2
	.byte	$b3
	.byte	$a2
	.byte	$a3
	.byte	$b2
	.byte	$b3
	.byte	$a2
	.byte	$a3
	.byte	$b2
	.byte	$b3
	.byte	$a2
	.byte	$a3
	.byte	$b2
	.byte	$b3
	.byte	$82
	.byte	$83
	.byte	$92
	.byte	$93
	.byte	$b2
	.byte	$b3
	.byte	$a2
	.byte	$a3
	.byte	$b2
	.byte	$b3
	.byte	$92
	.byte	$93
	.byte	$b2
	.byte	$b3
	.byte	$a2
	.byte	$a3
	.byte	$b2
	.byte	$b3
	.byte	$a2
	.byte	$a3
	.byte	$b2
	.byte	$b3
	.byte	$a2
	.byte	$a3
	.byte	$b2
	.byte	$b3
	.byte	$a2
	.byte	$a3
	.byte	$b2
	.byte	$b3
	.byte	$a2
	.byte	$a3
	.byte	$92
	.byte	$93
	.byte	$82
	.byte	$83
	.byte	$a2
	.byte	$a3
	.byte	$b2
	.byte	$b3
	.byte	$84
	.byte	$85
	.byte	$82
	.byte	$83
	.byte	$a2
	.byte	$a3
	.byte	$b2
	.byte	$b3
	.byte	$a2
	.byte	$a3
	.byte	$b2
	.byte	$b3
	.byte	$a2
	.byte	$a3
	.byte	$b2
	.byte	$b3
	.byte	$a2
	.byte	$a3
	.byte	$b2
	.byte	$b3
	.byte	$a2
	.byte	$a3
	.byte	$84
	.byte	$85
	.byte	$82
	.byte	$83
	.byte	$92
	.byte	$93
	.byte	$b2
	.byte	$b3
	.byte	$a2
	.byte	$a3
	.byte	$94
	.byte	$95
	.byte	$92
	.byte	$93
	.byte	$b2
	.byte	$b3
	.byte	$a2
	.byte	$a3
	.byte	$b2
	.byte	$b3
	.byte	$a2
	.byte	$a3
	.byte	$b2
	.byte	$b3
	.byte	$a2
	.byte	$a3
	.byte	$b2
	.byte	$b3
	.byte	$a2
	.byte	$a3
	.byte	$b2
	.byte	$b3
	.byte	$94
	.byte	$95
	.byte	$92
	.byte	$93
	.byte	$82
	.byte	$83
	.byte	$a2
	.byte	$a3
	.byte	$b2
	.byte	$b3
	.byte	$a2
	.byte	$a3
	.byte	$82
	.byte	$83
	.byte	$a2
	.byte	$a3
	.byte	$b2
	.byte	$b3
	.byte	$a2
	.byte	$a3
	.byte	$b2
	.byte	$b3
	.byte	$a2
	.byte	$a3
	.byte	$b2
	.byte	$b3
	.byte	$a2
	.byte	$a3
	.byte	$b2
	.byte	$b3
	.byte	$a2
	.byte	$a3
	.byte	$b2
	.byte	$b3
	.byte	$82
	.byte	$83
	.byte	$92
	.byte	$93
	.byte	$b2
	.byte	$b3
	.byte	$a2
	.byte	$a3
	.byte	$b2
	.byte	$b3
	.byte	$92
	.byte	$93
	.byte	$b2
	.byte	$b3
	.byte	$a2
	.byte	$a3
	.byte	$b2
	.byte	$b3
	.byte	$a2
	.byte	$a3
	.byte	$b2
	.byte	$b3
	.byte	$a2
	.byte	$a3
	.byte	$b2
	.byte	$b3
	.byte	$a2
	.byte	$a3
	.byte	$b2
	.byte	$b3
	.byte	$a2
	.byte	$a3
	.byte	$92
	.byte	$93
	.byte	$82
	.byte	$83
	.byte	$a2
	.byte	$a3
	.byte	$b2
	.byte	$b3
	.byte	$a2
	.byte	$a3
	.byte	$82
	.byte	$83
	.byte	$a2
	.byte	$a3
	.byte	$b2
	.byte	$b3
	.byte	$a2
	.byte	$a3
	.byte	$b2
	.byte	$b3
	.byte	$a2
	.byte	$a3
	.byte	$b2
	.byte	$b3
	.byte	$a2
	.byte	$a3
	.byte	$b2
	.byte	$b3
	.byte	$a2
	.byte	$a3
	.byte	$b2
	.byte	$b3
	.byte	$82
	.byte	$83
	.byte	$92
	.byte	$93
	.byte	$b2
	.byte	$b3
	.byte	$a2
	.byte	$a3
	.byte	$b2
	.byte	$b3
	.byte	$92
	.byte	$93
	.byte	$b2
	.byte	$b3
	.byte	$a2
	.byte	$a3
	.byte	$b2
	.byte	$b3
	.byte	$a2
	.byte	$a3
	.byte	$b2
	.byte	$b3
	.byte	$a2
	.byte	$a3
	.byte	$b2
	.byte	$b3
	.byte	$a2
	.byte	$a3
	.byte	$b2
	.byte	$b3
	.byte	$a2
	.byte	$a3
	.byte	$92
	.byte	$93
	.byte	$a2
	.byte	$a3
	.byte	$a0
	.byte	$a1
	.byte	$a0
	.byte	$a1
	.byte	$a0
	.byte	$a1
	.byte	$82
	.byte	$83
	.byte	$a2
	.byte	$a3
	.byte	$b2
	.byte	$b3
	.byte	$a2
	.byte	$a3
	.byte	$b2
	.byte	$b3
	.byte	$a2
	.byte	$a3
	.byte	$b2
	.byte	$b3
	.byte	$a0
	.byte	$a1
	.byte	$a0
	.byte	$a1
	.byte	$a2
	.byte	$a3
	.byte	$b2
	.byte	$b3
	.byte	$a2
	.byte	$a3
	.byte	$b2
	.byte	$b3
	.byte	$b0
	.byte	$b1
	.byte	$b0
	.byte	$b1
	.byte	$b0
	.byte	$b1
	.byte	$92
	.byte	$93
	.byte	$b2
	.byte	$b3
	.byte	$a2
	.byte	$a3
	.byte	$b2
	.byte	$b3
	.byte	$a2
	.byte	$a3
	.byte	$b2
	.byte	$b3
	.byte	$a2
	.byte	$a3
	.byte	$b0
	.byte	$b1
	.byte	$b0
	.byte	$b1
	.byte	$b2
	.byte	$b3
	.byte	$a2
	.byte	$a3
	.byte	$b2
	.byte	$b3
	.byte	$00
	.byte	$00
	.byte	$00
	.byte	$00
	.byte	$00
	.byte	$00
	.byte	$00
	.byte	$00
	.byte	$88
	.byte	$aa
	.byte	$aa
	.byte	$88
	.byte	$aa
	.byte	$aa
	.byte	$2a
	.byte	$22
	.byte	$88
	.byte	$aa
	.byte	$aa
	.byte	$88
	.byte	$2a
	.byte	$aa
	.byte	$a0
	.byte	$20
	.byte	$88
	.byte	$a2
	.byte	$88
	.byte	$a8
	.byte	$aa
	.byte	$2a
	.byte	$aa
	.byte	$22
	.byte	$08
	.byte	$aa
	.byte	$88
	.byte	$aa
	.byte	$aa
	.byte	$aa
	.byte	$aa
	.byte	$20
	.byte	$88
	.byte	$2a
	.byte	$88
	.byte	$aa
	.byte	$aa
	.byte	$aa
	.byte	$aa
	.byte	$02
	.byte	$88
	.byte	$aa
	.byte	$88
	.byte	$aa
	.byte	$aa
	.byte	$aa
	.byte	$aa
	.byte	$22
	.byte	$00
	.byte	$00
	.byte	$08
	.byte	$0a
	.byte	$0a
	.byte	$02
	.byte	$08
	.byte	$02
_Level2:
	.byte	$00
	.byte	$00
	.byte	$00
	.byte	$00
	.byte	$00
	.byte	$00
	.byte	$00
	.byte	$00
	.byte	$00
	.byte	$00
	.byte	$00
	.byte	$00
	.byte	$00
	.byte	$00
	.byte	$00
	.byte	$00
	.byte	$00
	.byte	$00
	.byte	$00
	.byte	$00
	.byte	$00
	.byte	$00
	.byte	$00
	.byte	$00
	.byte	$00
	.byte	$00
	.byte	$00
	.byte	$00
	.byte	$00
	.byte	$00
	.byte	$00
	.byte	$00
	.byte	$00
	.byte	$00
	.byte	$00
	.byte	$00
	.byte	$00
	.byte	$00
	.byte	$00
	.byte	$00
	.byte	$00
	.byte	$00
	.byte	$00
	.byte	$00
	.byte	$00
	.byte	$00
	.byte	$00
	.byte	$00
	.byte	$00
	.byte	$00
	.byte	$00
	.byte	$00
	.byte	$00
	.byte	$00
	.byte	$00
	.byte	$00
	.byte	$00
	.byte	$00
	.byte	$00
	.byte	$00
	.byte	$00
	.byte	$00
	.byte	$00
	.byte	$00
	.byte	$a8
	.byte	$a9
	.byte	$12
	.byte	$13
	.byte	$12
	.byte	$13
	.byte	$12
	.byte	$13
	.byte	$12
	.byte	$13
	.byte	$12
	.byte	$13
	.byte	$12
	.byte	$13
	.byte	$12
	.byte	$13
	.byte	$12
	.byte	$13
	.byte	$12
	.byte	$13
	.byte	$12
	.byte	$13
	.byte	$12
	.byte	$13
	.byte	$12
	.byte	$13
	.byte	$12
	.byte	$13
	.byte	$12
	.byte	$13
	.byte	$a4
	.byte	$a5
	.byte	$b8
	.byte	$b9
	.byte	$b6
	.byte	$b7
	.byte	$b6
	.byte	$b7
	.byte	$b6
	.byte	$b7
	.byte	$b6
	.byte	$b7
	.byte	$b6
	.byte	$b7
	.byte	$b6
	.byte	$b7
	.byte	$b6
	.byte	$b7
	.byte	$b6
	.byte	$b7
	.byte	$b6
	.byte	$b7
	.byte	$b6
	.byte	$b7
	.byte	$b6
	.byte	$b7
	.byte	$b6
	.byte	$b7
	.byte	$b6
	.byte	$b7
	.byte	$b6
	.byte	$b7
	.byte	$b4
	.byte	$b5
	.byte	$a8
	.byte	$a9
	.byte	$8b
	.byte	$00
	.byte	$00
	.byte	$00
	.byte	$00
	.byte	$00
	.byte	$00
	.byte	$00
	.byte	$aa
	.byte	$ab
	.byte	$aa
	.byte	$ab
	.byte	$aa
	.byte	$ab
	.byte	$00
	.byte	$00
	.byte	$00
	.byte	$00
	.byte	$00
	.byte	$00
	.byte	$00
	.byte	$00
	.byte	$00
	.byte	$00
	.byte	$00
	.byte	$00
	.byte	$00
	.byte	$8a
	.byte	$a4
	.byte	$a5
	.byte	$b8
	.byte	$b9
	.byte	$8c
	.byte	$00
	.byte	$00
	.byte	$00
	.byte	$00
	.byte	$00
	.byte	$00
	.byte	$00
	.byte	$00
	.byte	$00
	.byte	$00
	.byte	$00
	.byte	$00
	.byte	$00
	.byte	$00
	.byte	$00
	.byte	$00
	.byte	$00
	.byte	$00
	.byte	$00
	.byte	$00
	.byte	$00
	.byte	$00
	.byte	$00
	.byte	$00
	.byte	$00
	.byte	$00
	.byte	$8d
	.byte	$b4
	.byte	$b5
	.byte	$a8
	.byte	$a9
	.byte	$8c
	.byte	$00
	.byte	$00
	.byte	$00
	.byte	$00
	.byte	$00
	.byte	$00
	.byte	$00
	.byte	$00
	.byte	$00
	.byte	$00
	.byte	$00
	.byte	$00
	.byte	$00
	.byte	$00
	.byte	$00
	.byte	$00
	.byte	$00
	.byte	$00
	.byte	$00
	.byte	$00
	.byte	$00
	.byte	$00
	.byte	$00
	.byte	$00
	.byte	$00
	.byte	$00
	.byte	$8d
	.byte	$a4
	.byte	$a5
	.byte	$b8
	.byte	$b9
	.byte	$8c
	.byte	$00
	.byte	$00
	.byte	$00
	.byte	$00
	.byte	$00
	.byte	$00
	.byte	$00
	.byte	$00
	.byte	$00
	.byte	$00
	.byte	$00
	.byte	$00
	.byte	$00
	.byte	$00
	.byte	$00
	.byte	$00
	.byte	$00
	.byte	$00
	.byte	$00
	.byte	$00
	.byte	$00
	.byte	$00
	.byte	$00
	.byte	$00
	.byte	$00
	.byte	$00
	.byte	$9a
	.byte	$b4
	.byte	$b5
	.byte	$a8
	.byte	$a9
	.byte	$8c
	.byte	$00
	.byte	$00
	.byte	$00
	.byte	$00
	.byte	$00
	.byte	$00
	.byte	$00
	.byte	$00
	.byte	$00
	.byte	$00
	.byte	$00
	.byte	$00
	.byte	$00
	.byte	$00
	.byte	$00
	.byte	$00
	.byte	$00
	.byte	$00
	.byte	$00
	.byte	$00
	.byte	$00
	.byte	$00
	.byte	$00
	.byte	$00
	.byte	$00
	.byte	$00
	.byte	$00
	.byte	$a4
	.byte	$a5
	.byte	$b8
	.byte	$b9
	.byte	$8c
	.byte	$00
	.byte	$00
	.byte	$00
	.byte	$00
	.byte	$00
	.byte	$00
	.byte	$00
	.byte	$00
	.byte	$00
	.byte	$a4
	.byte	$a9
	.byte	$8b
	.byte	$00
	.byte	$00
	.byte	$00
	.byte	$00
	.byte	$8a
	.byte	$10
	.byte	$11
	.byte	$e5
	.byte	$e5
	.byte	$e6
	.byte	$00
	.byte	$00
	.byte	$00
	.byte	$00
	.byte	$00
	.byte	$b4
	.byte	$b5
	.byte	$a8
	.byte	$a9
	.byte	$8c
	.byte	$00
	.byte	$00
	.byte	$00
	.byte	$00
	.byte	$00
	.byte	$00
	.byte	$00
	.byte	$00
	.byte	$00
	.byte	$b4
	.byte	$b9
	.byte	$8c
	.byte	$00
	.byte	$00
	.byte	$00
	.byte	$00
	.byte	$8d
	.byte	$b6
	.byte	$b7
	.byte	$f5
	.byte	$f5
	.byte	$f6
	.byte	$00
	.byte	$00
	.byte	$00
	.byte	$00
	.byte	$00
	.byte	$a4
	.byte	$a5
	.byte	$b8
	.byte	$b9
	.byte	$8c
	.byte	$00
	.byte	$00
	.byte	$00
	.byte	$00
	.byte	$00
	.byte	$00
	.byte	$00
	.byte	$00
	.byte	$00
	.byte	$b4
	.byte	$b9
	.byte	$8c
	.byte	$00
	.byte	$00
	.byte	$00
	.byte	$00
	.byte	$00
	.byte	$aa
	.byte	$ab
	.byte	$00
	.byte	$00
	.byte	$00
	.byte	$00
	.byte	$00
	.byte	$00
	.byte	$00
	.byte	$00
	.byte	$b4
	.byte	$b5
	.byte	$a8
	.byte	$a9
	.byte	$8c
	.byte	$00
	.byte	$00
	.byte	$00
	.byte	$00
	.byte	$00
	.byte	$00
	.byte	$00
	.byte	$00
	.byte	$00
	.byte	$b4
	.byte	$b9
	.byte	$8c
	.byte	$00
	.byte	$00
	.byte	$00
	.byte	$00
	.byte	$00
	.byte	$00
	.byte	$00
	.byte	$00
	.byte	$00
	.byte	$00
	.byte	$00
	.byte	$00
	.byte	$00
	.byte	$00
	.byte	$00
	.byte	$a4
	.byte	$a5
	.byte	$b8
	.byte	$b9
	.byte	$8c
	.byte	$00
	.byte	$00
	.byte	$00
	.byte	$00
	.byte	$00
	.byte	$00
	.byte	$00
	.byte	$00
	.byte	$00
	.byte	$b4
	.byte	$b9
	.byte	$8c
	.byte	$00
	.byte	$00
	.byte	$00
	.byte	$00
	.byte	$00
	.byte	$00
	.byte	$00
	.byte	$00
	.byte	$00
	.byte	$00
	.byte	$00
	.byte	$00
	.byte	$e4
	.byte	$e5
	.byte	$e5
	.byte	$b4
	.byte	$b5
	.byte	$a8
	.byte	$a9
	.byte	$8c
	.byte	$00
	.byte	$00
	.byte	$00
	.byte	$00
	.byte	$00
	.byte	$00
	.byte	$00
	.byte	$00
	.byte	$00
	.byte	$b4
	.byte	$b9
	.byte	$8c
	.byte	$00
	.byte	$00
	.byte	$00
	.byte	$00
	.byte	$00
	.byte	$00
	.byte	$00
	.byte	$00
	.byte	$00
	.byte	$00
	.byte	$00
	.byte	$00
	.byte	$f4
	.byte	$f5
	.byte	$f5
	.byte	$a4
	.byte	$a5
	.byte	$b8
	.byte	$b9
	.byte	$8c
	.byte	$00
	.byte	$00
	.byte	$00
	.byte	$00
	.byte	$00
	.byte	$00
	.byte	$00
	.byte	$00
	.byte	$00
	.byte	$b4
	.byte	$b9
	.byte	$8c
	.byte	$00
	.byte	$00
	.byte	$00
	.byte	$00
	.byte	$00
	.byte	$d8
	.byte	$d9
	.byte	$00
	.byte	$00
	.byte	$00
	.byte	$00
	.byte	$00
	.byte	$00
	.byte	$00
	.byte	$00
	.byte	$b4
	.byte	$b5
	.byte	$a8
	.byte	$a9
	.byte	$8c
	.byte	$00
	.byte	$00
	.byte	$00
	.byte	$00
	.byte	$00
	.byte	$00
	.byte	$00
	.byte	$04
	.byte	$05
	.byte	$b4
	.byte	$b9
	.byte	$8c
	.byte	$00
	.byte	$00
	.byte	$00
	.byte	$00
	.byte	$8a
	.byte	$10
	.byte	$11
	.byte	$00
	.byte	$00
	.byte	$00
	.byte	$00
	.byte	$00
	.byte	$00
	.byte	$00
	.byte	$00
	.byte	$a4
	.byte	$a5
	.byte	$b8
	.byte	$b9
	.byte	$8c
	.byte	$00
	.byte	$00
	.byte	$00
	.byte	$00
	.byte	$00
	.byte	$00
	.byte	$00
	.byte	$14
	.byte	$15
	.byte	$b4
	.byte	$b9
	.byte	$9b
	.byte	$00
	.byte	$00
	.byte	$00
	.byte	$00
	.byte	$8d
	.byte	$b6
	.byte	$b7
	.byte	$e5
	.byte	$e5
	.byte	$e6
	.byte	$00
	.byte	$00
	.byte	$00
	.byte	$00
	.byte	$00
	.byte	$b4
	.byte	$b5
	.byte	$a8
	.byte	$a9
	.byte	$8c
	.byte	$00
	.byte	$00
	.byte	$00
	.byte	$00
	.byte	$00
	.byte	$10
	.byte	$11
	.byte	$10
	.byte	$11
	.byte	$10
	.byte	$11
	.byte	$00
	.byte	$00
	.byte	$00
	.byte	$00
	.byte	$00
	.byte	$8d
	.byte	$10
	.byte	$11
	.byte	$f5
	.byte	$f5
	.byte	$f6
	.byte	$00
	.byte	$00
	.byte	$00
	.byte	$00
	.byte	$00
	.byte	$a4
	.byte	$a5
	.byte	$b8
	.byte	$b9
	.byte	$8c
	.byte	$00
	.byte	$00
	.byte	$00
	.byte	$00
	.byte	$00
	.byte	$b6
	.byte	$b7
	.byte	$b6
	.byte	$b7
	.byte	$b6
	.byte	$b7
	.byte	$00
	.byte	$00
	.byte	$00
	.byte	$00
	.byte	$00
	.byte	$9a
	.byte	$b6
	.byte	$b7
	.byte	$00
	.byte	$00
	.byte	$00
	.byte	$00
	.byte	$00
	.byte	$00
	.byte	$00
	.byte	$00
	.byte	$b4
	.byte	$b5
	.byte	$a8
	.byte	$a9
	.byte	$8c
	.byte	$00
	.byte	$00
	.byte	$00
	.byte	$00
	.byte	$00
	.byte	$00
	.byte	$00
	.byte	$00
	.byte	$00
	.byte	$00
	.byte	$00
	.byte	$00
	.byte	$00
	.byte	$00
	.byte	$00
	.byte	$00
	.byte	$00
	.byte	$00
	.byte	$00
	.byte	$00
	.byte	$00
	.byte	$00
	.byte	$00
	.byte	$00
	.byte	$00
	.byte	$00
	.byte	$00
	.byte	$a4
	.byte	$a5
	.byte	$b8
	.byte	$b9
	.byte	$9b
	.byte	$00
	.byte	$00
	.byte	$00
	.byte	$00
	.byte	$00
	.byte	$00
	.byte	$00
	.byte	$00
	.byte	$00
	.byte	$00
	.byte	$00
	.byte	$00
	.byte	$00
	.byte	$00
	.byte	$00
	.byte	$00
	.byte	$00
	.byte	$00
	.byte	$00
	.byte	$00
	.byte	$00
	.byte	$00
	.byte	$00
	.byte	$00
	.byte	$00
	.byte	$00
	.byte	$00
	.byte	$b4
	.byte	$b5
	.byte	$a8
	.byte	$a9
	.byte	$00
	.byte	$00
	.byte	$00
	.byte	$00
	.byte	$00
	.byte	$00
	.byte	$00
	.byte	$00
	.byte	$00
	.byte	$00
	.byte	$00
	.byte	$00
	.byte	$00
	.byte	$00
	.byte	$00
	.byte	$00
	.byte	$00
	.byte	$00
	.byte	$00
	.byte	$00
	.byte	$00
	.byte	$00
	.byte	$00
	.byte	$00
	.byte	$00
	.byte	$e4
	.byte	$e5
	.byte	$e5
	.byte	$a4
	.byte	$a5
	.byte	$b8
	.byte	$b9
	.byte	$00
	.byte	$00
	.byte	$00
	.byte	$00
	.byte	$00
	.byte	$00
	.byte	$00
	.byte	$00
	.byte	$00
	.byte	$00
	.byte	$00
	.byte	$00
	.byte	$00
	.byte	$00
	.byte	$00
	.byte	$00
	.byte	$00
	.byte	$00
	.byte	$00
	.byte	$00
	.byte	$00
	.byte	$00
	.byte	$00
	.byte	$00
	.byte	$00
	.byte	$f4
	.byte	$f5
	.byte	$f5
	.byte	$b4
	.byte	$b5
	.byte	$a8
	.byte	$a9
	.byte	$00
	.byte	$00
	.byte	$00
	.byte	$00
	.byte	$00
	.byte	$00
	.byte	$00
	.byte	$00
	.byte	$00
	.byte	$00
	.byte	$00
	.byte	$00
	.byte	$00
	.byte	$00
	.byte	$00
	.byte	$00
	.byte	$00
	.byte	$00
	.byte	$00
	.byte	$00
	.byte	$00
	.byte	$00
	.byte	$00
	.byte	$00
	.byte	$00
	.byte	$00
	.byte	$00
	.byte	$8a
	.byte	$a4
	.byte	$a5
	.byte	$b8
	.byte	$b9
	.byte	$00
	.byte	$00
	.byte	$00
	.byte	$00
	.byte	$00
	.byte	$00
	.byte	$00
	.byte	$00
	.byte	$00
	.byte	$00
	.byte	$00
	.byte	$00
	.byte	$00
	.byte	$00
	.byte	$00
	.byte	$00
	.byte	$00
	.byte	$00
	.byte	$00
	.byte	$00
	.byte	$00
	.byte	$00
	.byte	$00
	.byte	$00
	.byte	$00
	.byte	$00
	.byte	$00
	.byte	$8d
	.byte	$b4
	.byte	$b5
	.byte	$a8
	.byte	$a9
	.byte	$00
	.byte	$00
	.byte	$00
	.byte	$00
	.byte	$00
	.byte	$00
	.byte	$00
	.byte	$00
	.byte	$00
	.byte	$00
	.byte	$e4
	.byte	$e5
	.byte	$e6
	.byte	$00
	.byte	$00
	.byte	$00
	.byte	$00
	.byte	$00
	.byte	$00
	.byte	$00
	.byte	$e4
	.byte	$e5
	.byte	$e6
	.byte	$00
	.byte	$00
	.byte	$00
	.byte	$00
	.byte	$8d
	.byte	$a4
	.byte	$a5
	.byte	$b8
	.byte	$b9
	.byte	$00
	.byte	$00
	.byte	$00
	.byte	$00
	.byte	$00
	.byte	$00
	.byte	$00
	.byte	$00
	.byte	$00
	.byte	$00
	.byte	$f4
	.byte	$f5
	.byte	$f6
	.byte	$00
	.byte	$00
	.byte	$00
	.byte	$00
	.byte	$00
	.byte	$00
	.byte	$00
	.byte	$f4
	.byte	$f5
	.byte	$f6
	.byte	$00
	.byte	$00
	.byte	$00
	.byte	$00
	.byte	$8d
	.byte	$b4
	.byte	$b5
	.byte	$a8
	.byte	$a9
	.byte	$10
	.byte	$11
	.byte	$00
	.byte	$00
	.byte	$00
	.byte	$00
	.byte	$00
	.byte	$00
	.byte	$00
	.byte	$00
	.byte	$00
	.byte	$00
	.byte	$00
	.byte	$00
	.byte	$00
	.byte	$00
	.byte	$00
	.byte	$00
	.byte	$00
	.byte	$00
	.byte	$00
	.byte	$00
	.byte	$00
	.byte	$00
	.byte	$00
	.byte	$00
	.byte	$00
	.byte	$8d
	.byte	$a4
	.byte	$a5
	.byte	$b8
	.byte	$b9
	.byte	$13
	.byte	$13
	.byte	$00
	.byte	$00
	.byte	$00
	.byte	$00
	.byte	$00
	.byte	$00
	.byte	$00
	.byte	$00
	.byte	$00
	.byte	$00
	.byte	$00
	.byte	$00
	.byte	$00
	.byte	$00
	.byte	$00
	.byte	$00
	.byte	$00
	.byte	$00
	.byte	$00
	.byte	$00
	.byte	$00
	.byte	$00
	.byte	$00
	.byte	$00
	.byte	$00
	.byte	$9a
	.byte	$b4
	.byte	$b5
	.byte	$50
	.byte	$50
	.byte	$50
	.byte	$50
	.byte	$50
	.byte	$50
	.byte	$50
	.byte	$50
	.byte	$55
	.byte	$ff
	.byte	$77
	.byte	$55
	.byte	$ff
	.byte	$ff
	.byte	$ff
	.byte	$55
	.byte	$55
	.byte	$ff
	.byte	$77
	.byte	$55
	.byte	$77
	.byte	$55
	.byte	$dd
	.byte	$77
	.byte	$55
	.byte	$ff
	.byte	$ff
	.byte	$55
	.byte	$ff
	.byte	$d7
	.byte	$77
	.byte	$55
	.byte	$55
	.byte	$ff
	.byte	$57
	.byte	$d5
	.byte	$77
	.byte	$55
	.byte	$dd
	.byte	$57
	.byte	$d5
	.byte	$f5
	.byte	$fd
	.byte	$fd
	.byte	$ff
	.byte	$ff
	.byte	$7f
	.byte	$55
	.byte	$dd
	.byte	$ff
	.byte	$ff
	.byte	$5f
	.byte	$ff
	.byte	$7f
	.byte	$df
	.byte	$55
	.byte	$05
	.byte	$05
	.byte	$05
	.byte	$05
	.byte	$05
	.byte	$05
	.byte	$05
	.byte	$05
_Level3:
	.byte	$00
	.byte	$00
	.byte	$00
	.byte	$00
	.byte	$00
	.byte	$00
	.byte	$00
	.byte	$00
	.byte	$00
	.byte	$00
	.byte	$00
	.byte	$00
	.byte	$00
	.byte	$00
	.byte	$00
	.byte	$00
	.byte	$00
	.byte	$00
	.byte	$00
	.byte	$00
	.byte	$00
	.byte	$00
	.byte	$00
	.byte	$00
	.byte	$00
	.byte	$00
	.byte	$00
	.byte	$00
	.byte	$00
	.byte	$00
	.byte	$00
	.byte	$00
	.byte	$00
	.byte	$00
	.byte	$00
	.byte	$00
	.byte	$00
	.byte	$00
	.byte	$00
	.byte	$00
	.byte	$00
	.byte	$00
	.byte	$00
	.byte	$00
	.byte	$00
	.byte	$00
	.byte	$00
	.byte	$00
	.byte	$00
	.byte	$00
	.byte	$00
	.byte	$00
	.byte	$00
	.byte	$00
	.byte	$00
	.byte	$00
	.byte	$00
	.byte	$00
	.byte	$00
	.byte	$00
	.byte	$00
	.byte	$00
	.byte	$00
	.byte	$00
	.byte	$a2
	.byte	$a3
	.byte	$a6
	.byte	$a7
	.byte	$a6
	.byte	$a7
	.byte	$a6
	.byte	$a7
	.byte	$a6
	.byte	$a7
	.byte	$a6
	.byte	$a7
	.byte	$a6
	.byte	$a7
	.byte	$a6
	.byte	$a7
	.byte	$a6
	.byte	$a7
	.byte	$a6
	.byte	$a7
	.byte	$a6
	.byte	$a7
	.byte	$a6
	.byte	$a7
	.byte	$a6
	.byte	$a7
	.byte	$a6
	.byte	$a7
	.byte	$a6
	.byte	$a7
	.byte	$a2
	.byte	$a3
	.byte	$b2
	.byte	$b3
	.byte	$b6
	.byte	$b7
	.byte	$b6
	.byte	$b7
	.byte	$b6
	.byte	$b7
	.byte	$b6
	.byte	$b7
	.byte	$b6
	.byte	$b7
	.byte	$b6
	.byte	$b7
	.byte	$b6
	.byte	$b7
	.byte	$b6
	.byte	$b7
	.byte	$b6
	.byte	$b7
	.byte	$b6
	.byte	$b7
	.byte	$b6
	.byte	$b7
	.byte	$b6
	.byte	$b7
	.byte	$b6
	.byte	$b7
	.byte	$b6
	.byte	$b7
	.byte	$b2
	.byte	$b3
	.byte	$10
	.byte	$11
	.byte	$8c
	.byte	$00
	.byte	$00
	.byte	$00
	.byte	$00
	.byte	$00
	.byte	$00
	.byte	$00
	.byte	$00
	.byte	$00
	.byte	$00
	.byte	$00
	.byte	$00
	.byte	$00
	.byte	$00
	.byte	$00
	.byte	$00
	.byte	$00
	.byte	$00
	.byte	$00
	.byte	$00
	.byte	$00
	.byte	$00
	.byte	$00
	.byte	$00
	.byte	$00
	.byte	$00
	.byte	$00
	.byte	$a4
	.byte	$a5
	.byte	$b6
	.byte	$b7
	.byte	$8c
	.byte	$00
	.byte	$00
	.byte	$00
	.byte	$00
	.byte	$00
	.byte	$00
	.byte	$00
	.byte	$00
	.byte	$00
	.byte	$00
	.byte	$00
	.byte	$00
	.byte	$00
	.byte	$00
	.byte	$00
	.byte	$00
	.byte	$00
	.byte	$00
	.byte	$00
	.byte	$00
	.byte	$00
	.byte	$00
	.byte	$00
	.byte	$00
	.byte	$00
	.byte	$00
	.byte	$00
	.byte	$b4
	.byte	$b5
	.byte	$10
	.byte	$11
	.byte	$8c
	.byte	$00
	.byte	$00
	.byte	$00
	.byte	$00
	.byte	$00
	.byte	$00
	.byte	$00
	.byte	$00
	.byte	$00
	.byte	$00
	.byte	$00
	.byte	$00
	.byte	$00
	.byte	$00
	.byte	$00
	.byte	$00
	.byte	$00
	.byte	$00
	.byte	$00
	.byte	$00
	.byte	$00
	.byte	$00
	.byte	$00
	.byte	$00
	.byte	$00
	.byte	$00
	.byte	$00
	.byte	$a4
	.byte	$a5
	.byte	$b6
	.byte	$b7
	.byte	$8c
	.byte	$00
	.byte	$00
	.byte	$00
	.byte	$00
	.byte	$00
	.byte	$00
	.byte	$00
	.byte	$00
	.byte	$00
	.byte	$00
	.byte	$00
	.byte	$00
	.byte	$00
	.byte	$00
	.byte	$00
	.byte	$00
	.byte	$00
	.byte	$00
	.byte	$00
	.byte	$00
	.byte	$00
	.byte	$00
	.byte	$00
	.byte	$00
	.byte	$00
	.byte	$00
	.byte	$00
	.byte	$b4
	.byte	$b5
	.byte	$10
	.byte	$11
	.byte	$8c
	.byte	$00
	.byte	$00
	.byte	$84
	.byte	$85
	.byte	$00
	.byte	$00
	.byte	$00
	.byte	$00
	.byte	$00
	.byte	$00
	.byte	$00
	.byte	$00
	.byte	$00
	.byte	$00
	.byte	$00
	.byte	$00
	.byte	$00
	.byte	$84
	.byte	$85
	.byte	$00
	.byte	$00
	.byte	$00
	.byte	$00
	.byte	$00
	.byte	$00
	.byte	$a4
	.byte	$a5
	.byte	$10
	.byte	$11
	.byte	$b6
	.byte	$b7
	.byte	$8c
	.byte	$00
	.byte	$00
	.byte	$94
	.byte	$95
	.byte	$00
	.byte	$00
	.byte	$00
	.byte	$00
	.byte	$00
	.byte	$00
	.byte	$00
	.byte	$00
	.byte	$00
	.byte	$00
	.byte	$00
	.byte	$00
	.byte	$00
	.byte	$94
	.byte	$95
	.byte	$00
	.byte	$00
	.byte	$00
	.byte	$00
	.byte	$00
	.byte	$00
	.byte	$b4
	.byte	$b5
	.byte	$b6
	.byte	$b7
	.byte	$10
	.byte	$11
	.byte	$8c
	.byte	$00
	.byte	$00
	.byte	$00
	.byte	$00
	.byte	$00
	.byte	$00
	.byte	$00
	.byte	$00
	.byte	$84
	.byte	$85
	.byte	$00
	.byte	$00
	.byte	$00
	.byte	$00
	.byte	$00
	.byte	$00
	.byte	$00
	.byte	$00
	.byte	$00
	.byte	$00
	.byte	$00
	.byte	$00
	.byte	$00
	.byte	$00
	.byte	$00
	.byte	$00
	.byte	$00
	.byte	$10
	.byte	$11
	.byte	$b6
	.byte	$b7
	.byte	$8c
	.byte	$00
	.byte	$00
	.byte	$d8
	.byte	$d9
	.byte	$00
	.byte	$00
	.byte	$00
	.byte	$00
	.byte	$94
	.byte	$95
	.byte	$00
	.byte	$00
	.byte	$00
	.byte	$d8
	.byte	$d9
	.byte	$d8
	.byte	$d9
	.byte	$d8
	.byte	$d9
	.byte	$d8
	.byte	$d9
	.byte	$d8
	.byte	$d9
	.byte	$d8
	.byte	$d9
	.byte	$d8
	.byte	$d9
	.byte	$b6
	.byte	$b7
	.byte	$10
	.byte	$11
	.byte	$8c
	.byte	$00
	.byte	$8a
	.byte	$a4
	.byte	$a5
	.byte	$8c
	.byte	$00
	.byte	$00
	.byte	$00
	.byte	$d8
	.byte	$d9
	.byte	$00
	.byte	$00
	.byte	$8a
	.byte	$b6
	.byte	$b7
	.byte	$b6
	.byte	$b7
	.byte	$b6
	.byte	$b7
	.byte	$b6
	.byte	$b7
	.byte	$b6
	.byte	$b7
	.byte	$b6
	.byte	$b7
	.byte	$b6
	.byte	$b7
	.byte	$10
	.byte	$11
	.byte	$b6
	.byte	$b7
	.byte	$8c
	.byte	$00
	.byte	$8d
	.byte	$a4
	.byte	$a5
	.byte	$8c
	.byte	$00
	.byte	$00
	.byte	$8d
	.byte	$b4
	.byte	$b5
	.byte	$8c
	.byte	$00
	.byte	$8d
	.byte	$b4
	.byte	$b5
	.byte	$8c
	.byte	$00
	.byte	$00
	.byte	$00
	.byte	$00
	.byte	$00
	.byte	$00
	.byte	$00
	.byte	$00
	.byte	$00
	.byte	$00
	.byte	$00
	.byte	$b6
	.byte	$b7
	.byte	$10
	.byte	$11
	.byte	$8c
	.byte	$00
	.byte	$8d
	.byte	$b4
	.byte	$b5
	.byte	$8c
	.byte	$00
	.byte	$00
	.byte	$8d
	.byte	$a4
	.byte	$a5
	.byte	$8c
	.byte	$00
	.byte	$8d
	.byte	$a4
	.byte	$a5
	.byte	$8c
	.byte	$00
	.byte	$00
	.byte	$00
	.byte	$00
	.byte	$00
	.byte	$00
	.byte	$00
	.byte	$00
	.byte	$00
	.byte	$00
	.byte	$00
	.byte	$10
	.byte	$11
	.byte	$b6
	.byte	$b7
	.byte	$8c
	.byte	$00
	.byte	$8d
	.byte	$a4
	.byte	$a5
	.byte	$8c
	.byte	$00
	.byte	$00
	.byte	$8d
	.byte	$b4
	.byte	$b5
	.byte	$8c
	.byte	$00
	.byte	$8d
	.byte	$b4
	.byte	$b5
	.byte	$8c
	.byte	$00
	.byte	$00
	.byte	$00
	.byte	$00
	.byte	$00
	.byte	$00
	.byte	$00
	.byte	$00
	.byte	$00
	.byte	$00
	.byte	$00
	.byte	$b6
	.byte	$b7
	.byte	$10
	.byte	$11
	.byte	$8c
	.byte	$00
	.byte	$8d
	.byte	$b4
	.byte	$b5
	.byte	$8c
	.byte	$00
	.byte	$00
	.byte	$8d
	.byte	$a4
	.byte	$a5
	.byte	$8c
	.byte	$00
	.byte	$8d
	.byte	$a4
	.byte	$a5
	.byte	$8c
	.byte	$00
	.byte	$00
	.byte	$00
	.byte	$00
	.byte	$00
	.byte	$00
	.byte	$00
	.byte	$00
	.byte	$00
	.byte	$00
	.byte	$00
	.byte	$10
	.byte	$11
	.byte	$b6
	.byte	$b7
	.byte	$8c
	.byte	$00
	.byte	$8d
	.byte	$a4
	.byte	$a5
	.byte	$8c
	.byte	$00
	.byte	$00
	.byte	$8d
	.byte	$b4
	.byte	$b5
	.byte	$8c
	.byte	$00
	.byte	$8d
	.byte	$b4
	.byte	$b5
	.byte	$8c
	.byte	$00
	.byte	$00
	.byte	$00
	.byte	$00
	.byte	$00
	.byte	$00
	.byte	$8a
	.byte	$a4
	.byte	$a5
	.byte	$00
	.byte	$00
	.byte	$b6
	.byte	$b7
	.byte	$10
	.byte	$11
	.byte	$8c
	.byte	$00
	.byte	$8d
	.byte	$b4
	.byte	$b5
	.byte	$8c
	.byte	$00
	.byte	$00
	.byte	$8d
	.byte	$a4
	.byte	$a5
	.byte	$8c
	.byte	$00
	.byte	$8d
	.byte	$a4
	.byte	$a5
	.byte	$8c
	.byte	$00
	.byte	$00
	.byte	$00
	.byte	$00
	.byte	$00
	.byte	$00
	.byte	$8d
	.byte	$a4
	.byte	$a5
	.byte	$00
	.byte	$00
	.byte	$10
	.byte	$11
	.byte	$b6
	.byte	$b7
	.byte	$8c
	.byte	$00
	.byte	$8d
	.byte	$a4
	.byte	$a5
	.byte	$8c
	.byte	$00
	.byte	$00
	.byte	$8d
	.byte	$b4
	.byte	$b5
	.byte	$8c
	.byte	$00
	.byte	$8d
	.byte	$b4
	.byte	$b5
	.byte	$8c
	.byte	$00
	.byte	$84
	.byte	$85
	.byte	$00
	.byte	$00
	.byte	$00
	.byte	$8d
	.byte	$b4
	.byte	$b5
	.byte	$00
	.byte	$00
	.byte	$b6
	.byte	$b7
	.byte	$10
	.byte	$11
	.byte	$8c
	.byte	$00
	.byte	$8d
	.byte	$b4
	.byte	$b5
	.byte	$8c
	.byte	$00
	.byte	$00
	.byte	$8d
	.byte	$a4
	.byte	$a5
	.byte	$8c
	.byte	$00
	.byte	$8d
	.byte	$a4
	.byte	$a5
	.byte	$8c
	.byte	$00
	.byte	$94
	.byte	$95
	.byte	$00
	.byte	$00
	.byte	$00
	.byte	$9a
	.byte	$a4
	.byte	$a5
	.byte	$00
	.byte	$00
	.byte	$10
	.byte	$11
	.byte	$b6
	.byte	$b7
	.byte	$8c
	.byte	$00
	.byte	$9a
	.byte	$b4
	.byte	$b5
	.byte	$9b
	.byte	$00
	.byte	$00
	.byte	$8d
	.byte	$b4
	.byte	$b5
	.byte	$8c
	.byte	$00
	.byte	$8d
	.byte	$b4
	.byte	$b5
	.byte	$8c
	.byte	$00
	.byte	$00
	.byte	$00
	.byte	$00
	.byte	$00
	.byte	$00
	.byte	$00
	.byte	$b4
	.byte	$b5
	.byte	$00
	.byte	$00
	.byte	$b6
	.byte	$b7
	.byte	$10
	.byte	$11
	.byte	$8c
	.byte	$00
	.byte	$00
	.byte	$aa
	.byte	$ab
	.byte	$00
	.byte	$00
	.byte	$00
	.byte	$9a
	.byte	$b4
	.byte	$b5
	.byte	$9b
	.byte	$00
	.byte	$9a
	.byte	$b4
	.byte	$b5
	.byte	$9b
	.byte	$00
	.byte	$00
	.byte	$00
	.byte	$00
	.byte	$00
	.byte	$00
	.byte	$00
	.byte	$a4
	.byte	$a5
	.byte	$00
	.byte	$00
	.byte	$04
	.byte	$05
	.byte	$b6
	.byte	$b7
	.byte	$8c
	.byte	$00
	.byte	$00
	.byte	$00
	.byte	$00
	.byte	$00
	.byte	$00
	.byte	$00
	.byte	$00
	.byte	$aa
	.byte	$ab
	.byte	$00
	.byte	$00
	.byte	$00
	.byte	$00
	.byte	$00
	.byte	$00
	.byte	$00
	.byte	$00
	.byte	$00
	.byte	$00
	.byte	$00
	.byte	$00
	.byte	$00
	.byte	$b4
	.byte	$b5
	.byte	$00
	.byte	$00
	.byte	$14
	.byte	$15
	.byte	$10
	.byte	$11
	.byte	$8c
	.byte	$00
	.byte	$00
	.byte	$00
	.byte	$00
	.byte	$00
	.byte	$00
	.byte	$00
	.byte	$00
	.byte	$00
	.byte	$00
	.byte	$00
	.byte	$00
	.byte	$00
	.byte	$00
	.byte	$00
	.byte	$00
	.byte	$00
	.byte	$00
	.byte	$00
	.byte	$00
	.byte	$00
	.byte	$e4
	.byte	$e5
	.byte	$10
	.byte	$11
	.byte	$10
	.byte	$11
	.byte	$10
	.byte	$11
	.byte	$b6
	.byte	$b7
	.byte	$8c
	.byte	$00
	.byte	$00
	.byte	$00
	.byte	$00
	.byte	$00
	.byte	$00
	.byte	$00
	.byte	$00
	.byte	$00
	.byte	$00
	.byte	$00
	.byte	$00
	.byte	$00
	.byte	$00
	.byte	$00
	.byte	$00
	.byte	$00
	.byte	$00
	.byte	$00
	.byte	$00
	.byte	$00
	.byte	$f4
	.byte	$f5
	.byte	$b6
	.byte	$b7
	.byte	$b6
	.byte	$b7
	.byte	$b6
	.byte	$b7
	.byte	$10
	.byte	$11
	.byte	$8c
	.byte	$00
	.byte	$00
	.byte	$00
	.byte	$00
	.byte	$00
	.byte	$00
	.byte	$00
	.byte	$00
	.byte	$00
	.byte	$00
	.byte	$00
	.byte	$00
	.byte	$00
	.byte	$00
	.byte	$00
	.byte	$00
	.byte	$00
	.byte	$00
	.byte	$00
	.byte	$00
	.byte	$00
	.byte	$00
	.byte	$00
	.byte	$aa
	.byte	$ab
	.byte	$aa
	.byte	$ab
	.byte	$10
	.byte	$11
	.byte	$b6
	.byte	$b7
	.byte	$8c
	.byte	$00
	.byte	$e4
	.byte	$e5
	.byte	$e6
	.byte	$00
	.byte	$00
	.byte	$00
	.byte	$00
	.byte	$00
	.byte	$00
	.byte	$00
	.byte	$00
	.byte	$00
	.byte	$00
	.byte	$00
	.byte	$00
	.byte	$00
	.byte	$00
	.byte	$00
	.byte	$00
	.byte	$00
	.byte	$00
	.byte	$00
	.byte	$00
	.byte	$00
	.byte	$00
	.byte	$8a
	.byte	$b6
	.byte	$b7
	.byte	$a2
	.byte	$a3
	.byte	$8c
	.byte	$00
	.byte	$f4
	.byte	$f5
	.byte	$f6
	.byte	$00
	.byte	$00
	.byte	$00
	.byte	$00
	.byte	$00
	.byte	$e4
	.byte	$e5
	.byte	$e6
	.byte	$00
	.byte	$00
	.byte	$00
	.byte	$00
	.byte	$00
	.byte	$e4
	.byte	$e5
	.byte	$e6
	.byte	$00
	.byte	$00
	.byte	$00
	.byte	$00
	.byte	$00
	.byte	$00
	.byte	$8d
	.byte	$a2
	.byte	$a3
	.byte	$b2
	.byte	$b3
	.byte	$9b
	.byte	$00
	.byte	$00
	.byte	$00
	.byte	$00
	.byte	$00
	.byte	$00
	.byte	$00
	.byte	$00
	.byte	$00
	.byte	$f4
	.byte	$f5
	.byte	$f6
	.byte	$00
	.byte	$00
	.byte	$00
	.byte	$00
	.byte	$00
	.byte	$f4
	.byte	$f5
	.byte	$f6
	.byte	$00
	.byte	$00
	.byte	$00
	.byte	$00
	.byte	$00
	.byte	$00
	.byte	$9a
	.byte	$b2
	.byte	$b3
	.byte	$f0
	.byte	$f0
	.byte	$f0
	.byte	$f0
	.byte	$f0
	.byte	$f0
	.byte	$f0
	.byte	$f0
	.byte	$ff
	.byte	$ff
	.byte	$ff
	.byte	$ff
	.byte	$ff
	.byte	$ff
	.byte	$ff
	.byte	$dd
	.byte	$ff
	.byte	$ff
	.byte	$ff
	.byte	$f7
	.byte	$f5
	.byte	$f7
	.byte	$f5
	.byte	$ff
	.byte	$ff
	.byte	$ff
	.byte	$ff
	.byte	$ff
	.byte	$ff
	.byte	$ff
	.byte	$ff
	.byte	$ff
	.byte	$ff
	.byte	$ff
	.byte	$ff
	.byte	$ff
	.byte	$ff
	.byte	$ff
	.byte	$ff
	.byte	$ff
	.byte	$ff
	.byte	$ff
	.byte	$ff
	.byte	$ff
	.byte	$ff
	.byte	$ff
	.byte	$ff
	.byte	$bf
	.byte	$ff
	.byte	$ff
	.byte	$ff
	.byte	$ff
	.byte	$ff
	.byte	$f5
	.byte	$ff
	.byte	$ff
	.byte	$0f
	.byte	$0f
	.byte	$0f
	.byte	$0f
	.byte	$0f
	.byte	$0f
	.byte	$0f
	.byte	$0f
_TitleScreen:
	.byte	$c0
	.byte	$c1
	.byte	$e0
	.byte	$e1
	.byte	$c4
	.byte	$c5
	.byte	$c6
	.byte	$e1
	.byte	$e7
	.byte	$e8
	.byte	$fb
	.byte	$fd
	.byte	$f0
	.byte	$00
	.byte	$9c
	.byte	$00
	.byte	$00
	.byte	$9c
	.byte	$00
	.byte	$00
	.byte	$00
	.byte	$00
	.byte	$00
	.byte	$00
	.byte	$00
	.byte	$dd
	.byte	$ca
	.byte	$f3
	.byte	$eb
	.byte	$ec
	.byte	$ed
	.byte	$e0
	.byte	$d0
	.byte	$d1
	.byte	$f0
	.byte	$f1
	.byte	$d4
	.byte	$d5
	.byte	$d6
	.byte	$f1
	.byte	$f7
	.byte	$da
	.byte	$dc
	.byte	$f0
	.byte	$00
	.byte	$9c
	.byte	$ac
	.byte	$04
	.byte	$05
	.byte	$ac
	.byte	$00
	.byte	$00
	.byte	$00
	.byte	$9c
	.byte	$00
	.byte	$00
	.byte	$00
	.byte	$00
	.byte	$dd
	.byte	$e3
	.byte	$fb
	.byte	$fc
	.byte	$fd
	.byte	$f0
	.byte	$c2
	.byte	$c3
	.byte	$e7
	.byte	$e8
	.byte	$e0
	.byte	$e1
	.byte	$e0
	.byte	$c0
	.byte	$c1
	.byte	$f7
	.byte	$f0
	.byte	$d8
	.byte	$d9
	.byte	$bc
	.byte	$bc
	.byte	$14
	.byte	$15
	.byte	$bc
	.byte	$d9
	.byte	$c8
	.byte	$c9
	.byte	$bc
	.byte	$bc
	.byte	$00
	.byte	$00
	.byte	$00
	.byte	$00
	.byte	$fb
	.byte	$fc
	.byte	$fd
	.byte	$e7
	.byte	$e8
	.byte	$d2
	.byte	$d3
	.byte	$f7
	.byte	$f8
	.byte	$f0
	.byte	$f1
	.byte	$f0
	.byte	$d0
	.byte	$a4
	.byte	$10
	.byte	$10
	.byte	$11
	.byte	$10
	.byte	$11
	.byte	$10
	.byte	$11
	.byte	$10
	.byte	$11
	.byte	$10
	.byte	$11
	.byte	$10
	.byte	$11
	.byte	$11
	.byte	$a9
	.byte	$00
	.byte	$00
	.byte	$00
	.byte	$c4
	.byte	$c5
	.byte	$c6
	.byte	$f7
	.byte	$f8
	.byte	$e2
	.byte	$e3
	.byte	$c0
	.byte	$c1
	.byte	$e2
	.byte	$e3
	.byte	$e7
	.byte	$e8
	.byte	$b4
	.byte	$b5
	.byte	$13
	.byte	$12
	.byte	$13
	.byte	$13
	.byte	$13
	.byte	$12
	.byte	$13
	.byte	$13
	.byte	$13
	.byte	$12
	.byte	$13
	.byte	$12
	.byte	$b8
	.byte	$b9
	.byte	$00
	.byte	$00
	.byte	$00
	.byte	$00
	.byte	$00
	.byte	$00
	.byte	$dd
	.byte	$f3
	.byte	$d2
	.byte	$d3
	.byte	$d0
	.byte	$d1
	.byte	$f2
	.byte	$f3
	.byte	$f7
	.byte	$f8
	.byte	$b4
	.byte	$b5
	.byte	$12
	.byte	$12
	.byte	$12
	.byte	$12
	.byte	$12
	.byte	$12
	.byte	$12
	.byte	$12
	.byte	$12
	.byte	$12
	.byte	$12
	.byte	$12
	.byte	$b8
	.byte	$b9
	.byte	$00
	.byte	$00
	.byte	$00
	.byte	$00
	.byte	$00
	.byte	$00
	.byte	$00
	.byte	$dd
	.byte	$e8
	.byte	$e9
	.byte	$ea
	.byte	$e0
	.byte	$e1
	.byte	$c4
	.byte	$c5
	.byte	$c6
	.byte	$ee
	.byte	$ef
	.byte	$13
	.byte	$13
	.byte	$13
	.byte	$12
	.byte	$13
	.byte	$13
	.byte	$13
	.byte	$12
	.byte	$13
	.byte	$13
	.byte	$13
	.byte	$13
	.byte	$8e
	.byte	$8f
	.byte	$00
	.byte	$00
	.byte	$00
	.byte	$00
	.byte	$00
	.byte	$00
	.byte	$00
	.byte	$00
	.byte	$f8
	.byte	$f9
	.byte	$fa
	.byte	$f0
	.byte	$f1
	.byte	$d4
	.byte	$d5
	.byte	$d6
	.byte	$fe
	.byte	$b6
	.byte	$b6
	.byte	$b7
	.byte	$b6
	.byte	$b7
	.byte	$b6
	.byte	$b7
	.byte	$b6
	.byte	$b7
	.byte	$b6
	.byte	$b7
	.byte	$b6
	.byte	$b7
	.byte	$b7
	.byte	$9f
	.byte	$00
	.byte	$00
	.byte	$00
	.byte	$00
	.byte	$00
	.byte	$00
	.byte	$00
	.byte	$00
	.byte	$eb
	.byte	$ec
	.byte	$dd
	.byte	$d7
	.byte	$c7
	.byte	$eb
	.byte	$ec
	.byte	$ed
	.byte	$00
	.byte	$00
	.byte	$00
	.byte	$00
	.byte	$00
	.byte	$00
	.byte	$00
	.byte	$00
	.byte	$00
	.byte	$00
	.byte	$00
	.byte	$00
	.byte	$00
	.byte	$00
	.byte	$00
	.byte	$00
	.byte	$00
	.byte	$00
	.byte	$00
	.byte	$00
	.byte	$00
	.byte	$00
	.byte	$00
	.byte	$00
	.byte	$00
	.byte	$00
	.byte	$00
	.byte	$dd
	.byte	$f0
	.byte	$00
	.byte	$00
	.byte	$00
	.byte	$00
	.byte	$00
	.byte	$00
	.byte	$00
	.byte	$00
	.byte	$00
	.byte	$00
	.byte	$00
	.byte	$00
	.byte	$00
	.byte	$00
	.byte	$00
	.byte	$00
	.byte	$00
	.byte	$00
	.byte	$00
	.byte	$00
	.byte	$00
	.byte	$00
	.byte	$00
	.byte	$00
	.byte	$00
	.byte	$00
	.byte	$00
	.byte	$00
	.byte	$00
	.byte	$00
	.byte	$00
	.byte	$00
	.byte	$00
	.byte	$00
	.byte	$00
	.byte	$00
	.byte	$00
	.byte	$00
	.byte	$00
	.byte	$00
	.byte	$00
	.byte	$00
	.byte	$00
	.byte	$00
	.byte	$00
	.byte	$00
	.byte	$e4
	.byte	$e5
	.byte	$e6
	.byte	$00
	.byte	$00
	.byte	$00
	.byte	$00
	.byte	$00
	.byte	$00
	.byte	$00
	.byte	$00
	.byte	$00
	.byte	$00
	.byte	$00
	.byte	$00
	.byte	$00
	.byte	$00
	.byte	$00
	.byte	$00
	.byte	$00
	.byte	$00
	.byte	$00
	.byte	$00
	.byte	$00
	.byte	$00
	.byte	$00
	.byte	$00
	.byte	$00
	.byte	$00
	.byte	$00
	.byte	$00
	.byte	$00
	.byte	$f4
	.byte	$f5
	.byte	$f6
	.byte	$00
	.byte	$00
	.byte	$00
	.byte	$00
	.byte	$00
	.byte	$00
	.byte	$00
	.byte	$00
	.byte	$00
	.byte	$00
	.byte	$00
	.byte	$00
	.byte	$00
	.byte	$00
	.byte	$00
	.byte	$00
	.byte	$00
	.byte	$00
	.byte	$00
	.byte	$00
	.byte	$00
	.byte	$00
	.byte	$00
	.byte	$00
	.byte	$00
	.byte	$00
	.byte	$00
	.byte	$00
	.byte	$00
	.byte	$00
	.byte	$00
	.byte	$00
	.byte	$00
	.byte	$00
	.byte	$00
	.byte	$00
	.byte	$00
	.byte	$00
	.byte	$00
	.byte	$00
	.byte	$c8
	.byte	$9c
	.byte	$00
	.byte	$00
	.byte	$00
	.byte	$00
	.byte	$00
	.byte	$00
	.byte	$00
	.byte	$00
	.byte	$00
	.byte	$00
	.byte	$00
	.byte	$00
	.byte	$00
	.byte	$00
	.byte	$00
	.byte	$00
	.byte	$00
	.byte	$00
	.byte	$00
	.byte	$00
	.byte	$00
	.byte	$00
	.byte	$00
	.byte	$00
	.byte	$00
	.byte	$00
	.byte	$00
	.byte	$00
	.byte	$00
	.byte	$00
	.byte	$80
	.byte	$ac
	.byte	$e4
	.byte	$e5
	.byte	$e6
	.byte	$00
	.byte	$00
	.byte	$00
	.byte	$00
	.byte	$00
	.byte	$00
	.byte	$00
	.byte	$00
	.byte	$00
	.byte	$00
	.byte	$00
	.byte	$00
	.byte	$00
	.byte	$00
	.byte	$00
	.byte	$00
	.byte	$00
	.byte	$00
	.byte	$00
	.byte	$00
	.byte	$00
	.byte	$00
	.byte	$00
	.byte	$00
	.byte	$00
	.byte	$00
	.byte	$00
	.byte	$90
	.byte	$bc
	.byte	$f4
	.byte	$f5
	.byte	$f6
	.byte	$00
	.byte	$00
	.byte	$00
	.byte	$00
	.byte	$00
	.byte	$00
	.byte	$00
	.byte	$00
	.byte	$00
	.byte	$e4
	.byte	$e5
	.byte	$e5
	.byte	$e5
	.byte	$e6
	.byte	$00
	.byte	$00
	.byte	$00
	.byte	$00
	.byte	$00
	.byte	$00
	.byte	$00
	.byte	$00
	.byte	$00
	.byte	$be
	.byte	$00
	.byte	$00
	.byte	$c8
	.byte	$a4
	.byte	$a5
	.byte	$00
	.byte	$00
	.byte	$00
	.byte	$00
	.byte	$00
	.byte	$00
	.byte	$00
	.byte	$00
	.byte	$00
	.byte	$00
	.byte	$00
	.byte	$00
	.byte	$f4
	.byte	$f5
	.byte	$f5
	.byte	$f5
	.byte	$f6
	.byte	$00
	.byte	$00
	.byte	$00
	.byte	$00
	.byte	$00
	.byte	$00
	.byte	$00
	.byte	$00
	.byte	$00
	.byte	$cf
	.byte	$00
	.byte	$00
	.byte	$90
	.byte	$b4
	.byte	$b5
	.byte	$00
	.byte	$00
	.byte	$00
	.byte	$00
	.byte	$00
	.byte	$00
	.byte	$00
	.byte	$00
	.byte	$00
	.byte	$00
	.byte	$00
	.byte	$00
	.byte	$00
	.byte	$00
	.byte	$00
	.byte	$00
	.byte	$00
	.byte	$00
	.byte	$00
	.byte	$00
	.byte	$00
	.byte	$00
	.byte	$00
	.byte	$00
	.byte	$00
	.byte	$00
	.byte	$df
	.byte	$00
	.byte	$a4
	.byte	$11
	.byte	$12
	.byte	$12
	.byte	$fb
	.byte	$00
	.byte	$00
	.byte	$00
	.byte	$e4
	.byte	$e6
	.byte	$00
	.byte	$00
	.byte	$00
	.byte	$00
	.byte	$00
	.byte	$00
	.byte	$00
	.byte	$00
	.byte	$00
	.byte	$00
	.byte	$00
	.byte	$00
	.byte	$00
	.byte	$00
	.byte	$00
	.byte	$00
	.byte	$00
	.byte	$00
	.byte	$00
	.byte	$00
	.byte	$a4
	.byte	$11
	.byte	$13
	.byte	$13
	.byte	$13
	.byte	$12
	.byte	$f7
	.byte	$fb
	.byte	$00
	.byte	$00
	.byte	$f4
	.byte	$f6
	.byte	$00
	.byte	$00
	.byte	$00
	.byte	$00
	.byte	$00
	.byte	$00
	.byte	$00
	.byte	$00
	.byte	$00
	.byte	$00
	.byte	$00
	.byte	$00
	.byte	$00
	.byte	$00
	.byte	$00
	.byte	$00
	.byte	$00
	.byte	$00
	.byte	$00
	.byte	$00
	.byte	$b4
	.byte	$b5
	.byte	$12
	.byte	$12
	.byte	$12
	.byte	$12
	.byte	$e7
	.byte	$e8
	.byte	$fb
	.byte	$00
	.byte	$00
	.byte	$00
	.byte	$00
	.byte	$00
	.byte	$00
	.byte	$00
	.byte	$00
	.byte	$00
	.byte	$00
	.byte	$00
	.byte	$00
	.byte	$00
	.byte	$00
	.byte	$00
	.byte	$00
	.byte	$00
	.byte	$00
	.byte	$00
	.byte	$00
	.byte	$00
	.byte	$00
	.byte	$00
	.byte	$ee
	.byte	$ef
	.byte	$13
	.byte	$13
	.byte	$13
	.byte	$12
	.byte	$f7
	.byte	$f8
	.byte	$cc
	.byte	$c7
	.byte	$00
	.byte	$00
	.byte	$00
	.byte	$00
	.byte	$00
	.byte	$00
	.byte	$00
	.byte	$00
	.byte	$00
	.byte	$00
	.byte	$00
	.byte	$00
	.byte	$00
	.byte	$00
	.byte	$00
	.byte	$00
	.byte	$00
	.byte	$00
	.byte	$00
	.byte	$00
	.byte	$00
	.byte	$00
	.byte	$fe
	.byte	$12
	.byte	$12
	.byte	$12
	.byte	$12
	.byte	$12
	.byte	$c0
	.byte	$c1
	.byte	$dc
	.byte	$d7
	.byte	$fb
	.byte	$d4
	.byte	$d5
	.byte	$d6
	.byte	$fb
	.byte	$00
	.byte	$00
	.byte	$00
	.byte	$00
	.byte	$00
	.byte	$00
	.byte	$00
	.byte	$00
	.byte	$00
	.byte	$00
	.byte	$00
	.byte	$00
	.byte	$00
	.byte	$00
	.byte	$00
	.byte	$ee
	.byte	$11
	.byte	$8e
	.byte	$12
	.byte	$13
	.byte	$13
	.byte	$13
	.byte	$12
	.byte	$d0
	.byte	$d1
	.byte	$e9
	.byte	$ea
	.byte	$eb
	.byte	$c4
	.byte	$c5
	.byte	$c6
	.byte	$dc
	.byte	$fb
	.byte	$00
	.byte	$00
	.byte	$00
	.byte	$00
	.byte	$00
	.byte	$00
	.byte	$00
	.byte	$00
	.byte	$00
	.byte	$00
	.byte	$00
	.byte	$00
	.byte	$00
	.byte	$00
	.byte	$fe
	.byte	$12
	.byte	$12
	.byte	$12
	.byte	$12
	.byte	$12
	.byte	$12
	.byte	$12
	.byte	$a8
	.byte	$a9
	.byte	$e2
	.byte	$e3
	.byte	$fb
	.byte	$d4
	.byte	$d5
	.byte	$d6
	.byte	$dc
	.byte	$eb
	.byte	$00
	.byte	$00
	.byte	$00
	.byte	$00
	.byte	$00
	.byte	$00
	.byte	$00
	.byte	$e4
	.byte	$e5
	.byte	$e5
	.byte	$e6
	.byte	$00
	.byte	$00
	.byte	$8a
	.byte	$ee
	.byte	$12
	.byte	$13
	.byte	$12
	.byte	$13
	.byte	$13
	.byte	$13
	.byte	$12
	.byte	$13
	.byte	$b9
	.byte	$f2
	.byte	$f3
	.byte	$e0
	.byte	$e1
	.byte	$c2
	.byte	$c3
	.byte	$eb
	.byte	$00
	.byte	$00
	.byte	$00
	.byte	$00
	.byte	$00
	.byte	$00
	.byte	$00
	.byte	$00
	.byte	$f4
	.byte	$f5
	.byte	$f5
	.byte	$f6
	.byte	$00
	.byte	$00
	.byte	$8d
	.byte	$fe
	.byte	$12
	.byte	$12
	.byte	$12
	.byte	$12
	.byte	$12
	.byte	$12
	.byte	$12
	.byte	$12
	.byte	$13
	.byte	$a4
	.byte	$a9
	.byte	$f0
	.byte	$f1
	.byte	$d2
	.byte	$d3
	.byte	$10
	.byte	$11
	.byte	$00
	.byte	$af
	.byte	$00
	.byte	$00
	.byte	$00
	.byte	$00
	.byte	$00
	.byte	$00
	.byte	$00
	.byte	$00
	.byte	$00
	.byte	$00
	.byte	$00
	.byte	$8d
	.byte	$ee
	.byte	$12
	.byte	$13
	.byte	$12
	.byte	$13
	.byte	$13
	.byte	$13
	.byte	$12
	.byte	$13
	.byte	$12
	.byte	$13
	.byte	$b9
	.byte	$10
	.byte	$11
	.byte	$10
	.byte	$11
	.byte	$b4
	.byte	$b9
	.byte	$00
	.byte	$bf
	.byte	$00
	.byte	$00
	.byte	$00
	.byte	$00
	.byte	$00
	.byte	$00
	.byte	$00
	.byte	$00
	.byte	$00
	.byte	$00
	.byte	$00
	.byte	$8d
	.byte	$fe
	.byte	$12
	.byte	$12
	.byte	$12
	.byte	$12
	.byte	$12
	.byte	$12
	.byte	$12
	.byte	$12
	.byte	$13
	.byte	$12
	.byte	$13
	.byte	$12
	.byte	$13
	.byte	$12
	.byte	$13
	.byte	$12
	.byte	$13
	.byte	$a4
	.byte	$a9
	.byte	$00
	.byte	$00
	.byte	$00
	.byte	$00
	.byte	$00
	.byte	$00
	.byte	$00
	.byte	$00
	.byte	$00
	.byte	$00
	.byte	$00
	.byte	$8d
	.byte	$ee
	.byte	$12
	.byte	$13
	.byte	$12
	.byte	$13
	.byte	$13
	.byte	$13
	.byte	$12
	.byte	$13
	.byte	$12
	.byte	$13
	.byte	$12
	.byte	$13
	.byte	$12
	.byte	$13
	.byte	$12
	.byte	$12
	.byte	$13
	.byte	$b8
	.byte	$b9
	.byte	$00
	.byte	$00
	.byte	$00
	.byte	$00
	.byte	$00
	.byte	$00
	.byte	$00
	.byte	$00
	.byte	$00
	.byte	$00
	.byte	$00
	.byte	$9a
	.byte	$fe
	.byte	$12
	.byte	$12
	.byte	$12
	.byte	$12
	.byte	$12
	.byte	$12
	.byte	$12
	.byte	$55
	.byte	$55
	.byte	$55
	.byte	$55
	.byte	$51
	.byte	$55
	.byte	$45
	.byte	$55
	.byte	$55
	.byte	$55
	.byte	$55
	.byte	$55
	.byte	$55
	.byte	$55
	.byte	$11
	.byte	$14
	.byte	$55
	.byte	$15
	.byte	$05
	.byte	$05
	.byte	$45
	.byte	$55
	.byte	$55
	.byte	$00
	.byte	$51
	.byte	$00
	.byte	$00
	.byte	$50
	.byte	$10
	.byte	$00
	.byte	$40
	.byte	$54
	.byte	$10
	.byte	$50
	.byte	$00
	.byte	$05
	.byte	$01
	.byte	$00
	.byte	$55
	.byte	$55
	.byte	$55
	.byte	$50
	.byte	$10
	.byte	$00
	.byte	$40
	.byte	$00
	.byte	$55
	.byte	$55
	.byte	$55
	.byte	$55
	.byte	$55
	.byte	$00
	.byte	$05
	.byte	$45
	.byte	$55
	.byte	$55
	.byte	$05
	.byte	$05
	.byte	$05
	.byte	$00
	.byte	$00
	.byte	$04
	.byte	$05
	.byte	$05
_DeathScreen:
	.byte	$c0
	.byte	$c1
	.byte	$c2
	.byte	$c3
	.byte	$c4
	.byte	$c5
	.byte	$c6
	.byte	$c7
	.byte	$c0
	.byte	$c1
	.byte	$c2
	.byte	$c3
	.byte	$c4
	.byte	$c5
	.byte	$c6
	.byte	$c7
	.byte	$c0
	.byte	$c1
	.byte	$c2
	.byte	$c3
	.byte	$c4
	.byte	$c5
	.byte	$c6
	.byte	$c7
	.byte	$c0
	.byte	$c1
	.byte	$c2
	.byte	$c3
	.byte	$c4
	.byte	$c5
	.byte	$c6
	.byte	$c7
	.byte	$d0
	.byte	$d1
	.byte	$d2
	.byte	$d3
	.byte	$d4
	.byte	$d5
	.byte	$d6
	.byte	$d7
	.byte	$d0
	.byte	$d1
	.byte	$d2
	.byte	$d3
	.byte	$d4
	.byte	$d5
	.byte	$d6
	.byte	$d7
	.byte	$d0
	.byte	$d1
	.byte	$d2
	.byte	$d3
	.byte	$d4
	.byte	$d5
	.byte	$d6
	.byte	$d7
	.byte	$d0
	.byte	$d1
	.byte	$d2
	.byte	$d3
	.byte	$d4
	.byte	$d5
	.byte	$d6
	.byte	$d7
	.byte	$e7
	.byte	$e8
	.byte	$e9
	.byte	$ea
	.byte	$eb
	.byte	$ec
	.byte	$ed
	.byte	$c7
	.byte	$e7
	.byte	$e8
	.byte	$e9
	.byte	$ea
	.byte	$53
	.byte	$45
	.byte	$42
	.byte	$4c
	.byte	$45
	.byte	$53
	.byte	$54
	.byte	$45
	.byte	$eb
	.byte	$ec
	.byte	$ed
	.byte	$c7
	.byte	$e7
	.byte	$e8
	.byte	$e9
	.byte	$ea
	.byte	$eb
	.byte	$ec
	.byte	$ed
	.byte	$c7
	.byte	$f7
	.byte	$f8
	.byte	$f9
	.byte	$fa
	.byte	$fb
	.byte	$fc
	.byte	$fd
	.byte	$d7
	.byte	$f7
	.byte	$f8
	.byte	$f9
	.byte	$fa
	.byte	$fb
	.byte	$fc
	.byte	$fd
	.byte	$d7
	.byte	$f7
	.byte	$f8
	.byte	$f9
	.byte	$fa
	.byte	$fb
	.byte	$fc
	.byte	$fd
	.byte	$d7
	.byte	$f7
	.byte	$f8
	.byte	$f9
	.byte	$fa
	.byte	$fb
	.byte	$fc
	.byte	$fd
	.byte	$d7
	.byte	$c0
	.byte	$c1
	.byte	$c2
	.byte	$c3
	.byte	$c4
	.byte	$c5
	.byte	$c6
	.byte	$c7
	.byte	$c0
	.byte	$c1
	.byte	$c2
	.byte	$c3
	.byte	$c4
	.byte	$c5
	.byte	$c6
	.byte	$c7
	.byte	$c0
	.byte	$c1
	.byte	$c2
	.byte	$c3
	.byte	$c4
	.byte	$c5
	.byte	$c6
	.byte	$c7
	.byte	$c0
	.byte	$c1
	.byte	$c2
	.byte	$c3
	.byte	$c4
	.byte	$c5
	.byte	$c6
	.byte	$c7
	.byte	$d0
	.byte	$d1
	.byte	$d2
	.byte	$d3
	.byte	$d4
	.byte	$d5
	.byte	$d6
	.byte	$d7
	.byte	$d0
	.byte	$d1
	.byte	$d2
	.byte	$d3
	.byte	$d4
	.byte	$d5
	.byte	$d6
	.byte	$d7
	.byte	$d0
	.byte	$d1
	.byte	$d2
	.byte	$d3
	.byte	$d4
	.byte	$d5
	.byte	$d6
	.byte	$d7
	.byte	$d0
	.byte	$d1
	.byte	$d2
	.byte	$d3
	.byte	$d4
	.byte	$d5
	.byte	$d6
	.byte	$d7
	.byte	$e7
	.byte	$e8
	.byte	$e9
	.byte	$ea
	.byte	$eb
	.byte	$ec
	.byte	$ed
	.byte	$c7
	.byte	$e7
	.byte	$e8
	.byte	$e9
	.byte	$ea
	.byte	$eb
	.byte	$ec
	.byte	$ed
	.byte	$c7
	.byte	$e7
	.byte	$e8
	.byte	$e9
	.byte	$ea
	.byte	$eb
	.byte	$ec
	.byte	$ed
	.byte	$c7
	.byte	$e7
	.byte	$e8
	.byte	$e9
	.byte	$ea
	.byte	$eb
	.byte	$ec
	.byte	$ed
	.byte	$c7
	.byte	$f7
	.byte	$f8
	.byte	$f9
	.byte	$fa
	.byte	$fb
	.byte	$fc
	.byte	$fd
	.byte	$d7
	.byte	$f7
	.byte	$f8
	.byte	$f9
	.byte	$fa
	.byte	$fb
	.byte	$fc
	.byte	$fd
	.byte	$d7
	.byte	$f7
	.byte	$f8
	.byte	$f9
	.byte	$fa
	.byte	$fb
	.byte	$fc
	.byte	$fd
	.byte	$d7
	.byte	$f7
	.byte	$f8
	.byte	$f9
	.byte	$fa
	.byte	$fb
	.byte	$fc
	.byte	$fd
	.byte	$d7
	.byte	$c0
	.byte	$c1
	.byte	$c2
	.byte	$c3
	.byte	$c4
	.byte	$c5
	.byte	$c6
	.byte	$c7
	.byte	$c0
	.byte	$c1
	.byte	$c2
	.byte	$c3
	.byte	$c4
	.byte	$c5
	.byte	$c6
	.byte	$c7
	.byte	$c0
	.byte	$c1
	.byte	$c2
	.byte	$c3
	.byte	$c4
	.byte	$c5
	.byte	$c6
	.byte	$c7
	.byte	$c0
	.byte	$c1
	.byte	$c2
	.byte	$c3
	.byte	$c4
	.byte	$c5
	.byte	$c6
	.byte	$c7
	.byte	$d0
	.byte	$d1
	.byte	$d2
	.byte	$d3
	.byte	$d4
	.byte	$d5
	.byte	$d6
	.byte	$d7
	.byte	$d0
	.byte	$d1
	.byte	$d2
	.byte	$d3
	.byte	$d4
	.byte	$d5
	.byte	$d6
	.byte	$d7
	.byte	$d0
	.byte	$d1
	.byte	$d2
	.byte	$d3
	.byte	$d4
	.byte	$d5
	.byte	$d6
	.byte	$d7
	.byte	$d0
	.byte	$d1
	.byte	$d2
	.byte	$d3
	.byte	$d4
	.byte	$d5
	.byte	$d6
	.byte	$d7
	.byte	$e7
	.byte	$e8
	.byte	$e9
	.byte	$ea
	.byte	$eb
	.byte	$ec
	.byte	$ed
	.byte	$c7
	.byte	$e7
	.byte	$e8
	.byte	$e9
	.byte	$ea
	.byte	$eb
	.byte	$ec
	.byte	$ed
	.byte	$c7
	.byte	$e7
	.byte	$e8
	.byte	$e9
	.byte	$ea
	.byte	$eb
	.byte	$ec
	.byte	$ed
	.byte	$c7
	.byte	$e7
	.byte	$e8
	.byte	$e9
	.byte	$ea
	.byte	$eb
	.byte	$ec
	.byte	$ed
	.byte	$c7
	.byte	$f7
	.byte	$f8
	.byte	$f9
	.byte	$fa
	.byte	$fb
	.byte	$fc
	.byte	$fd
	.byte	$d7
	.byte	$f7
	.byte	$f8
	.byte	$f9
	.byte	$fa
	.byte	$fb
	.byte	$fc
	.byte	$fd
	.byte	$d7
	.byte	$f7
	.byte	$f8
	.byte	$f9
	.byte	$fa
	.byte	$fb
	.byte	$fc
	.byte	$fd
	.byte	$d7
	.byte	$f7
	.byte	$f8
	.byte	$f9
	.byte	$fa
	.byte	$fb
	.byte	$fc
	.byte	$fd
	.byte	$d7
	.byte	$c0
	.byte	$c1
	.byte	$c2
	.byte	$c3
	.byte	$c4
	.byte	$c5
	.byte	$c6
	.byte	$c7
	.byte	$c0
	.byte	$c1
	.byte	$c2
	.byte	$c3
	.byte	$c4
	.byte	$c5
	.byte	$c6
	.byte	$c7
	.byte	$c0
	.byte	$c1
	.byte	$c2
	.byte	$c3
	.byte	$c4
	.byte	$c5
	.byte	$c6
	.byte	$c7
	.byte	$c0
	.byte	$c1
	.byte	$c2
	.byte	$c3
	.byte	$c4
	.byte	$c5
	.byte	$c6
	.byte	$c7
	.byte	$d0
	.byte	$d1
	.byte	$d2
	.byte	$d3
	.byte	$d4
	.byte	$d5
	.byte	$d6
	.byte	$d7
	.byte	$d0
	.byte	$d1
	.byte	$d2
	.byte	$d3
	.byte	$d4
	.byte	$d5
	.byte	$d6
	.byte	$d7
	.byte	$d0
	.byte	$d1
	.byte	$d2
	.byte	$d3
	.byte	$d4
	.byte	$d5
	.byte	$d6
	.byte	$d7
	.byte	$d0
	.byte	$d1
	.byte	$d2
	.byte	$d3
	.byte	$d4
	.byte	$d5
	.byte	$d6
	.byte	$d7
	.byte	$e7
	.byte	$e8
	.byte	$e9
	.byte	$ea
	.byte	$eb
	.byte	$ec
	.byte	$ed
	.byte	$c7
	.byte	$e7
	.byte	$e8
	.byte	$86
	.byte	$87
	.byte	$ed
	.byte	$c7
	.byte	$88
	.byte	$89
	.byte	$08
	.byte	$09
	.byte	$e9
	.byte	$ea
	.byte	$0a
	.byte	$0b
	.byte	$ed
	.byte	$c7
	.byte	$e7
	.byte	$e8
	.byte	$e9
	.byte	$ea
	.byte	$eb
	.byte	$ec
	.byte	$ed
	.byte	$c7
	.byte	$f7
	.byte	$f8
	.byte	$f9
	.byte	$fa
	.byte	$fb
	.byte	$fc
	.byte	$fd
	.byte	$d7
	.byte	$f7
	.byte	$f8
	.byte	$96
	.byte	$97
	.byte	$fd
	.byte	$d7
	.byte	$98
	.byte	$99
	.byte	$18
	.byte	$19
	.byte	$f9
	.byte	$fa
	.byte	$1a
	.byte	$1b
	.byte	$fd
	.byte	$d7
	.byte	$f7
	.byte	$f8
	.byte	$f9
	.byte	$fa
	.byte	$fb
	.byte	$fc
	.byte	$fd
	.byte	$d7
	.byte	$c0
	.byte	$c1
	.byte	$c2
	.byte	$c3
	.byte	$c4
	.byte	$c5
	.byte	$c6
	.byte	$c7
	.byte	$c0
	.byte	$c1
	.byte	$e4
	.byte	$e6
	.byte	$c4
	.byte	$c5
	.byte	$e4
	.byte	$e5
	.byte	$e5
	.byte	$e6
	.byte	$c2
	.byte	$c3
	.byte	$e4
	.byte	$e6
	.byte	$c6
	.byte	$c7
	.byte	$c0
	.byte	$c1
	.byte	$c2
	.byte	$c3
	.byte	$c4
	.byte	$c5
	.byte	$c6
	.byte	$c7
	.byte	$d0
	.byte	$d1
	.byte	$d2
	.byte	$d3
	.byte	$d4
	.byte	$d5
	.byte	$d6
	.byte	$d7
	.byte	$d0
	.byte	$d1
	.byte	$f4
	.byte	$f6
	.byte	$d4
	.byte	$d5
	.byte	$f4
	.byte	$f5
	.byte	$f5
	.byte	$f6
	.byte	$d2
	.byte	$d3
	.byte	$f4
	.byte	$f6
	.byte	$d6
	.byte	$d7
	.byte	$d0
	.byte	$d1
	.byte	$d2
	.byte	$d3
	.byte	$d4
	.byte	$d5
	.byte	$d6
	.byte	$d7
	.byte	$e7
	.byte	$e8
	.byte	$e9
	.byte	$ea
	.byte	$eb
	.byte	$ec
	.byte	$ed
	.byte	$c7
	.byte	$e7
	.byte	$e8
	.byte	$e9
	.byte	$ea
	.byte	$eb
	.byte	$ec
	.byte	$ed
	.byte	$c7
	.byte	$e7
	.byte	$e8
	.byte	$e9
	.byte	$ea
	.byte	$eb
	.byte	$ec
	.byte	$ed
	.byte	$c7
	.byte	$e7
	.byte	$e8
	.byte	$e9
	.byte	$ea
	.byte	$eb
	.byte	$ec
	.byte	$ed
	.byte	$c7
	.byte	$f7
	.byte	$f8
	.byte	$f9
	.byte	$fa
	.byte	$fb
	.byte	$fc
	.byte	$fd
	.byte	$d7
	.byte	$f7
	.byte	$f8
	.byte	$f9
	.byte	$fa
	.byte	$fb
	.byte	$fc
	.byte	$fd
	.byte	$d7
	.byte	$f7
	.byte	$f8
	.byte	$f9
	.byte	$fa
	.byte	$fb
	.byte	$fc
	.byte	$fd
	.byte	$d7
	.byte	$f7
	.byte	$f8
	.byte	$f9
	.byte	$fa
	.byte	$fb
	.byte	$fc
	.byte	$fd
	.byte	$d7
	.byte	$c0
	.byte	$c1
	.byte	$c2
	.byte	$c3
	.byte	$c4
	.byte	$c5
	.byte	$c6
	.byte	$c7
	.byte	$c0
	.byte	$c1
	.byte	$c2
	.byte	$c3
	.byte	$c4
	.byte	$c5
	.byte	$c6
	.byte	$c7
	.byte	$c0
	.byte	$c1
	.byte	$c2
	.byte	$c3
	.byte	$c4
	.byte	$c5
	.byte	$c6
	.byte	$c7
	.byte	$c0
	.byte	$c1
	.byte	$c2
	.byte	$c3
	.byte	$c4
	.byte	$c5
	.byte	$c6
	.byte	$c7
	.byte	$d0
	.byte	$d1
	.byte	$d2
	.byte	$d3
	.byte	$d4
	.byte	$d5
	.byte	$d6
	.byte	$d7
	.byte	$d0
	.byte	$d1
	.byte	$d2
	.byte	$d3
	.byte	$d4
	.byte	$d5
	.byte	$d6
	.byte	$d7
	.byte	$d0
	.byte	$d1
	.byte	$d2
	.byte	$d3
	.byte	$d4
	.byte	$d5
	.byte	$d6
	.byte	$d7
	.byte	$d0
	.byte	$d1
	.byte	$d2
	.byte	$d3
	.byte	$d4
	.byte	$d5
	.byte	$d6
	.byte	$d7
	.byte	$e7
	.byte	$e8
	.byte	$e9
	.byte	$ea
	.byte	$eb
	.byte	$ec
	.byte	$ed
	.byte	$c7
	.byte	$e7
	.byte	$e8
	.byte	$e9
	.byte	$ea
	.byte	$eb
	.byte	$ec
	.byte	$ed
	.byte	$c7
	.byte	$e7
	.byte	$e8
	.byte	$e9
	.byte	$ea
	.byte	$eb
	.byte	$ec
	.byte	$ed
	.byte	$c7
	.byte	$e7
	.byte	$e8
	.byte	$e9
	.byte	$ea
	.byte	$eb
	.byte	$ec
	.byte	$ed
	.byte	$c7
	.byte	$f7
	.byte	$f8
	.byte	$f9
	.byte	$fa
	.byte	$fb
	.byte	$fc
	.byte	$fd
	.byte	$d7
	.byte	$f7
	.byte	$f8
	.byte	$f9
	.byte	$fa
	.byte	$fb
	.byte	$fc
	.byte	$fd
	.byte	$d7
	.byte	$f7
	.byte	$f8
	.byte	$f9
	.byte	$fa
	.byte	$fb
	.byte	$fc
	.byte	$fd
	.byte	$d7
	.byte	$f7
	.byte	$f8
	.byte	$f9
	.byte	$fa
	.byte	$fb
	.byte	$fc
	.byte	$fd
	.byte	$d7
	.byte	$c0
	.byte	$c1
	.byte	$c2
	.byte	$c3
	.byte	$c4
	.byte	$c5
	.byte	$c6
	.byte	$c7
	.byte	$c0
	.byte	$c1
	.byte	$c2
	.byte	$c3
	.byte	$c4
	.byte	$c5
	.byte	$c6
	.byte	$c7
	.byte	$c0
	.byte	$c1
	.byte	$c2
	.byte	$c3
	.byte	$c4
	.byte	$c5
	.byte	$c6
	.byte	$c7
	.byte	$c0
	.byte	$c1
	.byte	$c2
	.byte	$c3
	.byte	$c4
	.byte	$c5
	.byte	$c6
	.byte	$c7
	.byte	$d0
	.byte	$d1
	.byte	$d2
	.byte	$d3
	.byte	$d4
	.byte	$d5
	.byte	$d6
	.byte	$d7
	.byte	$d0
	.byte	$d1
	.byte	$d2
	.byte	$d3
	.byte	$d4
	.byte	$d5
	.byte	$d6
	.byte	$d7
	.byte	$d0
	.byte	$d1
	.byte	$d2
	.byte	$d3
	.byte	$d4
	.byte	$d5
	.byte	$d6
	.byte	$d7
	.byte	$d0
	.byte	$d1
	.byte	$d2
	.byte	$d3
	.byte	$d4
	.byte	$d5
	.byte	$d6
	.byte	$d7
	.byte	$e7
	.byte	$e8
	.byte	$e9
	.byte	$ea
	.byte	$eb
	.byte	$ec
	.byte	$ed
	.byte	$c7
	.byte	$e7
	.byte	$e8
	.byte	$e9
	.byte	$ea
	.byte	$eb
	.byte	$ec
	.byte	$ed
	.byte	$c7
	.byte	$e7
	.byte	$e8
	.byte	$e9
	.byte	$ea
	.byte	$eb
	.byte	$ec
	.byte	$ed
	.byte	$c7
	.byte	$e7
	.byte	$e8
	.byte	$e9
	.byte	$ea
	.byte	$eb
	.byte	$ec
	.byte	$ed
	.byte	$c7
	.byte	$f7
	.byte	$f8
	.byte	$f9
	.byte	$fa
	.byte	$fb
	.byte	$fc
	.byte	$fd
	.byte	$d7
	.byte	$f7
	.byte	$f8
	.byte	$f9
	.byte	$fa
	.byte	$fb
	.byte	$fc
	.byte	$fd
	.byte	$d7
	.byte	$f7
	.byte	$f8
	.byte	$f9
	.byte	$fa
	.byte	$fb
	.byte	$fc
	.byte	$fd
	.byte	$d7
	.byte	$f7
	.byte	$f8
	.byte	$f9
	.byte	$fa
	.byte	$fb
	.byte	$fc
	.byte	$fd
	.byte	$d7
	.byte	$c0
	.byte	$c1
	.byte	$c2
	.byte	$c3
	.byte	$c4
	.byte	$c5
	.byte	$c6
	.byte	$c7
	.byte	$c0
	.byte	$c1
	.byte	$c2
	.byte	$c3
	.byte	$c4
	.byte	$c5
	.byte	$c6
	.byte	$c7
	.byte	$c0
	.byte	$c1
	.byte	$c2
	.byte	$c3
	.byte	$c4
	.byte	$c5
	.byte	$c6
	.byte	$c7
	.byte	$c0
	.byte	$c1
	.byte	$c2
	.byte	$c3
	.byte	$c4
	.byte	$c5
	.byte	$c6
	.byte	$c7
	.byte	$d0
	.byte	$d1
	.byte	$d2
	.byte	$d3
	.byte	$d4
	.byte	$d5
	.byte	$d6
	.byte	$d7
	.byte	$d0
	.byte	$d1
	.byte	$d2
	.byte	$d3
	.byte	$d4
	.byte	$d5
	.byte	$d6
	.byte	$d7
	.byte	$d0
	.byte	$d1
	.byte	$d2
	.byte	$d3
	.byte	$d4
	.byte	$d5
	.byte	$d6
	.byte	$d7
	.byte	$d0
	.byte	$d1
	.byte	$d2
	.byte	$d3
	.byte	$d4
	.byte	$d5
	.byte	$d6
	.byte	$d7
	.byte	$aa
	.byte	$aa
	.byte	$aa
	.byte	$aa
	.byte	$aa
	.byte	$aa
	.byte	$aa
	.byte	$aa
	.byte	$aa
	.byte	$aa
	.byte	$aa
	.byte	$aa
	.byte	$aa
	.byte	$aa
	.byte	$aa
	.byte	$aa
	.byte	$aa
	.byte	$aa
	.byte	$aa
	.byte	$aa
	.byte	$aa
	.byte	$aa
	.byte	$aa
	.byte	$aa
	.byte	$aa
	.byte	$aa
	.byte	$aa
	.byte	$aa
	.byte	$aa
	.byte	$aa
	.byte	$aa
	.byte	$aa
	.byte	$aa
	.byte	$aa
	.byte	$aa
	.byte	$aa
	.byte	$aa
	.byte	$aa
	.byte	$aa
	.byte	$aa
	.byte	$aa
	.byte	$aa
	.byte	$aa
	.byte	$aa
	.byte	$aa
	.byte	$aa
	.byte	$aa
	.byte	$aa
	.byte	$aa
	.byte	$aa
	.byte	$aa
	.byte	$aa
	.byte	$aa
	.byte	$aa
	.byte	$aa
	.byte	$aa
	.byte	$0a
	.byte	$0a
	.byte	$0a
	.byte	$0a
	.byte	$0a
	.byte	$0a
	.byte	$0a
	.byte	$0a
_WinScreen:
	.byte	$00
	.byte	$00
	.byte	$00
	.byte	$00
	.byte	$00
	.byte	$00
	.byte	$00
	.byte	$00
	.byte	$00
	.byte	$00
	.byte	$00
	.byte	$00
	.byte	$00
	.byte	$00
	.byte	$00
	.byte	$00
	.byte	$00
	.byte	$00
	.byte	$00
	.byte	$00
	.byte	$00
	.byte	$00
	.byte	$00
	.byte	$00
	.byte	$00
	.byte	$00
	.byte	$00
	.byte	$00
	.byte	$00
	.byte	$00
	.byte	$00
	.byte	$00
	.byte	$00
	.byte	$00
	.byte	$00
	.byte	$00
	.byte	$00
	.byte	$00
	.byte	$00
	.byte	$00
	.byte	$00
	.byte	$00
	.byte	$00
	.byte	$00
	.byte	$00
	.byte	$00
	.byte	$00
	.byte	$00
	.byte	$00
	.byte	$00
	.byte	$00
	.byte	$00
	.byte	$00
	.byte	$00
	.byte	$00
	.byte	$00
	.byte	$00
	.byte	$00
	.byte	$00
	.byte	$00
	.byte	$00
	.byte	$00
	.byte	$00
	.byte	$00
	.byte	$00
	.byte	$00
	.byte	$00
	.byte	$00
	.byte	$00
	.byte	$00
	.byte	$00
	.byte	$00
	.byte	$00
	.byte	$00
	.byte	$00
	.byte	$00
	.byte	$53
	.byte	$45
	.byte	$42
	.byte	$4c
	.byte	$45
	.byte	$53
	.byte	$54
	.byte	$45
	.byte	$00
	.byte	$00
	.byte	$00
	.byte	$00
	.byte	$00
	.byte	$00
	.byte	$00
	.byte	$00
	.byte	$00
	.byte	$00
	.byte	$00
	.byte	$00
	.byte	$00
	.byte	$00
	.byte	$00
	.byte	$00
	.byte	$00
	.byte	$00
	.byte	$00
	.byte	$00
	.byte	$00
	.byte	$00
	.byte	$00
	.byte	$00
	.byte	$00
	.byte	$00
	.byte	$00
	.byte	$00
	.byte	$00
	.byte	$00
	.byte	$00
	.byte	$00
	.byte	$00
	.byte	$00
	.byte	$00
	.byte	$00
	.byte	$00
	.byte	$00
	.byte	$00
	.byte	$00
	.byte	$00
	.byte	$00
	.byte	$00
	.byte	$00
	.byte	$00
	.byte	$00
	.byte	$00
	.byte	$00
	.byte	$00
	.byte	$00
	.byte	$00
	.byte	$00
	.byte	$00
	.byte	$00
	.byte	$00
	.byte	$00
	.byte	$00
	.byte	$00
	.byte	$00
	.byte	$00
	.byte	$00
	.byte	$00
	.byte	$00
	.byte	$00
	.byte	$00
	.byte	$00
	.byte	$00
	.byte	$00
	.byte	$00
	.byte	$00
	.byte	$00
	.byte	$00
	.byte	$00
	.byte	$00
	.byte	$00
	.byte	$00
	.byte	$00
	.byte	$00
	.byte	$00
	.byte	$00
	.byte	$00
	.byte	$00
	.byte	$00
	.byte	$00
	.byte	$00
	.byte	$00
	.byte	$00
	.byte	$00
	.byte	$00
	.byte	$00
	.byte	$00
	.byte	$00
	.byte	$00
	.byte	$00
	.byte	$00
	.byte	$00
	.byte	$00
	.byte	$00
	.byte	$00
	.byte	$00
	.byte	$00
	.byte	$00
	.byte	$00
	.byte	$00
	.byte	$00
	.byte	$00
	.byte	$00
	.byte	$00
	.byte	$00
	.byte	$00
	.byte	$00
	.byte	$00
	.byte	$00
	.byte	$00
	.byte	$00
	.byte	$00
	.byte	$00
	.byte	$00
	.byte	$00
	.byte	$00
	.byte	$00
	.byte	$00
	.byte	$00
	.byte	$00
	.byte	$00
	.byte	$00
	.byte	$00
	.byte	$00
	.byte	$00
	.byte	$00
	.byte	$00
	.byte	$00
	.byte	$00
	.byte	$00
	.byte	$00
	.byte	$00
	.byte	$00
	.byte	$00
	.byte	$00
	.byte	$00
	.byte	$00
	.byte	$00
	.byte	$00
	.byte	$00
	.byte	$00
	.byte	$00
	.byte	$00
	.byte	$00
	.byte	$00
	.byte	$00
	.byte	$00
	.byte	$00
	.byte	$00
	.byte	$00
	.byte	$00
	.byte	$00
	.byte	$00
	.byte	$00
	.byte	$00
	.byte	$00
	.byte	$00
	.byte	$00
	.byte	$00
	.byte	$00
	.byte	$00
	.byte	$00
	.byte	$00
	.byte	$00
	.byte	$00
	.byte	$00
	.byte	$00
	.byte	$00
	.byte	$00
	.byte	$00
	.byte	$00
	.byte	$00
	.byte	$00
	.byte	$00
	.byte	$00
	.byte	$00
	.byte	$00
	.byte	$00
	.byte	$00
	.byte	$00
	.byte	$00
	.byte	$00
	.byte	$00
	.byte	$00
	.byte	$00
	.byte	$00
	.byte	$00
	.byte	$00
	.byte	$00
	.byte	$00
	.byte	$00
	.byte	$00
	.byte	$00
	.byte	$00
	.byte	$00
	.byte	$00
	.byte	$00
	.byte	$00
	.byte	$00
	.byte	$00
	.byte	$00
	.byte	$00
	.byte	$00
	.byte	$00
	.byte	$00
	.byte	$00
	.byte	$00
	.byte	$00
	.byte	$00
	.byte	$00
	.byte	$00
	.byte	$00
	.byte	$00
	.byte	$00
	.byte	$00
	.byte	$00
	.byte	$00
	.byte	$00
	.byte	$00
	.byte	$00
	.byte	$00
	.byte	$00
	.byte	$00
	.byte	$00
	.byte	$00
	.byte	$00
	.byte	$00
	.byte	$00
	.byte	$00
	.byte	$00
	.byte	$00
	.byte	$00
	.byte	$00
	.byte	$00
	.byte	$00
	.byte	$00
	.byte	$00
	.byte	$00
	.byte	$e4
	.byte	$e5
	.byte	$e5
	.byte	$e6
	.byte	$00
	.byte	$00
	.byte	$00
	.byte	$00
	.byte	$00
	.byte	$00
	.byte	$00
	.byte	$00
	.byte	$00
	.byte	$00
	.byte	$00
	.byte	$00
	.byte	$e4
	.byte	$e5
	.byte	$e5
	.byte	$e6
	.byte	$00
	.byte	$00
	.byte	$00
	.byte	$00
	.byte	$00
	.byte	$00
	.byte	$00
	.byte	$00
	.byte	$00
	.byte	$00
	.byte	$00
	.byte	$00
	.byte	$f4
	.byte	$f5
	.byte	$f5
	.byte	$f6
	.byte	$00
	.byte	$00
	.byte	$00
	.byte	$00
	.byte	$00
	.byte	$00
	.byte	$00
	.byte	$00
	.byte	$00
	.byte	$00
	.byte	$00
	.byte	$00
	.byte	$f4
	.byte	$f5
	.byte	$f5
	.byte	$f6
	.byte	$00
	.byte	$00
	.byte	$00
	.byte	$00
	.byte	$00
	.byte	$00
	.byte	$00
	.byte	$00
	.byte	$00
	.byte	$00
	.byte	$00
	.byte	$00
	.byte	$00
	.byte	$00
	.byte	$00
	.byte	$00
	.byte	$00
	.byte	$00
	.byte	$00
	.byte	$00
	.byte	$00
	.byte	$00
	.byte	$00
	.byte	$00
	.byte	$00
	.byte	$00
	.byte	$00
	.byte	$00
	.byte	$00
	.byte	$00
	.byte	$00
	.byte	$00
	.byte	$00
	.byte	$00
	.byte	$00
	.byte	$00
	.byte	$00
	.byte	$00
	.byte	$00
	.byte	$00
	.byte	$00
	.byte	$00
	.byte	$00
	.byte	$00
	.byte	$00
	.byte	$00
	.byte	$00
	.byte	$00
	.byte	$00
	.byte	$00
	.byte	$00
	.byte	$00
	.byte	$9c
	.byte	$00
	.byte	$00
	.byte	$9c
	.byte	$00
	.byte	$00
	.byte	$00
	.byte	$00
	.byte	$00
	.byte	$00
	.byte	$00
	.byte	$00
	.byte	$00
	.byte	$00
	.byte	$00
	.byte	$00
	.byte	$00
	.byte	$00
	.byte	$00
	.byte	$00
	.byte	$00
	.byte	$00
	.byte	$00
	.byte	$00
	.byte	$00
	.byte	$00
	.byte	$00
	.byte	$00
	.byte	$00
	.byte	$00
	.byte	$00
	.byte	$00
	.byte	$ac
	.byte	$04
	.byte	$05
	.byte	$ac
	.byte	$00
	.byte	$00
	.byte	$00
	.byte	$00
	.byte	$00
	.byte	$00
	.byte	$00
	.byte	$00
	.byte	$00
	.byte	$00
	.byte	$00
	.byte	$00
	.byte	$00
	.byte	$00
	.byte	$00
	.byte	$00
	.byte	$00
	.byte	$00
	.byte	$00
	.byte	$00
	.byte	$00
	.byte	$00
	.byte	$00
	.byte	$00
	.byte	$00
	.byte	$00
	.byte	$00
	.byte	$00
	.byte	$bc
	.byte	$14
	.byte	$15
	.byte	$bc
	.byte	$00
	.byte	$00
	.byte	$00
	.byte	$00
	.byte	$00
	.byte	$00
	.byte	$00
	.byte	$00
	.byte	$00
	.byte	$00
	.byte	$00
	.byte	$00
	.byte	$00
	.byte	$00
	.byte	$00
	.byte	$00
	.byte	$00
	.byte	$00
	.byte	$00
	.byte	$00
	.byte	$00
	.byte	$00
	.byte	$00
	.byte	$00
	.byte	$00
	.byte	$00
	.byte	$a4
	.byte	$10
	.byte	$11
	.byte	$10
	.byte	$11
	.byte	$10
	.byte	$11
	.byte	$a9
	.byte	$00
	.byte	$00
	.byte	$00
	.byte	$00
	.byte	$00
	.byte	$00
	.byte	$00
	.byte	$00
	.byte	$00
	.byte	$00
	.byte	$00
	.byte	$00
	.byte	$be
	.byte	$00
	.byte	$00
	.byte	$00
	.byte	$00
	.byte	$00
	.byte	$00
	.byte	$00
	.byte	$00
	.byte	$00
	.byte	$00
	.byte	$00
	.byte	$b4
	.byte	$b6
	.byte	$b6
	.byte	$b7
	.byte	$b6
	.byte	$b7
	.byte	$b7
	.byte	$b9
	.byte	$00
	.byte	$00
	.byte	$00
	.byte	$00
	.byte	$00
	.byte	$00
	.byte	$00
	.byte	$00
	.byte	$00
	.byte	$00
	.byte	$00
	.byte	$be
	.byte	$cf
	.byte	$00
	.byte	$00
	.byte	$00
	.byte	$00
	.byte	$00
	.byte	$00
	.byte	$00
	.byte	$00
	.byte	$00
	.byte	$00
	.byte	$00
	.byte	$00
	.byte	$00
	.byte	$00
	.byte	$00
	.byte	$00
	.byte	$00
	.byte	$00
	.byte	$00
	.byte	$00
	.byte	$00
	.byte	$00
	.byte	$00
	.byte	$00
	.byte	$00
	.byte	$00
	.byte	$00
	.byte	$00
	.byte	$00
	.byte	$00
	.byte	$cf
	.byte	$df
	.byte	$00
	.byte	$00
	.byte	$00
	.byte	$00
	.byte	$00
	.byte	$00
	.byte	$00
	.byte	$00
	.byte	$00
	.byte	$00
	.byte	$00
	.byte	$00
	.byte	$00
	.byte	$00
	.byte	$00
	.byte	$00
	.byte	$00
	.byte	$00
	.byte	$00
	.byte	$00
	.byte	$00
	.byte	$00
	.byte	$00
	.byte	$00
	.byte	$00
	.byte	$00
	.byte	$00
	.byte	$00
	.byte	$00
	.byte	$00
	.byte	$df
	.byte	$a4
	.byte	$a5
	.byte	$11
	.byte	$10
	.byte	$11
	.byte	$a9
	.byte	$00
	.byte	$00
	.byte	$00
	.byte	$00
	.byte	$00
	.byte	$00
	.byte	$00
	.byte	$00
	.byte	$00
	.byte	$00
	.byte	$00
	.byte	$00
	.byte	$00
	.byte	$00
	.byte	$00
	.byte	$00
	.byte	$00
	.byte	$00
	.byte	$00
	.byte	$00
	.byte	$a4
	.byte	$10
	.byte	$11
	.byte	$10
	.byte	$11
	.byte	$a9
	.byte	$b4
	.byte	$b6
	.byte	$b7
	.byte	$b6
	.byte	$b7
	.byte	$b9
	.byte	$00
	.byte	$00
	.byte	$00
	.byte	$00
	.byte	$00
	.byte	$00
	.byte	$00
	.byte	$00
	.byte	$00
	.byte	$00
	.byte	$00
	.byte	$00
	.byte	$00
	.byte	$00
	.byte	$00
	.byte	$00
	.byte	$00
	.byte	$00
	.byte	$00
	.byte	$00
	.byte	$b4
	.byte	$b6
	.byte	$b6
	.byte	$b6
	.byte	$b7
	.byte	$b9
	.byte	$00
	.byte	$00
	.byte	$00
	.byte	$00
	.byte	$00
	.byte	$00
	.byte	$00
	.byte	$00
	.byte	$00
	.byte	$00
	.byte	$00
	.byte	$00
	.byte	$00
	.byte	$00
	.byte	$00
	.byte	$00
	.byte	$00
	.byte	$00
	.byte	$00
	.byte	$00
	.byte	$00
	.byte	$00
	.byte	$00
	.byte	$00
	.byte	$00
	.byte	$00
	.byte	$00
	.byte	$00
	.byte	$00
	.byte	$00
	.byte	$00
	.byte	$00
	.byte	$00
	.byte	$00
	.byte	$00
	.byte	$00
	.byte	$00
	.byte	$00
	.byte	$00
	.byte	$00
	.byte	$00
	.byte	$00
	.byte	$00
	.byte	$00
	.byte	$00
	.byte	$00
	.byte	$00
	.byte	$00
	.byte	$00
	.byte	$00
	.byte	$00
	.byte	$00
	.byte	$00
	.byte	$00
	.byte	$00
	.byte	$00
	.byte	$00
	.byte	$00
	.byte	$00
	.byte	$00
	.byte	$00
	.byte	$00
	.byte	$00
	.byte	$00
	.byte	$00
	.byte	$00
	.byte	$00
	.byte	$00
	.byte	$00
	.byte	$00
	.byte	$00
	.byte	$00
	.byte	$00
	.byte	$00
	.byte	$00
	.byte	$00
	.byte	$00
	.byte	$00
	.byte	$e4
	.byte	$e5
	.byte	$e5
	.byte	$e6
	.byte	$00
	.byte	$00
	.byte	$00
	.byte	$00
	.byte	$00
	.byte	$00
	.byte	$00
	.byte	$00
	.byte	$00
	.byte	$00
	.byte	$00
	.byte	$00
	.byte	$00
	.byte	$00
	.byte	$00
	.byte	$00
	.byte	$00
	.byte	$00
	.byte	$00
	.byte	$00
	.byte	$00
	.byte	$00
	.byte	$00
	.byte	$00
	.byte	$00
	.byte	$00
	.byte	$00
	.byte	$00
	.byte	$f4
	.byte	$f5
	.byte	$f5
	.byte	$f6
	.byte	$00
	.byte	$00
	.byte	$00
	.byte	$00
	.byte	$00
	.byte	$00
	.byte	$00
	.byte	$00
	.byte	$00
	.byte	$00
	.byte	$00
	.byte	$00
	.byte	$00
	.byte	$00
	.byte	$10
	.byte	$11
	.byte	$10
	.byte	$11
	.byte	$10
	.byte	$11
	.byte	$10
	.byte	$a9
	.byte	$00
	.byte	$00
	.byte	$00
	.byte	$00
	.byte	$00
	.byte	$00
	.byte	$00
	.byte	$00
	.byte	$00
	.byte	$00
	.byte	$00
	.byte	$00
	.byte	$00
	.byte	$00
	.byte	$00
	.byte	$00
	.byte	$a4
	.byte	$10
	.byte	$11
	.byte	$10
	.byte	$11
	.byte	$10
	.byte	$11
	.byte	$10
	.byte	$13
	.byte	$12
	.byte	$13
	.byte	$12
	.byte	$13
	.byte	$12
	.byte	$13
	.byte	$b9
	.byte	$00
	.byte	$00
	.byte	$00
	.byte	$00
	.byte	$00
	.byte	$00
	.byte	$00
	.byte	$00
	.byte	$00
	.byte	$00
	.byte	$00
	.byte	$00
	.byte	$00
	.byte	$00
	.byte	$00
	.byte	$00
	.byte	$b4
	.byte	$12
	.byte	$13
	.byte	$12
	.byte	$13
	.byte	$12
	.byte	$13
	.byte	$12
	.byte	$13
	.byte	$12
	.byte	$13
	.byte	$12
	.byte	$13
	.byte	$12
	.byte	$13
	.byte	$8f
	.byte	$00
	.byte	$00
	.byte	$00
	.byte	$00
	.byte	$00
	.byte	$00
	.byte	$00
	.byte	$00
	.byte	$00
	.byte	$00
	.byte	$00
	.byte	$00
	.byte	$00
	.byte	$00
	.byte	$00
	.byte	$00
	.byte	$ee
	.byte	$12
	.byte	$13
	.byte	$12
	.byte	$13
	.byte	$12
	.byte	$13
	.byte	$12
	.byte	$13
	.byte	$12
	.byte	$13
	.byte	$12
	.byte	$13
	.byte	$12
	.byte	$13
	.byte	$9f
	.byte	$00
	.byte	$00
	.byte	$00
	.byte	$00
	.byte	$00
	.byte	$00
	.byte	$00
	.byte	$00
	.byte	$00
	.byte	$00
	.byte	$00
	.byte	$00
	.byte	$00
	.byte	$00
	.byte	$00
	.byte	$00
	.byte	$fe
	.byte	$12
	.byte	$13
	.byte	$12
	.byte	$13
	.byte	$12
	.byte	$13
	.byte	$12
	.byte	$00
	.byte	$00
	.byte	$00
	.byte	$50
	.byte	$50
	.byte	$00
	.byte	$00
	.byte	$00
	.byte	$00
	.byte	$00
	.byte	$00
	.byte	$00
	.byte	$00
	.byte	$00
	.byte	$00
	.byte	$00
	.byte	$00
	.byte	$40
	.byte	$10
	.byte	$00
	.byte	$00
	.byte	$40
	.byte	$10
	.byte	$00
	.byte	$00
	.byte	$00
	.byte	$00
	.byte	$44
	.byte	$11
	.byte	$00
	.byte	$00
	.byte	$00
	.byte	$11
	.byte	$00
	.byte	$00
	.byte	$05
	.byte	$05
	.byte	$00
	.byte	$00
	.byte	$44
	.byte	$05
	.byte	$01
	.byte	$00
	.byte	$00
	.byte	$00
	.byte	$00
	.byte	$04
	.byte	$05
	.byte	$50
	.byte	$50
	.byte	$00
	.byte	$04
	.byte	$01
	.byte	$00
	.byte	$50
	.byte	$50
	.byte	$05
	.byte	$05
	.byte	$00
	.byte	$00
	.byte	$00
	.byte	$00
	.byte	$05
	.byte	$05
_LoadingScreen:
	.byte	$c4
	.byte	$c5
	.byte	$c6
	.byte	$f3
	.byte	$f2
	.byte	$e0
	.byte	$e0
	.byte	$e1
	.byte	$c2
	.byte	$c3
	.byte	$c2
	.byte	$c3
	.byte	$c4
	.byte	$c5
	.byte	$c6
	.byte	$e7
	.byte	$e8
	.byte	$e9
	.byte	$ea
	.byte	$eb
	.byte	$ec
	.byte	$ed
	.byte	$c2
	.byte	$c3
	.byte	$c0
	.byte	$c1
	.byte	$e0
	.byte	$f2
	.byte	$f3
	.byte	$eb
	.byte	$ec
	.byte	$ed
	.byte	$00
	.byte	$00
	.byte	$00
	.byte	$00
	.byte	$00
	.byte	$dd
	.byte	$f0
	.byte	$f1
	.byte	$d2
	.byte	$d3
	.byte	$d2
	.byte	$d3
	.byte	$d4
	.byte	$d5
	.byte	$d6
	.byte	$f7
	.byte	$f8
	.byte	$f9
	.byte	$fa
	.byte	$fb
	.byte	$fc
	.byte	$fd
	.byte	$d2
	.byte	$d3
	.byte	$d0
	.byte	$d1
	.byte	$f0
	.byte	$00
	.byte	$00
	.byte	$00
	.byte	$00
	.byte	$00
	.byte	$00
	.byte	$00
	.byte	$00
	.byte	$00
	.byte	$00
	.byte	$00
	.byte	$dd
	.byte	$f9
	.byte	$e2
	.byte	$e3
	.byte	$c2
	.byte	$c3
	.byte	$e0
	.byte	$e1
	.byte	$e2
	.byte	$e3
	.byte	$c2
	.byte	$c3
	.byte	$e7
	.byte	$dd
	.byte	$c2
	.byte	$c3
	.byte	$e2
	.byte	$e3
	.byte	$e0
	.byte	$f0
	.byte	$00
	.byte	$00
	.byte	$00
	.byte	$00
	.byte	$00
	.byte	$00
	.byte	$00
	.byte	$00
	.byte	$00
	.byte	$00
	.byte	$00
	.byte	$00
	.byte	$00
	.byte	$dd
	.byte	$f2
	.byte	$f3
	.byte	$d2
	.byte	$d3
	.byte	$f0
	.byte	$f1
	.byte	$f2
	.byte	$f3
	.byte	$fa
	.byte	$fb
	.byte	$f7
	.byte	$f9
	.byte	$d2
	.byte	$d3
	.byte	$f2
	.byte	$f3
	.byte	$f0
	.byte	$00
	.byte	$00
	.byte	$00
	.byte	$00
	.byte	$00
	.byte	$00
	.byte	$00
	.byte	$00
	.byte	$00
	.byte	$00
	.byte	$00
	.byte	$00
	.byte	$00
	.byte	$00
	.byte	$00
	.byte	$c4
	.byte	$c5
	.byte	$c6
	.byte	$d3
	.byte	$e0
	.byte	$e1
	.byte	$d3
	.byte	$c5
	.byte	$e0
	.byte	$e1
	.byte	$e2
	.byte	$e3
	.byte	$dd
	.byte	$eb
	.byte	$ec
	.byte	$ed
	.byte	$00
	.byte	$00
	.byte	$00
	.byte	$00
	.byte	$00
	.byte	$00
	.byte	$00
	.byte	$00
	.byte	$00
	.byte	$00
	.byte	$00
	.byte	$00
	.byte	$00
	.byte	$00
	.byte	$00
	.byte	$00
	.byte	$00
	.byte	$00
	.byte	$00
	.byte	$dd
	.byte	$f0
	.byte	$f1
	.byte	$e9
	.byte	$ea
	.byte	$f0
	.byte	$f1
	.byte	$f2
	.byte	$f3
	.byte	$f0
	.byte	$00
	.byte	$00
	.byte	$00
	.byte	$00
	.byte	$00
	.byte	$00
	.byte	$00
	.byte	$00
	.byte	$00
	.byte	$00
	.byte	$00
	.byte	$00
	.byte	$00
	.byte	$00
	.byte	$00
	.byte	$00
	.byte	$00
	.byte	$00
	.byte	$00
	.byte	$00
	.byte	$00
	.byte	$00
	.byte	$00
	.byte	$dd
	.byte	$f9
	.byte	$f9
	.byte	$fa
	.byte	$c2
	.byte	$c3
	.byte	$f1
	.byte	$f0
	.byte	$00
	.byte	$00
	.byte	$00
	.byte	$00
	.byte	$00
	.byte	$00
	.byte	$00
	.byte	$00
	.byte	$00
	.byte	$00
	.byte	$00
	.byte	$00
	.byte	$00
	.byte	$00
	.byte	$00
	.byte	$00
	.byte	$00
	.byte	$00
	.byte	$00
	.byte	$00
	.byte	$00
	.byte	$00
	.byte	$00
	.byte	$00
	.byte	$00
	.byte	$c4
	.byte	$c5
	.byte	$c6
	.byte	$eb
	.byte	$ec
	.byte	$ed
	.byte	$00
	.byte	$00
	.byte	$00
	.byte	$00
	.byte	$00
	.byte	$00
	.byte	$00
	.byte	$00
	.byte	$00
	.byte	$00
	.byte	$00
	.byte	$00
	.byte	$00
	.byte	$00
	.byte	$00
	.byte	$00
	.byte	$00
	.byte	$00
	.byte	$00
	.byte	$00
	.byte	$00
	.byte	$00
	.byte	$00
	.byte	$00
	.byte	$00
	.byte	$00
	.byte	$00
	.byte	$00
	.byte	$00
	.byte	$00
	.byte	$00
	.byte	$00
	.byte	$00
	.byte	$00
	.byte	$00
	.byte	$00
	.byte	$00
	.byte	$00
	.byte	$00
	.byte	$00
	.byte	$00
	.byte	$00
	.byte	$00
	.byte	$00
	.byte	$00
	.byte	$00
	.byte	$00
	.byte	$00
	.byte	$00
	.byte	$00
	.byte	$00
	.byte	$00
	.byte	$00
	.byte	$00
	.byte	$00
	.byte	$00
	.byte	$00
	.byte	$00
	.byte	$00
	.byte	$00
	.byte	$00
	.byte	$00
	.byte	$00
	.byte	$00
	.byte	$00
	.byte	$00
	.byte	$00
	.byte	$00
	.byte	$00
	.byte	$00
	.byte	$00
	.byte	$00
	.byte	$00
	.byte	$00
	.byte	$00
	.byte	$00
	.byte	$00
	.byte	$00
	.byte	$00
	.byte	$00
	.byte	$00
	.byte	$00
	.byte	$00
	.byte	$00
	.byte	$00
	.byte	$00
	.byte	$00
	.byte	$00
	.byte	$00
	.byte	$00
	.byte	$00
	.byte	$00
	.byte	$00
	.byte	$00
	.byte	$00
	.byte	$00
	.byte	$00
	.byte	$00
	.byte	$00
	.byte	$00
	.byte	$00
	.byte	$00
	.byte	$00
	.byte	$00
	.byte	$00
	.byte	$00
	.byte	$00
	.byte	$00
	.byte	$00
	.byte	$00
	.byte	$00
	.byte	$00
	.byte	$00
	.byte	$00
	.byte	$00
	.byte	$00
	.byte	$00
	.byte	$00
	.byte	$00
	.byte	$00
	.byte	$00
	.byte	$00
	.byte	$00
	.byte	$00
	.byte	$00
	.byte	$00
	.byte	$00
	.byte	$00
	.byte	$00
	.byte	$00
	.byte	$00
	.byte	$00
	.byte	$00
	.byte	$00
	.byte	$00
	.byte	$00
	.byte	$00
	.byte	$00
	.byte	$00
	.byte	$00
	.byte	$00
	.byte	$00
	.byte	$00
	.byte	$00
	.byte	$00
	.byte	$00
	.byte	$00
	.byte	$00
	.byte	$00
	.byte	$00
	.byte	$00
	.byte	$00
	.byte	$00
	.byte	$00
	.byte	$00
	.byte	$00
	.byte	$00
	.byte	$00
	.byte	$00
	.byte	$00
	.byte	$00
	.byte	$00
	.byte	$00
	.byte	$00
	.byte	$00
	.byte	$00
	.byte	$00
	.byte	$00
	.byte	$00
	.byte	$00
	.byte	$00
	.byte	$00
	.byte	$00
	.byte	$9c
	.byte	$00
	.byte	$00
	.byte	$00
	.byte	$00
	.byte	$00
	.byte	$00
	.byte	$00
	.byte	$00
	.byte	$00
	.byte	$00
	.byte	$00
	.byte	$00
	.byte	$00
	.byte	$00
	.byte	$00
	.byte	$00
	.byte	$00
	.byte	$00
	.byte	$00
	.byte	$00
	.byte	$00
	.byte	$00
	.byte	$00
	.byte	$00
	.byte	$00
	.byte	$00
	.byte	$00
	.byte	$00
	.byte	$00
	.byte	$00
	.byte	$9c
	.byte	$ac
	.byte	$00
	.byte	$00
	.byte	$00
	.byte	$00
	.byte	$00
	.byte	$00
	.byte	$00
	.byte	$00
	.byte	$00
	.byte	$00
	.byte	$00
	.byte	$00
	.byte	$00
	.byte	$00
	.byte	$00
	.byte	$00
	.byte	$00
	.byte	$00
	.byte	$00
	.byte	$00
	.byte	$00
	.byte	$00
	.byte	$00
	.byte	$00
	.byte	$00
	.byte	$00
	.byte	$00
	.byte	$00
	.byte	$00
	.byte	$00
	.byte	$ac
	.byte	$ac
	.byte	$00
	.byte	$00
	.byte	$00
	.byte	$00
	.byte	$00
	.byte	$00
	.byte	$00
	.byte	$00
	.byte	$00
	.byte	$00
	.byte	$00
	.byte	$00
	.byte	$00
	.byte	$00
	.byte	$00
	.byte	$00
	.byte	$00
	.byte	$00
	.byte	$00
	.byte	$00
	.byte	$00
	.byte	$00
	.byte	$00
	.byte	$00
	.byte	$00
	.byte	$00
	.byte	$00
	.byte	$00
	.byte	$00
	.byte	$00
	.byte	$ac
	.byte	$ac
	.byte	$00
	.byte	$00
	.byte	$00
	.byte	$00
	.byte	$00
	.byte	$00
	.byte	$00
	.byte	$00
	.byte	$00
	.byte	$00
	.byte	$00
	.byte	$00
	.byte	$00
	.byte	$00
	.byte	$00
	.byte	$00
	.byte	$00
	.byte	$00
	.byte	$00
	.byte	$00
	.byte	$00
	.byte	$00
	.byte	$00
	.byte	$00
	.byte	$00
	.byte	$00
	.byte	$00
	.byte	$00
	.byte	$00
	.byte	$00
	.byte	$ac
	.byte	$ac
	.byte	$00
	.byte	$00
	.byte	$00
	.byte	$00
	.byte	$00
	.byte	$00
	.byte	$00
	.byte	$00
	.byte	$00
	.byte	$00
	.byte	$00
	.byte	$00
	.byte	$00
	.byte	$00
	.byte	$00
	.byte	$00
	.byte	$00
	.byte	$00
	.byte	$00
	.byte	$00
	.byte	$00
	.byte	$00
	.byte	$00
	.byte	$00
	.byte	$00
	.byte	$00
	.byte	$00
	.byte	$00
	.byte	$00
	.byte	$00
	.byte	$ac
	.byte	$ac
	.byte	$00
	.byte	$00
	.byte	$00
	.byte	$00
	.byte	$00
	.byte	$00
	.byte	$00
	.byte	$00
	.byte	$00
	.byte	$00
	.byte	$00
	.byte	$00
	.byte	$00
	.byte	$00
	.byte	$00
	.byte	$00
	.byte	$00
	.byte	$00
	.byte	$00
	.byte	$00
	.byte	$00
	.byte	$00
	.byte	$00
	.byte	$00
	.byte	$00
	.byte	$00
	.byte	$00
	.byte	$00
	.byte	$00
	.byte	$00
	.byte	$ac
	.byte	$ac
	.byte	$00
	.byte	$00
	.byte	$00
	.byte	$00
	.byte	$00
	.byte	$00
	.byte	$00
	.byte	$00
	.byte	$00
	.byte	$00
	.byte	$00
	.byte	$00
	.byte	$00
	.byte	$00
	.byte	$00
	.byte	$00
	.byte	$00
	.byte	$00
	.byte	$00
	.byte	$00
	.byte	$00
	.byte	$00
	.byte	$00
	.byte	$00
	.byte	$00
	.byte	$00
	.byte	$00
	.byte	$00
	.byte	$00
	.byte	$00
	.byte	$ac
	.byte	$ac
	.byte	$00
	.byte	$00
	.byte	$00
	.byte	$00
	.byte	$00
	.byte	$00
	.byte	$00
	.byte	$00
	.byte	$00
	.byte	$00
	.byte	$00
	.byte	$00
	.byte	$00
	.byte	$00
	.byte	$00
	.byte	$00
	.byte	$00
	.byte	$00
	.byte	$00
	.byte	$00
	.byte	$00
	.byte	$00
	.byte	$00
	.byte	$00
	.byte	$00
	.byte	$00
	.byte	$00
	.byte	$00
	.byte	$00
	.byte	$00
	.byte	$ac
	.byte	$ac
	.byte	$00
	.byte	$00
	.byte	$00
	.byte	$00
	.byte	$00
	.byte	$00
	.byte	$00
	.byte	$00
	.byte	$00
	.byte	$00
	.byte	$00
	.byte	$00
	.byte	$00
	.byte	$00
	.byte	$00
	.byte	$00
	.byte	$00
	.byte	$00
	.byte	$00
	.byte	$00
	.byte	$00
	.byte	$00
	.byte	$00
	.byte	$00
	.byte	$00
	.byte	$00
	.byte	$00
	.byte	$00
	.byte	$00
	.byte	$00
	.byte	$ac
	.byte	$ac
	.byte	$00
	.byte	$00
	.byte	$00
	.byte	$00
	.byte	$00
	.byte	$00
	.byte	$00
	.byte	$00
	.byte	$00
	.byte	$00
	.byte	$00
	.byte	$00
	.byte	$00
	.byte	$00
	.byte	$00
	.byte	$00
	.byte	$00
	.byte	$00
	.byte	$00
	.byte	$00
	.byte	$00
	.byte	$00
	.byte	$00
	.byte	$00
	.byte	$00
	.byte	$00
	.byte	$00
	.byte	$00
	.byte	$00
	.byte	$00
	.byte	$ac
	.byte	$ac
	.byte	$00
	.byte	$00
	.byte	$00
	.byte	$00
	.byte	$00
	.byte	$00
	.byte	$00
	.byte	$9c
	.byte	$00
	.byte	$00
	.byte	$00
	.byte	$00
	.byte	$00
	.byte	$00
	.byte	$00
	.byte	$00
	.byte	$00
	.byte	$00
	.byte	$00
	.byte	$00
	.byte	$00
	.byte	$00
	.byte	$9c
	.byte	$00
	.byte	$00
	.byte	$00
	.byte	$00
	.byte	$00
	.byte	$00
	.byte	$00
	.byte	$ac
	.byte	$ac
	.byte	$00
	.byte	$00
	.byte	$00
	.byte	$00
	.byte	$00
	.byte	$00
	.byte	$00
	.byte	$ac
	.byte	$9c
	.byte	$00
	.byte	$00
	.byte	$00
	.byte	$00
	.byte	$00
	.byte	$00
	.byte	$00
	.byte	$00
	.byte	$00
	.byte	$00
	.byte	$00
	.byte	$00
	.byte	$9c
	.byte	$ac
	.byte	$00
	.byte	$00
	.byte	$00
	.byte	$00
	.byte	$00
	.byte	$00
	.byte	$00
	.byte	$ac
	.byte	$ac
	.byte	$00
	.byte	$00
	.byte	$00
	.byte	$00
	.byte	$00
	.byte	$00
	.byte	$00
	.byte	$ac
	.byte	$ac
	.byte	$9c
	.byte	$00
	.byte	$00
	.byte	$00
	.byte	$00
	.byte	$04
	.byte	$05
	.byte	$00
	.byte	$00
	.byte	$00
	.byte	$00
	.byte	$9c
	.byte	$ac
	.byte	$ac
	.byte	$00
	.byte	$00
	.byte	$00
	.byte	$00
	.byte	$00
	.byte	$00
	.byte	$00
	.byte	$ac
	.byte	$ac
	.byte	$00
	.byte	$00
	.byte	$00
	.byte	$00
	.byte	$00
	.byte	$00
	.byte	$00
	.byte	$bc
	.byte	$bc
	.byte	$bc
	.byte	$00
	.byte	$00
	.byte	$00
	.byte	$bc
	.byte	$14
	.byte	$15
	.byte	$bc
	.byte	$00
	.byte	$00
	.byte	$00
	.byte	$bc
	.byte	$bc
	.byte	$bc
	.byte	$00
	.byte	$00
	.byte	$00
	.byte	$00
	.byte	$00
	.byte	$00
	.byte	$00
	.byte	$ac
	.byte	$ac
	.byte	$00
	.byte	$00
	.byte	$00
	.byte	$00
	.byte	$00
	.byte	$00
	.byte	$e4
	.byte	$e5
	.byte	$e5
	.byte	$e5
	.byte	$e5
	.byte	$e5
	.byte	$e5
	.byte	$e5
	.byte	$e5
	.byte	$e5
	.byte	$e5
	.byte	$e5
	.byte	$e5
	.byte	$e5
	.byte	$e5
	.byte	$e5
	.byte	$e5
	.byte	$e6
	.byte	$00
	.byte	$00
	.byte	$00
	.byte	$00
	.byte	$00
	.byte	$00
	.byte	$ac
	.byte	$bc
	.byte	$00
	.byte	$a4
	.byte	$10
	.byte	$10
	.byte	$10
	.byte	$10
	.byte	$10
	.byte	$10
	.byte	$10
	.byte	$10
	.byte	$10
	.byte	$10
	.byte	$10
	.byte	$10
	.byte	$10
	.byte	$10
	.byte	$10
	.byte	$10
	.byte	$10
	.byte	$10
	.byte	$10
	.byte	$10
	.byte	$10
	.byte	$10
	.byte	$10
	.byte	$10
	.byte	$10
	.byte	$10
	.byte	$a9
	.byte	$00
	.byte	$bc
	.byte	$10
	.byte	$10
	.byte	$12
	.byte	$13
	.byte	$12
	.byte	$13
	.byte	$12
	.byte	$13
	.byte	$12
	.byte	$13
	.byte	$12
	.byte	$13
	.byte	$12
	.byte	$13
	.byte	$12
	.byte	$13
	.byte	$12
	.byte	$13
	.byte	$12
	.byte	$13
	.byte	$12
	.byte	$13
	.byte	$12
	.byte	$13
	.byte	$12
	.byte	$13
	.byte	$12
	.byte	$13
	.byte	$12
	.byte	$13
	.byte	$10
	.byte	$10
	.byte	$0f
	.byte	$ff
	.byte	$ff
	.byte	$ff
	.byte	$ff
	.byte	$ff
	.byte	$3f
	.byte	$0f
	.byte	$00
	.byte	$00
	.byte	$0f
	.byte	$ff
	.byte	$ff
	.byte	$0f
	.byte	$02
	.byte	$00
	.byte	$00
	.byte	$00
	.byte	$00
	.byte	$00
	.byte	$00
	.byte	$00
	.byte	$00
	.byte	$00
	.byte	$33
	.byte	$00
	.byte	$00
	.byte	$00
	.byte	$00
	.byte	$00
	.byte	$00
	.byte	$cc
	.byte	$33
	.byte	$00
	.byte	$00
	.byte	$00
	.byte	$00
	.byte	$00
	.byte	$00
	.byte	$cc
	.byte	$33
	.byte	$00
	.byte	$30
	.byte	$00
	.byte	$00
	.byte	$c0
	.byte	$00
	.byte	$cc
	.byte	$33
	.byte	$c0
	.byte	$ff
	.byte	$fc
	.byte	$f3
	.byte	$ff
	.byte	$30
	.byte	$ec
	.byte	$0f
	.byte	$0f
	.byte	$0f
	.byte	$0f
	.byte	$0f
	.byte	$0f
	.byte	$0f
	.byte	$0f
_palette:
	.byte	$0f
	.byte	$00
	.byte	$10
	.byte	$30
	.byte	$0f
	.byte	$01
	.byte	$11
	.byte	$31
	.byte	$0f
	.byte	$05
	.byte	$16
	.byte	$27
	.byte	$0f
	.byte	$09
	.byte	$19
	.byte	$29
_spritePalette:
	.byte	$0f
	.byte	$00
	.byte	$10
	.byte	$30
	.byte	$0f
	.byte	$01
	.byte	$11
	.byte	$21
	.byte	$0f
	.byte	$05
	.byte	$16
	.byte	$36
	.byte	$0f
	.byte	$09
	.byte	$19
	.byte	$39
_text:
	.byte	$53,$45,$42,$4C,$45,$53,$54,$45,$00
_titlePrompt:
	.byte	$50,$72,$65,$73,$73,$20,$53,$54,$41,$52,$54,$00
_endScreenTitle:
	.byte	$59,$4F,$55,$20,$57,$4F,$4E,$21,$00
_endScreenPrompt:
	.byte	$54,$6F,$20,$70,$6C,$61,$79,$20,$61,$67,$61,$69,$6E,$00
_loadingText:
	.byte	$4C,$4F,$41,$44,$49,$4E,$47,$20,$3A,$44,$00
_respawningText:
	.byte	$52,$45,$53,$50,$41,$57,$4E,$49,$4E,$47,$20,$3A,$29,$00
_DeathCounter:
	.byte	$44,$65,$61,$74,$68,$20,$43,$6F,$75,$6E,$74,$65,$72,$00
S0009:
	.byte	$25,$64,$00

.segment	"BSS"

.segment	"ZEROPAGE"
_inputPad:
	.res	1,$00
_movementPad:
	.res	1,$00
_currentLevelData:
	.res	2,$00
_deathCounterText:
	.res	6,$00
_player:
	.res	27,$00

; ---------------------------------------------------------------
; void __near__ DrawTitleScreen (void)
; ---------------------------------------------------------------

.segment	"CODE"

.proc	_DrawTitleScreen: near

.segment	"CODE"

;
; ppu_off(); // screen off
;
	jsr     _ppu_off
;
; pal_bg(palette); // load the BG palette
;
	lda     #<(_palette)
	ldx     #>(_palette)
	jsr     _pal_bg
;
; vram_adr(NAMETABLE_A);
;
	ldx     #$20
	lda     #$00
	jsr     _vram_adr
;
; vram_fill(0x00, 1024);
;
	lda     #$00
	jsr     pusha
	ldx     #$04
	jsr     _vram_fill
;
; vram_adr(NAMETABLE_A);
;
	ldx     #$20
	lda     #$00
	jsr     _vram_adr
;
; vram_write(TitleScreen, 1024);
;
	lda     #<(_TitleScreen)
	ldx     #>(_TitleScreen)
	jsr     pushax
	ldx     #$04
	lda     #$00
	jsr     _vram_write
;
; vram_adr(NTADR_A(12, 5)); // places text at screen position
;
	ldx     #$20
	lda     #$AC
	jsr     _vram_adr
;
; vram_write(text, sizeof(text) - 1); //write Title to screen
;
	lda     #<(_text)
	ldx     #>(_text)
	jsr     pushax
	ldx     #$00
	lda     #$08
	jsr     _vram_write
;
; vram_adr(NTADR_A(10, 18));
;
	ldx     #$22
	lda     #$4A
	jsr     _vram_adr
;
; vram_write(titlePrompt, sizeof(titlePrompt) - 1);
;
	lda     #<(_titlePrompt)
	ldx     #>(_titlePrompt)
	jsr     pushax
	ldx     #$00
	lda     #$0B
	jsr     _vram_write
;
; ppu_on_all(); // turn on screen
;
	jmp     _ppu_on_all

.endproc

; ---------------------------------------------------------------
; void __near__ GameLoop (void)
; ---------------------------------------------------------------

.segment	"CODE"

.proc	_GameLoop: near

.segment	"CODE"

;
; ppu_off(); 
;
	jsr     _ppu_off
;
; oam_clear();
;
	jsr     _oam_clear
;
; pal_bg(palette);
;
	lda     #<(_palette)
	ldx     #>(_palette)
	jsr     _pal_bg
;
; pal_spr((const char*)spritePalette);
;
	lda     #<(_spritePalette)
	ldx     #>(_spritePalette)
	jsr     _pal_spr
;
; switch(currentLevel)
;
	lda     _currentLevel
	ldx     _currentLevel+1
;
; }
;
	cpx     #$00
	bne     L0003
	cmp     #$01
	beq     L0004
	cmp     #$02
	beq     L0005
	cmp     #$03
	beq     L0006
	jmp     L0003
;
; currentLevelData = Level1;
;
L0004:	lda     #>(_Level1)
	sta     _currentLevelData+1
	lda     #<(_Level1)
	sta     _currentLevelData
;
; player.deathCounter = 0;
;
	txa
	sta     _player+23
	sta     _player+23+1
;
; ChangeMusic(4);
;
	lda     #$04
;
; break;
;
	jmp     L0007
;
; currentLevelData = Level2;
;
L0005:	lda     #>(_Level2)
	sta     _currentLevelData+1
	lda     #<(_Level2)
	sta     _currentLevelData
;
; ChangeMusic(1);
;
	lda     #$01
;
; break;
;
	jmp     L0007
;
; currentLevelData = Level3;
;
L0006:	lda     #>(_Level3)
	sta     _currentLevelData+1
	lda     #<(_Level3)
	sta     _currentLevelData
;
; ChangeMusic(0);
;
	txa
L0007:	jsr     _ChangeMusic
;
; vram_adr(NAMETABLE_A);      
;
L0003:	ldx     #$20
	lda     #$00
	jsr     _vram_adr
;
; vram_fill(0x00, 1024);
;
	lda     #$00
	jsr     pusha
	ldx     #$04
	jsr     _vram_fill
;
; vram_adr(NAMETABLE_A);      
;
	ldx     #$20
	lda     #$00
	jsr     _vram_adr
;
; vram_write(LoadingScreen, 1024);
;
	lda     #<(_LoadingScreen)
	ldx     #>(_LoadingScreen)
	jsr     pushax
	ldx     #$04
	lda     #$00
	jsr     _vram_write
;
; vram_adr(NTADR_A(11, 16));
;
	ldx     #$22
	lda     #$0B
	jsr     _vram_adr
;
; vram_write(loadingText, sizeof(loadingText) - 1); 
;
	lda     #<(_loadingText)
	ldx     #>(_loadingText)
	jsr     pushax
	ldx     #$00
	lda     #$0A
	jsr     _vram_write
;
; ppu_on_all();
;
	jsr     _ppu_on_all
;
; delay(60);
;
	lda     #$3C
	jsr     _delay
;
; ppu_off();
;
	jsr     _ppu_off
;
; vram_adr(NAMETABLE_A);      
;
	ldx     #$20
	lda     #$00
	jsr     _vram_adr
;
; vram_write(currentLevelData, 1024);
;
	lda     _currentLevelData
	ldx     _currentLevelData+1
	jsr     pushax
	ldx     #$04
	lda     #$00
	jsr     _vram_write
;
; WriteDeathCounter();
;
	jsr     _WriteDeathCounter
;
; ppu_on_all();
;
	jmp     _ppu_on_all

.endproc

; ---------------------------------------------------------------
; void __near__ MovePlayer (void)
; ---------------------------------------------------------------

.segment	"CODE"

.proc	_MovePlayer: near

.segment	"CODE"

;
; if (inputPad & PAD_A && !player.isDashing) 
;
	lda     _inputPad
	and     #$80
	beq     L0002
	lda     _player+16
	ora     _player+16+1
	bne     L0002
;
; player.jumpBufferTimer = JUMP_BUFFER_FRAMES;
;
	lda     #$0A
	sta     _player+15
;
; if (OnGround()) 
;
L0002:	jsr     _OnGround
	tax
	beq     L005F
;
; player.coyoteTime = COYOTE_FRAMES;
;
	lda     #$0A
	sta     _player+2
;
; player.hasDashedInAir = 0;
;
	lda     #$00
	sta     _player+20
;
; else if (player.coyoteTime > 0) 
;
	jmp     L0060
L005F:	lda     _player+2
	beq     L0060
;
; player.coyoteTime--;
;
	dec     _player+2
;
; if (movementPad & PAD_LEFT)
;
L0060:	lda     _movementPad
	and     #$02
	beq     L0061
;
; if (!CheckIfCollidableTile(currentLevelData[GetTileIndex(player.left, player.y + 1)]))
;
	lda     _currentLevelData
	ldx     _currentLevelData+1
	jsr     pushax
	lda     _player+3
	jsr     pusha
	lda     _player+1
	clc
	adc     #$01
	jsr     _GetTileIndex
	jsr     tosaddax
	sta     ptr1
	stx     ptr1+1
	ldy     #$00
	lda     (ptr1),y
	jsr     _CheckIfCollidableTile
	tax
	bne     L0061
;
; player.x -= PLAYER_SPEED;
;
	lda     _player
	sec
	sbc     #$02
	sta     _player
;
; player.facingRight = 0;
;
	stx     _player+11
;
; if (movementPad & PAD_RIGHT)
;
L0061:	lda     _movementPad
	and     #$01
	beq     L0062
;
; if (!CheckIfCollidableTile(currentLevelData[GetTileIndex(player.right, player.y + 1)]))
;
	lda     _currentLevelData
	ldx     _currentLevelData+1
	jsr     pushax
	lda     _player+5
	jsr     pusha
	lda     _player+1
	clc
	adc     #$01
	jsr     _GetTileIndex
	jsr     tosaddax
	sta     ptr1
	stx     ptr1+1
	ldy     #$00
	lda     (ptr1),y
	jsr     _CheckIfCollidableTile
	tax
	bne     L0062
;
; player.x += PLAYER_SPEED;
;
	lda     #$02
	clc
	adc     _player
	sta     _player
;
; player.facingRight = 1;
;
	lda     #$01
	sta     _player+11
;
; if ((inputPad & PAD_B) && !player.isDashing && !(player.dashCooldown > 0)) 
;
L0062:	lda     _inputPad
	and     #$40
	beq     L0069
	lda     _player+16
	ora     _player+16+1
	bne     L0069
	lda     _player+19
	bne     L0069
;
; if (OnGround() || !player.hasDashedInAir)
;
	jsr     _OnGround
	tax
	bne     L0066
	lda     _player+20
	bne     L006A
;
; player.dashDirection = (movementPad & PAD_LEFT ? -1 : movementPad & PAD_RIGHT ? 1 : 0);
;
L0066:	lda     _movementPad
	and     #$02
	beq     L0067
	ldx     #$FF
	txa
	jmp     L0019
L0067:	lda     _movementPad
	ldx     #$00
	and     #$01
	beq     L0019
	lda     #$01
L0019:	sta     _player+21
	stx     _player+21+1
;
; player.isDashing = 1;
;
	ldx     #$00
	lda     #$01
	sta     _player+16
	stx     _player+16+1
;
; player.dashTimer = DASH_DURATION;
;
	lda     #$06
	sta     _player+18
;
; if (!OnGround())
;
	jsr     _OnGround
	tax
	bne     L006A
;
; player.hasDashedInAir = 1;
;
	lda     #$01
	sta     _player+20
;
; else if (player.dashCooldown > 0) 
;
	jmp     L006A
L0069:	lda     _player+19
	beq     L006A
;
; player.dashCooldown--;
;
	dec     _player+19
;
; if (player.jumpBufferTimer > 0 && !player.isJumping && player.coyoteTime > 0) 
;
L006A:	lda     _player+15
	beq     L006E
	lda     _player+14
	bne     L006E
	lda     _player+2
	beq     L006E
;
; sfx_play(2 , 0);
;
	lda     #$02
	jsr     pusha
	lda     #$00
	jsr     _sfx_play
;
; player.isJumping = 1;
;
	lda     #$01
	sta     _player+14
;
; player.velocityY = JUMP_VELOCITY;
;
	ldx     #$FF
	lda     #$F6
	sta     _player+12
	stx     _player+12+1
;
; player.jumpBufferTimer = 0;
;
	lda     #$00
	sta     _player+15
;
; else if (player.jumpBufferTimer > 0) 
;
	jmp     L0022
L006E:	lda     _player+15
	beq     L0022
;
; player.jumpBufferTimer--;
;
	dec     _player+15
;
; if (player.isDashing) 
;
L0022:	lda     _player+16
	ora     _player+16+1
	jeq     L0023
;
; sfx_play(0 , 0);
;
	lda     #$00
	jsr     pusha
	jsr     _sfx_play
;
; player.dashTimer--;
;
	dec     _player+18
;
; for (i = 0; i < DASH_SPEED; i++) 
;
	lda     #$00
	sta     _i
	sta     _i+1
L0024:	lda     _i
	cmp     #$05
	lda     _i+1
	sbc     #$00
	bvc     L0028
	eor     #$80
L0028:	jpl     L0070
;
; int nextX = (player.dashDirection == 1) ? player.right + 2 : player.left - 2;
;
	lda     _player+21+1
	bne     L002B
	lda     _player+21
	cmp     #$01
	bne     L002B
	lda     _player+5
	ldx     _player+5+1
	clc
	adc     #$02
	bcc     L002E
	inx
	jmp     L002E
L002B:	lda     _player+3
	ldx     _player+3+1
	sec
	sbc     #$02
	bcs     L002E
	dex
L002E:	jsr     pushax
;
; if (!CheckIfCollidableTile(currentLevelData[GetTileIndex(nextX, player.top)]) &&
;
	lda     _currentLevelData
	ldx     _currentLevelData+1
	jsr     pushax
	ldy     #$02
	lda     (sp),y
	jsr     pusha
	lda     _player+7
	jsr     _GetTileIndex
	jsr     tosaddax
	sta     ptr1
	stx     ptr1+1
	ldy     #$00
	lda     (ptr1),y
	jsr     _CheckIfCollidableTile
	tax
	bne     L002F
;
; !CheckIfCollidableTile(currentLevelData[GetTileIndex(nextX, player.bottom)]))
;
	lda     _currentLevelData
	ldx     _currentLevelData+1
	jsr     pushax
	ldy     #$02
	lda     (sp),y
	jsr     pusha
	lda     _player+9
	jsr     _GetTileIndex
	jsr     tosaddax
	sta     ptr1
	stx     ptr1+1
	ldy     #$00
	lda     (ptr1),y
	jsr     _CheckIfCollidableTile
	tax
	bne     L002F
;
; player.x += player.dashDirection;
;
	lda     _player+21
	clc
	adc     _player
	sta     _player
;
; }
;
L002F:	jsr     incsp2
;
; for (i = 0; i < DASH_SPEED; i++) 
;
	inc     _i
	jne     L0024
	inc     _i+1
	jmp     L0024
;
; if (player.dashTimer <= 0) 
;
L0070:	lda     _player+18
	jne     L0047
;
; DashEnd();
;
	jsr     _DashEnd
;
; else 
;
	jmp     L0047
;
; if (player.isJumping) 
;
L0023:	lda     _player+14
	jeq     L0035
;
; player.velocityY += GRAVITY;
;
	inc     _player+12
	bne     L0036
	inc     _player+12+1
;
; if (player.velocityY < 0) 
;
L0036:	ldx     _player+12+1
	cpx     #$80
	bcc     L0038
;
; if (CheckIfCollidableTile(currentLevelData[GetTileIndex(player.left + 2, player.top)]) ||
;
	lda     _currentLevelData
	ldx     _currentLevelData+1
	jsr     pushax
	lda     _player+3
	clc
	adc     #$02
	jsr     pusha
	lda     _player+7
	jsr     _GetTileIndex
	jsr     tosaddax
	sta     ptr1
	stx     ptr1+1
	ldy     #$00
	lda     (ptr1),y
	jsr     _CheckIfCollidableTile
	tax
	bne     L003A
;
; CheckIfCollidableTile(currentLevelData[GetTileIndex(player.right - 2, player.top)]))
;
	lda     _currentLevelData
	ldx     _currentLevelData+1
	jsr     pushax
	lda     _player+5
	sec
	sbc     #$02
	jsr     pusha
	lda     _player+7
	jsr     _GetTileIndex
	jsr     tosaddax
	sta     ptr1
	stx     ptr1+1
	ldy     #$00
	lda     (ptr1),y
	jsr     _CheckIfCollidableTile
	tax
	beq     L0038
;
; player.velocityY = 0;
;
L003A:	lda     #$00
	sta     _player+12
	sta     _player+12+1
;
; player.y += 1;
;
	inc     _player+1
;
; if (player.velocityY > MAX_FALL_SPEED)
;
L0038:	lda     _player+12
	cmp     #$05
	lda     _player+12+1
	sbc     #$00
	bvs     L003E
	eor     #$80
L003E:	bpl     L003D
;
; player.velocityY = MAX_FALL_SPEED;
;
	ldx     #$00
	lda     #$04
	sta     _player+12
	stx     _player+12+1
;
; player.y += player.velocityY;
;
L003D:	lda     _player+12
	clc
	adc     _player+1
	sta     _player+1
;
; if (player.velocityY >= 0 && OnGround()) 
;
	ldx     _player+12+1
	bmi     L0047
	jsr     _OnGround
	tax
	bne     L0045
	jmp     L0047
;
; player.y -= 1;
;
L0043:	dec     _player+1
;
; UpdateColliderPositions();
;
	jsr     _UpdateColliderPositions
;
; while (OnGround()) 
;
L0045:	jsr     _OnGround
	tax
	bne     L0043
;
; player.y += 1;
;
	inc     _player+1
;
; UpdateColliderPositions();
;
	jsr     _UpdateColliderPositions
;
; player.velocityY = 0;
;
	lda     #$00
	sta     _player+12
	sta     _player+12+1
;
; player.isJumping = 0;
;
	sta     _player+14
;
; player.hasDashedInAir = 0;
;
	sta     _player+20
;
; else 
;
	jmp     L0047
;
; if (!OnGround()) 
;
L0035:	jsr     _OnGround
	tax
	bne     L0047
;
; player.isJumping = 1;
;
	lda     #$01
	sta     _player+14
;
; if (player.damageTimer > 0)
;
L0047:	lda     _player+25
	ora     _player+25+1
	beq     L004B
;
; player.damageTimer--;
;
	lda     _player+25
	bne     L004A
	dec     _player+25+1
L004A:	dec     _player+25
;
; if (player.damageTimer == 0)
;
	lda     _player+25
	ora     _player+25+1
	bne     L004B
;
; ResetLevel();
;
	jsr     _ResetLevel
;
; if (CheckIfSpikes(currentLevelData[GetTileIndex(player.left + 6, player.bottom - 4)]) ||
;
L004B:	lda     _currentLevelData
	ldx     _currentLevelData+1
	jsr     pushax
	lda     _player+3
	clc
	adc     #$06
	jsr     pusha
	lda     _player+9
	sec
	sbc     #$04
	jsr     _GetTileIndex
	jsr     tosaddax
	sta     ptr1
	stx     ptr1+1
	ldy     #$00
	lda     (ptr1),y
	jsr     _CheckIfSpikes
	tax
	jne     L0050
;
; CheckIfSpikes(currentLevelData[GetTileIndex(player.right - 6, player.bottom - 4)]) ||
;
	lda     _currentLevelData
	ldx     _currentLevelData+1
	jsr     pushax
	lda     _player+5
	sec
	sbc     #$06
	jsr     pusha
	lda     _player+9
	sec
	sbc     #$04
	jsr     _GetTileIndex
	jsr     tosaddax
	sta     ptr1
	stx     ptr1+1
	ldy     #$00
	lda     (ptr1),y
	jsr     _CheckIfSpikes
	tax
	bne     L0050
;
; CheckIfSpikes(currentLevelData[GetTileIndex(player.left + 6, player.top + 4)]) ||
;
	lda     _currentLevelData
	ldx     _currentLevelData+1
	jsr     pushax
	lda     _player+3
	clc
	adc     #$06
	jsr     pusha
	lda     _player+7
	clc
	adc     #$04
	jsr     _GetTileIndex
	jsr     tosaddax
	sta     ptr1
	stx     ptr1+1
	ldy     #$00
	lda     (ptr1),y
	jsr     _CheckIfSpikes
	tax
	bne     L0050
;
; CheckIfSpikes(currentLevelData[GetTileIndex(player.right - 6, player.top + 4)]))
;
	lda     _currentLevelData
	ldx     _currentLevelData+1
	jsr     pushax
	lda     _player+5
	sec
	sbc     #$06
	jsr     pusha
	lda     _player+7
	clc
	adc     #$04
	jsr     _GetTileIndex
	jsr     tosaddax
	sta     ptr1
	stx     ptr1+1
	ldy     #$00
	lda     (ptr1),y
	jsr     _CheckIfSpikes
	tax
	beq     L0058
;
; if (player.damageTimer == 0)
;
L0050:	lda     _player+25
	ora     _player+25+1
	bne     L0058
;
; player.damageTimer = DAMAGE_TIMER;
;
	sta     _player+25+1
	lda     #$14
	sta     _player+25
;
; if (player.bottom > 240) 
;
L0058:	lda     _player+9
	cmp     #$F1
	lda     _player+9+1
	sbc     #$00
	bvs     L005B
	eor     #$80
L005B:	bpl     L005A
;
; ResetLevel();
;
	jmp     _ResetLevel
;
; }
;
L005A:	rts

.endproc

; ---------------------------------------------------------------
; void __near__ DrawPlayer (void)
; ---------------------------------------------------------------

.segment	"CODE"

.proc	_DrawPlayer: near

.segment	"CODE"

;
; unsigned char playerAttributes = player.isDashing ? 0x03 :
;
	lda     _player+16
	ora     _player+16+1
	beq     L0002
	lda     #$03
	jmp     L0038
;
; player.damageTimer > 0 && player.damageTimer % 2 == 0 ? 0x02 :
;
L0002:	lda     _player+25
	ora     _player+25+1
	beq     L0009
	lda     _player+25
	and     #$01
	bne     L0009
	lda     #$02
	jmp     L0038
;
; player.damageTimer > 0 && player.damageTimer % 2 == 1 ? 0x00 : 0x01;
;
L0009:	lda     _player+25
	ora     _player+25+1
	beq     L0037
	lda     _player+25
	and     #$01
	cmp     #$01
	bne     L0037
	lda     #$00
	jmp     L0038
L0037:	lda     #$01
L0038:	jsr     pusha
;
; if (!player.facingRight)
;
	lda     _player+11
	bne     L0012
;
; playerAttributes |= 0x40;
;
	tay
	lda     (sp),y
	ora     #$40
	sta     (sp),y
;
; oam_clear();
;
L0012:	jsr     _oam_clear
;
; if (currentGameState != GAME_LOOP)
;
	lda     _currentGameState
	cmp     #$01
;
; return;
;
	jne     L0027
;
; UpdateColliderPositions();
;
	jsr     _UpdateColliderPositions
;
; if (player.isDashing)
;
	lda     _player+16
	ora     _player+16+1
	jeq     L0014
;
; oam_spr((player.facingRight ? player.left : player.x), player.top, 0x88, playerAttributes);
;
	jsr     decsp3
	lda     _player+11
	beq     L0015
	lda     _player+3
	jmp     L0016
L0015:	lda     _player
L0016:	ldy     #$02
	sta     (sp),y
	lda     _player+7
	dey
	sta     (sp),y
	lda     #$88
	dey
	sta     (sp),y
	ldy     #$03
	lda     (sp),y
	jsr     _oam_spr
;
; oam_spr((player.facingRight ? player.x : player.left), player.top, 0x89, playerAttributes);
;
	jsr     decsp3
	lda     _player+11
	beq     L0017
	lda     _player
	jmp     L0039
L0017:	lda     _player+3
L0039:	ldy     #$02
	sta     (sp),y
	lda     _player+7
	dey
	sta     (sp),y
	lda     #$89
	dey
	sta     (sp),y
	ldy     #$03
	lda     (sp),y
	jsr     _oam_spr
;
; oam_spr((player.facingRight ? player.left : player.x), player.y, 0x98, playerAttributes);
;
	jsr     decsp3
	lda     _player+11
	beq     L0019
	lda     _player+3
	jmp     L001A
L0019:	lda     _player
L001A:	ldy     #$02
	sta     (sp),y
	lda     _player+1
	dey
	sta     (sp),y
	lda     #$98
	dey
	sta     (sp),y
	ldy     #$03
	lda     (sp),y
	jsr     _oam_spr
;
; oam_spr((player.facingRight ? player.x : player.left), player.y, 0x99, playerAttributes);
;
	jsr     decsp3
	lda     _player+11
	beq     L001B
	lda     _player
	jmp     L003A
L001B:	lda     _player+3
L003A:	ldy     #$02
	sta     (sp),y
	lda     _player+1
	dey
	sta     (sp),y
	lda     #$99
;
; else if (player.isJumping)
;
	jmp     L0042
L0014:	lda     _player+14
	jeq     L001E
;
; oam_spr((player.facingRight ? player.left : player.x), player.top, 0x0A, playerAttributes);
;
	jsr     decsp3
	lda     _player+11
	beq     L001F
	lda     _player+3
	jmp     L0020
L001F:	lda     _player
L0020:	ldy     #$02
	sta     (sp),y
	lda     _player+7
	dey
	sta     (sp),y
	lda     #$0A
	dey
	sta     (sp),y
	ldy     #$03
	lda     (sp),y
	jsr     _oam_spr
;
; oam_spr((player.facingRight ? player.x : player.left), player.top, 0x0B, playerAttributes);
;
	jsr     decsp3
	lda     _player+11
	beq     L0021
	lda     _player
	jmp     L003B
L0021:	lda     _player+3
L003B:	ldy     #$02
	sta     (sp),y
	lda     _player+7
	dey
	sta     (sp),y
	lda     #$0B
	dey
	sta     (sp),y
	ldy     #$03
	lda     (sp),y
	jsr     _oam_spr
;
; oam_spr((player.facingRight ? player.left : player.x), player.y, 0x1A, playerAttributes);
;
	jsr     decsp3
	lda     _player+11
	beq     L0023
	lda     _player+3
	jmp     L0024
L0023:	lda     _player
L0024:	ldy     #$02
	sta     (sp),y
	lda     _player+1
	dey
	sta     (sp),y
	lda     #$1A
	dey
	sta     (sp),y
	ldy     #$03
	lda     (sp),y
	jsr     _oam_spr
;
; oam_spr((player.facingRight ? player.x : player.left), player.y, 0x1B, playerAttributes);
;
	jsr     decsp3
	lda     _player+11
	beq     L0025
	lda     _player
	jmp     L003C
L0025:	lda     _player+3
L003C:	ldy     #$02
	sta     (sp),y
	lda     _player+1
	dey
	sta     (sp),y
	lda     #$1B
;
; else
;
	jmp     L0042
;
; oam_spr((player.facingRight ? player.left : player.x), player.top, 0x08, playerAttributes);
;
L001E:	jsr     decsp3
	lda     _player+11
	beq     L0028
	lda     _player+3
	jmp     L0029
L0028:	lda     _player
L0029:	ldy     #$02
	sta     (sp),y
	lda     _player+7
	dey
	sta     (sp),y
	lda     #$08
	dey
	sta     (sp),y
	ldy     #$03
	lda     (sp),y
	jsr     _oam_spr
;
; oam_spr((player.facingRight ? player.x : player.left), player.top, 0x09, playerAttributes);
;
	jsr     decsp3
	lda     _player+11
	beq     L002A
	lda     _player
	jmp     L003D
L002A:	lda     _player+3
L003D:	ldy     #$02
	sta     (sp),y
	lda     _player+7
	dey
	sta     (sp),y
	lda     #$09
	dey
	sta     (sp),y
	ldy     #$03
	lda     (sp),y
	jsr     _oam_spr
;
; oam_spr((player.facingRight ? player.left : player.x), player.y, 0x18, playerAttributes);
;
	jsr     decsp3
	lda     _player+11
	beq     L002C
	lda     _player+3
	jmp     L002D
L002C:	lda     _player
L002D:	ldy     #$02
	sta     (sp),y
	lda     _player+1
	dey
	sta     (sp),y
	lda     #$18
	dey
	sta     (sp),y
	ldy     #$03
	lda     (sp),y
	jsr     _oam_spr
;
; oam_spr((player.facingRight ? player.x : player.left), player.y, 0x19, playerAttributes);
;
	jsr     decsp3
	lda     _player+11
	beq     L002E
	lda     _player
	jmp     L003E
L002E:	lda     _player+3
L003E:	ldy     #$02
	sta     (sp),y
	lda     _player+1
	dey
	sta     (sp),y
	lda     #$19
L0042:	dey
	sta     (sp),y
	ldy     #$03
	lda     (sp),y
	jsr     _oam_spr
;
; }
;
L0027:	jmp     incsp1

.endproc

; ---------------------------------------------------------------
; unsigned int __near__ GetTileIndex (unsigned char playerX, unsigned char playerY)
; ---------------------------------------------------------------

.segment	"CODE"

.proc	_GetTileIndex: near

.segment	"CODE"

;
; {
;
	jsr     pusha
;
; unsigned char tileX = playerX / 8; 
;
	ldy     #$01
	lda     (sp),y
	lsr     a
	lsr     a
	lsr     a
	jsr     pusha
;
; unsigned char tileY = playerY / 8;
;
	ldy     #$01
	lda     (sp),y
	lsr     a
	lsr     a
	lsr     a
	jsr     pusha
;
; unsigned int tileIndex = tileY * 32 + tileX;
;
	ldx     #$00
	lda     (sp,x)
	jsr     shlax4
	stx     tmp1
	asl     a
	rol     tmp1
	sta     ptr1
	ldy     #$01
	lda     (sp),y
	clc
	adc     ptr1
	ldx     tmp1
	bcc     L0002
	inx
L0002:	jsr     pushax
;
; return tileIndex;
;
	ldy     #$01
	lda     (sp),y
	tax
	dey
	lda     (sp),y
;
; }
;
	jmp     incsp6

.endproc

; ---------------------------------------------------------------
; void __near__ CheckIfEnd (void)
; ---------------------------------------------------------------

.segment	"CODE"

.proc	_CheckIfEnd: near

.segment	"CODE"

;
; if (CheckIfGoalTile(currentLevelData[GetTileIndex(player.left + 4, player.bottom)]) ||
;
	lda     _currentLevelData
	ldx     _currentLevelData+1
	jsr     pushax
	lda     _player+3
	clc
	adc     #$04
	jsr     pusha
	lda     _player+9
	jsr     _GetTileIndex
	jsr     tosaddax
	sta     ptr1
	stx     ptr1+1
	ldy     #$00
	lda     (ptr1),y
	jsr     _CheckIfGoalTile
	tax
	bne     L0004
;
; CheckIfGoalTile(currentLevelData[GetTileIndex(player.right - 4, player.bottom)]))
;
	lda     _currentLevelData
	ldx     _currentLevelData+1
	jsr     pushax
	lda     _player+5
	sec
	sbc     #$04
	jsr     pusha
	lda     _player+9
	jsr     _GetTileIndex
	jsr     tosaddax
	sta     ptr1
	stx     ptr1+1
	ldy     #$00
	lda     (ptr1),y
	jsr     _CheckIfGoalTile
	tax
	bne     L0004
	rts
;
; sfx_play(3 , 0);
;
L0004:	lda     #$03
	jsr     pusha
	lda     #$00
	jsr     _sfx_play
;
; SetPlayerValues();
;
	jsr     _SetPlayerValues
;
; if (currentLevel == 3)
;
	lda     _currentLevel+1
	bne     L0007
	lda     _currentLevel
	cmp     #$03
	bne     L0007
;
; currentGameState = END_SCREEN;
;
	lda     #$02
	sta     _currentGameState
;
; DrawEndScreen();
;
	jmp     _DrawEndScreen
;
; currentLevel++;
;
L0007:	inc     _currentLevel
	bne     L000A
	inc     _currentLevel+1
;
; SetPlayerValues();
;
L000A:	jsr     _SetPlayerValues
;
; GameLoop();
;
	jmp     _GameLoop

.endproc

; ---------------------------------------------------------------
; void __near__ DrawEndScreen (void)
; ---------------------------------------------------------------

.segment	"CODE"

.proc	_DrawEndScreen: near

.segment	"CODE"

;
; ppu_off(); // screen off
;
	jsr     _ppu_off
;
; pal_bg(palette); // load the BG palette
;
	lda     #<(_palette)
	ldx     #>(_palette)
	jsr     _pal_bg
;
; oam_clear();
;
	jsr     _oam_clear
;
; currentLevel = 1;
;
	ldx     #$00
	lda     #$01
	sta     _currentLevel
	stx     _currentLevel+1
;
; SetPlayerValues();
;
	jsr     _SetPlayerValues
;
; ChangeMusic(2);
;
	ldx     #$00
	lda     #$02
	jsr     _ChangeMusic
;
; vram_adr(NAMETABLE_A);            // Set VRAM address to start of screen
;
	ldx     #$20
	lda     #$00
	jsr     _vram_adr
;
; vram_fill(0x00, 1024);
;
	lda     #$00
	jsr     pusha
	ldx     #$04
	jsr     _vram_fill
;
; vram_adr(NAMETABLE_A);            // Set VRAM address to start of screen
;
	ldx     #$20
	lda     #$00
	jsr     _vram_adr
;
; vram_write(WinScreen, 1024);
;
	lda     #<(_WinScreen)
	ldx     #>(_WinScreen)
	jsr     pushax
	ldx     #$04
	lda     #$00
	jsr     _vram_write
;
; vram_adr(NTADR_A(12, 6)); // places text at screen position
;
	ldx     #$20
	lda     #$CC
	jsr     _vram_adr
;
; vram_write(endScreenTitle, sizeof(endScreenTitle) - 1); //write Title to screen
;
	lda     #<(_endScreenTitle)
	ldx     #>(_endScreenTitle)
	jsr     pushax
	ldx     #$00
	lda     #$08
	jsr     _vram_write
;
; vram_adr(NTADR_A(11, 19));
;
	ldx     #$22
	lda     #$6B
	jsr     _vram_adr
;
; vram_write(titlePrompt, sizeof(titlePrompt) - 1);
;
	lda     #<(_titlePrompt)
	ldx     #>(_titlePrompt)
	jsr     pushax
	ldx     #$00
	lda     #$0B
	jsr     _vram_write
;
; vram_adr(NTADR_A(10, 21));
;
	ldx     #$22
	lda     #$AA
	jsr     _vram_adr
;
; vram_write(endScreenPrompt, sizeof(endScreenPrompt) - 1);
;
	lda     #<(_endScreenPrompt)
	ldx     #>(_endScreenPrompt)
	jsr     pushax
	ldx     #$00
	lda     #$0D
	jsr     _vram_write
;
; ppu_on_all(); // turn on screen
;
	jmp     _ppu_on_all

.endproc

; ---------------------------------------------------------------
; char __near__ OnGround (void)
; ---------------------------------------------------------------

.segment	"CODE"

.proc	_OnGround: near

.segment	"CODE"

;
; if (player.bottom + 1 >= 240) return 0;
;
	lda     _player+9
	ldx     _player+9+1
	clc
	adc     #$01
	bcc     L0003
	inx
L0003:	cmp     #$F0
	txa
	sbc     #$00
	bvs     L0004
	eor     #$80
L0004:	bpl     L0002
	ldx     #$00
	txa
	rts
;
; return CheckIfCollidableTile(currentLevelData[GetTileIndex(player.right - 6, player.bottom + 1)]) ||
;
L0002:	lda     _currentLevelData
	ldx     _currentLevelData+1
	jsr     pushax
	lda     _player+5
	sec
	sbc     #$06
	jsr     pusha
	lda     _player+9
	clc
	adc     #$01
	jsr     _GetTileIndex
	jsr     tosaddax
	sta     ptr1
	stx     ptr1+1
	ldy     #$00
	lda     (ptr1),y
	jsr     _CheckIfCollidableTile
	tax
	jne     L0007
;
; CheckIfCollidableTile(currentLevelData[GetTileIndex(player.left + 6, player.bottom + 1)]) ||
;
	lda     _currentLevelData
	ldx     _currentLevelData+1
	jsr     pushax
	lda     _player+3
	clc
	adc     #$06
	jsr     pusha
	lda     _player+9
	clc
	adc     #$01
	jsr     _GetTileIndex
	jsr     tosaddax
	sta     ptr1
	stx     ptr1+1
	ldy     #$00
	lda     (ptr1),y
	jsr     _CheckIfCollidableTile
	tax
	bne     L0007
;
; CheckIfPlatformTile(currentLevelData[GetTileIndex(player.right - 6, player.bottom + 1)]) ||
;
	lda     _currentLevelData
	ldx     _currentLevelData+1
	jsr     pushax
	lda     _player+5
	sec
	sbc     #$06
	jsr     pusha
	lda     _player+9
	clc
	adc     #$01
	jsr     _GetTileIndex
	jsr     tosaddax
	sta     ptr1
	stx     ptr1+1
	ldy     #$00
	lda     (ptr1),y
	jsr     _CheckIfPlatformTile
	tax
	bne     L0007
;
; CheckIfPlatformTile(currentLevelData[GetTileIndex(player.left + 6, player.bottom + 1)]);
;
	lda     _currentLevelData
	ldx     _currentLevelData+1
	jsr     pushax
	lda     _player+3
	clc
	adc     #$06
	jsr     pusha
	lda     _player+9
	clc
	adc     #$01
	jsr     _GetTileIndex
	jsr     tosaddax
	sta     ptr1
	stx     ptr1+1
	ldy     #$00
	lda     (ptr1),y
	jsr     _CheckIfPlatformTile
	tax
	beq     L000F
L0007:	lda     #$01
	ldx     #$00
;
; }
;
L000F:	rts

.endproc

; ---------------------------------------------------------------
; char __near__ CheckIfCollidableTile (unsigned char tile)
; ---------------------------------------------------------------

.segment	"CODE"

.proc	_CheckIfCollidableTile: near

.segment	"CODE"

;
; {
;
	jsr     pusha
;
; return tile == 0x10 || tile == 0x11 || tile == 0x12 || tile == 0x13
;
	ldy     #$00
	lda     (sp),y
	cmp     #$10
	jeq     L0004
	cmp     #$11
	jeq     L0004
	cmp     #$12
	jeq     L0004
;
; || tile == 0x80 || tile == 0x81 || tile == 0x82 || tile == 0x83
;
	cmp     #$13
	jeq     L0004
	cmp     #$80
	jeq     L0004
	cmp     #$81
	jeq     L0004
	cmp     #$82
	beq     L0004
;
; || tile == 0x8E || tile == 0x8F || tile == 0x9E || tile == 0x9F 
;
	cmp     #$83
	beq     L0004
	cmp     #$8E
	beq     L0004
	cmp     #$8F
	beq     L0004
	cmp     #$9E
	beq     L0004
;
; || tile == 0x90 || tile == 0x91 || tile == 0x92 || tile == 0x93
;
	cmp     #$9F
	beq     L0004
	cmp     #$90
	beq     L0004
	cmp     #$91
	beq     L0004
	cmp     #$92
	beq     L0004
;
; || tile == 0xA0 || tile == 0xA1 || tile == 0xA4 || tile == 0xA5 
;
	cmp     #$93
	beq     L0004
	cmp     #$A0
	beq     L0004
	cmp     #$A1
	beq     L0004
	cmp     #$A4
	beq     L0004
;
; || tile == 0xA6 || tile == 0xA7 || tile == 0xA8 || tile == 0xA9 
;
	cmp     #$A5
	beq     L0004
	cmp     #$A6
	beq     L0004
	cmp     #$A7
	beq     L0004
	cmp     #$A8
	beq     L0004
;
; || tile == 0xB0 || tile == 0xB1 || tile == 0xB4 || tile == 0xB5 
;
	cmp     #$A9
	beq     L0004
	cmp     #$B0
	beq     L0004
	cmp     #$B1
	beq     L0004
	cmp     #$B4
	beq     L0004
;
; || tile == 0xB6 || tile == 0xB7 || tile == 0xB8 || tile == 0xB9
;
	cmp     #$B5
	beq     L0004
	cmp     #$B6
	beq     L0004
	cmp     #$B7
	beq     L0004
	cmp     #$B8
	beq     L0004
;
; || tile == 0xEE || tile == 0xEF || tile == 0xFE || tile == 0xFF;
;
	cmp     #$B9
	beq     L0004
	cmp     #$EE
	beq     L0004
	cmp     #$EF
	beq     L0004
	cmp     #$FE
	beq     L0004
	cmp     #$FF
	beq     L0004
	ldx     #$00
	txa
	jmp     incsp1
L0004:	lda     #$01
	ldx     #$00
;
; }
;
	jmp     incsp1

.endproc

; ---------------------------------------------------------------
; char __near__ CheckIfGoalTile (unsigned char tile)
; ---------------------------------------------------------------

.segment	"CODE"

.proc	_CheckIfGoalTile: near

.segment	"CODE"

;
; {
;
	jsr     pusha
;
; return tile == 0x04 || tile == 0x05 || tile == 0x14 || tile == 0x15;
;
	ldy     #$00
	lda     (sp),y
	cmp     #$04
	beq     L0004
	cmp     #$05
	beq     L0004
	cmp     #$14
	beq     L0004
	cmp     #$15
	beq     L0004
	ldx     #$00
	txa
	jmp     incsp1
L0004:	lda     #$01
	ldx     #$00
;
; }
;
	jmp     incsp1

.endproc

; ---------------------------------------------------------------
; void __near__ UpdateColliderPositions (void)
; ---------------------------------------------------------------

.segment	"CODE"

.proc	_UpdateColliderPositions: near

.segment	"CODE"

;
; player.left = player.x - 8;
;
	ldx     #$00
	lda     _player
	sec
	sbc     #$08
	bcs     L0002
	dex
L0002:	sta     _player+3
	stx     _player+3+1
;
; player.right = player.x + 8;
;
	ldx     #$00
	lda     _player
	clc
	adc     #$08
	bcc     L0003
	inx
L0003:	sta     _player+5
	stx     _player+5+1
;
; player.top = player.y - 8;
;
	ldx     #$00
	lda     _player+1
	sec
	sbc     #$08
	bcs     L0004
	dex
L0004:	sta     _player+7
	stx     _player+7+1
;
; player.bottom = player.y + 8;
;
	ldx     #$00
	lda     _player+1
	clc
	adc     #$08
	bcc     L0005
	inx
L0005:	sta     _player+9
	stx     _player+9+1
;
; }
;
	rts

.endproc

; ---------------------------------------------------------------
; void __near__ DashEnd (void)
; ---------------------------------------------------------------

.segment	"CODE"

.proc	_DashEnd: near

.segment	"CODE"

;
; if (player.isDashing)
;
	lda     _player+16
	ora     _player+16+1
	beq     L0002
;
; player.isDashing = 0;
;
	lda     #$00
	sta     _player+16
	sta     _player+16+1
;
; player.dashCooldown = DASH_COOLDOWN;
;
	lda     #$1E
	sta     _player+19
;
; }
;
L0002:	rts

.endproc

; ---------------------------------------------------------------
; char __near__ CheckIfPlatformTile (unsigned char tile)
; ---------------------------------------------------------------

.segment	"CODE"

.proc	_CheckIfPlatformTile: near

.segment	"CODE"

;
; {
;
	jsr     pusha
;
; return tile == 0x84 || tile == 0x85 || tile == 0x94 || tile == 0x95 ||
;
	ldy     #$00
	lda     (sp),y
	cmp     #$84
	beq     L0004
	cmp     #$85
	beq     L0004
	cmp     #$94
	beq     L0004
	cmp     #$95
	beq     L0004
;
; tile == 0xE4 || tile == 0xE5 || tile == 0xE6 || tile == 0xF4 ||
;
	cmp     #$E4
	beq     L0004
	cmp     #$E5
	beq     L0004
	cmp     #$E6
	beq     L0004
	cmp     #$F4
	beq     L0004
;
; tile == 0xF5 || tile == 0xF6;
;
	cmp     #$F5
	beq     L0004
	cmp     #$F6
	beq     L0004
	ldx     #$00
	txa
	jmp     incsp1
L0004:	lda     #$01
	ldx     #$00
;
; }
;
	jmp     incsp1

.endproc

; ---------------------------------------------------------------
; void __near__ SetPlayerValues (void)
; ---------------------------------------------------------------

.segment	"CODE"

.proc	_SetPlayerValues: near

.segment	"CODE"

;
; player.x = currentLevel == 3 ? 232 : 30;
;
	lda     _currentLevel+1
	bne     L0003
	lda     _currentLevel
	cmp     #$03
	bne     L0003
	lda     #$E8
	jmp     L0008
L0003:	lda     #$1E
L0008:	sta     _player
;
; player.y = currentLevel == 3 ? 24 : 215;
;
	lda     _currentLevel+1
	bne     L0009
	lda     _currentLevel
	cmp     #$03
	bne     L0009
	lda     #$18
	jmp     L000A
L0009:	lda     #$D7
L000A:	sta     _player+1
;
; player.coyoteTime = 0;
;
	lda     #$00
	sta     _player+2
;
; player.left = 0;
;
	sta     _player+3
	sta     _player+3+1
;
; player.right = 0;
;
	sta     _player+5
	sta     _player+5+1
;
; player.top = 0;
;
	sta     _player+7
	sta     _player+7+1
;
; player.bottom = 0;
;
	sta     _player+9
	sta     _player+9+1
;
; player.facingRight = 1;
;
	lda     #$01
	sta     _player+11
;
; player.velocityY = 0;
;
	lda     #$00
	sta     _player+12
	sta     _player+12+1
;
; player.isJumping = 0;
;
	sta     _player+14
;
; player.jumpBufferTimer = 0; 
;
	sta     _player+15
;
; player.isDashing = 0;
;
	sta     _player+16
	sta     _player+16+1
;
; player.dashTimer = 0;
;
	sta     _player+18
;
; player.dashCooldown = 0;
;
	sta     _player+19
;
; player.hasDashedInAir = 0;
;
	sta     _player+20
;
; player.dashDirection = 0;
;
	sta     _player+21
	sta     _player+21+1
;
; player.damageTimer = 0;
;
	sta     _player+25
	sta     _player+25+1
;
; }
;
	rts

.endproc

; ---------------------------------------------------------------
; void __near__ ResetLevel (void)
; ---------------------------------------------------------------

.segment	"CODE"

.proc	_ResetLevel: near

.segment	"CODE"

;
; sfx_play(1 , 0);
;
	lda     #$01
	jsr     pusha
	lda     #$00
	jsr     _sfx_play
;
; ppu_off(); // screen off
;
	jsr     _ppu_off
;
; pal_bg(palette); // load the BG palette
;
	lda     #<(_palette)
	ldx     #>(_palette)
	jsr     _pal_bg
;
; oam_clear();
;
	jsr     _oam_clear
;
; player.deathCounter++;
;
	inc     _player+23
	bne     L0002
	inc     _player+23+1
;
; vram_adr(NAMETABLE_A);      
;
L0002:	ldx     #$20
	lda     #$00
	jsr     _vram_adr
;
; vram_fill(0x00, 1024);
;
	lda     #$00
	jsr     pusha
	ldx     #$04
	jsr     _vram_fill
;
; vram_adr(NAMETABLE_A);      
;
	ldx     #$20
	lda     #$00
	jsr     _vram_adr
;
; vram_write(DeathScreen, 1024);
;
	lda     #<(_DeathScreen)
	ldx     #>(_DeathScreen)
	jsr     pushax
	ldx     #$04
	lda     #$00
	jsr     _vram_write
;
; vram_adr(NTADR_A(10, 8));
;
	ldx     #$21
	lda     #$0A
	jsr     _vram_adr
;
; vram_write(respawningText, sizeof(respawningText) - 1); 
;
	lda     #<(_respawningText)
	ldx     #>(_respawningText)
	jsr     pushax
	ldx     #$00
	lda     #$0D
	jsr     _vram_write
;
; ppu_on_all();
;
	jsr     _ppu_on_all
;
; delay(60);
;
	lda     #$3C
	jsr     _delay
;
; ppu_off();
;
	jsr     _ppu_off
;
; vram_adr(NAMETABLE_A);      
;
	ldx     #$20
	lda     #$00
	jsr     _vram_adr
;
; vram_write(currentLevelData, 1024);
;
	lda     _currentLevelData
	ldx     _currentLevelData+1
	jsr     pushax
	ldx     #$04
	lda     #$00
	jsr     _vram_write
;
; WriteDeathCounter();
;
	jsr     _WriteDeathCounter
;
; SetPlayerValues();
;
	jsr     _SetPlayerValues
;
; ppu_on_all();
;
	jmp     _ppu_on_all

.endproc

; ---------------------------------------------------------------
; char __near__ CheckIfSpikes (unsigned char tile)
; ---------------------------------------------------------------

.segment	"CODE"

.proc	_CheckIfSpikes: near

.segment	"CODE"

;
; {
;
	jsr     pusha
;
; return tile == 0x8A || tile == 0x8B || tile == 0x8C || tile == 0x8D ||
;
	ldy     #$00
	lda     (sp),y
	cmp     #$8A
	beq     L0004
	cmp     #$8B
	beq     L0004
	cmp     #$8C
	beq     L0004
	cmp     #$8D
	beq     L0004
;
; tile == 0x9A || tile == 0x9B || tile == 0xAA || tile == 0xAB ||
;
	cmp     #$9A
	beq     L0004
	cmp     #$9B
	beq     L0004
	cmp     #$AA
	beq     L0004
	cmp     #$AB
	beq     L0004
;
; tile == 0xC8 || tile == 0xC9 || tile == 0xD8 || tile == 0xD9;
;
	cmp     #$C8
	beq     L0004
	cmp     #$C9
	beq     L0004
	cmp     #$D8
	beq     L0004
	cmp     #$D9
	beq     L0004
	ldx     #$00
	txa
	jmp     incsp1
L0004:	lda     #$01
	ldx     #$00
;
; }
;
	jmp     incsp1

.endproc

; ---------------------------------------------------------------
; void __near__ WriteDeathCounter (void)
; ---------------------------------------------------------------

.segment	"CODE"

.proc	_WriteDeathCounter: near

.segment	"CODE"

;
; vram_adr(NTADR_A(1, 1));
;
	ldx     #$20
	lda     #$21
	jsr     _vram_adr
;
; vram_write(DeathCounter, sizeof(DeathCounter));
;
	lda     #<(_DeathCounter)
	ldx     #>(_DeathCounter)
	jsr     pushax
	ldx     #$00
	lda     #$0E
	jsr     _vram_write
;
; vram_adr(NTADR_A(17, 1));
;
	ldx     #$20
	lda     #$31
	jsr     _vram_adr
;
; sprintf(deathCounterText, "%d", player.deathCounter);
;
	jsr     decsp4
	lda     #<(_deathCounterText)
	ldy     #$02
	sta     (sp),y
	iny
	lda     #>(_deathCounterText)
	sta     (sp),y
	lda     #<(S0009)
	ldy     #$00
	sta     (sp),y
	iny
	lda     #>(S0009)
	sta     (sp),y
	lda     _player+23
	ldx     _player+23+1
	jsr     pushax
	ldy     #$06
	jsr     _sprintf
;
; vram_write((const unsigned char*)deathCounterText, sizeof(deathCounterText));
;
	lda     #<(_deathCounterText)
	ldx     #>(_deathCounterText)
	jsr     pushax
	ldx     #$00
	lda     #$06
	jmp     _vram_write

.endproc

; ---------------------------------------------------------------
; void __near__ ChangeMusic (unsigned int trackToChangeTo)
; ---------------------------------------------------------------

.segment	"CODE"

.proc	_ChangeMusic: near

.segment	"CODE"

;
; {
;
	jsr     pushax
;
; unsigned int currentSpeed = MAX_MUSIC_SPEED;
;
	lda     #$0C
	jsr     pusha0
;
; while (currentSpeed > MIN_MUSIC_SPEED)
;
	jmp     L0004
;
; set_music_speed(currentSpeed);
;
L0002:	ldy     #$00
	lda     (sp),y
	jsr     _set_music_speed
;
; delay(6);
;
	lda     #$06
	jsr     _delay
;
; currentSpeed--; 
;
	ldx     #$00
	lda     #$01
	jsr     subeq0sp
;
; while (currentSpeed > MIN_MUSIC_SPEED)
;
L0004:	ldy     #$00
	lda     (sp),y
	iny
	ora     (sp),y
	bne     L0002
;
; music_play(trackToChangeTo);
;
	iny
	lda     (sp),y
	jsr     _music_play
;
; set_music_speed(MAX_FALL_SPEED);
;
	lda     #$04
	jsr     _set_music_speed
;
; }
;
	jmp     incsp4

.endproc

; ---------------------------------------------------------------
; void __near__ main (void)
; ---------------------------------------------------------------

.segment	"CODE"

.proc	_main: near

.segment	"CODE"

;
; SetPlayerValues();
;
	jsr     _SetPlayerValues
;
; DrawTitleScreen();
;
	jsr     _DrawTitleScreen
;
; music_play(3);
;
	lda     #$03
	jsr     _music_play
;
; ppu_wait_nmi();
;
L0002:	jsr     _ppu_wait_nmi
;
; movementPad = pad_poll(0);
;
	lda     #$00
	jsr     _pad_poll
	sta     _movementPad
;
; inputPad = get_pad_new(0);
;
	lda     #$00
	jsr     _get_pad_new
	sta     _inputPad
;
; switch(currentGameState)
;
	lda     _currentGameState
;
; }
;
	beq     L000C
	cmp     #$01
	beq     L0009
	cmp     #$02
	beq     L000D
	jmp     L0002
;
; if (inputPad & PAD_START)
;
L000C:	lda     _inputPad
	and     #$10
	beq     L0002
;
; currentGameState = GAME_LOOP;
;
	lda     #$01
	sta     _currentGameState
;
; GameLoop();
;
	jsr     _GameLoop
;
; break;
;
	jmp     L0002
;
; UpdateColliderPositions();
;
L0009:	jsr     _UpdateColliderPositions
;
; MovePlayer();
;
	jsr     _MovePlayer
;
; DrawPlayer();
;
	jsr     _DrawPlayer
;
; CheckIfEnd();
;
	jsr     _CheckIfEnd
;
; break;
;
	jmp     L0002
;
; if (inputPad & PAD_START)
;
L000D:	lda     _inputPad
	and     #$10
	beq     L0002
;
; currentGameState = START_SCREEN;
;
	lda     #$00
	sta     _currentGameState
;
; DrawTitleScreen();
;
	jsr     _DrawTitleScreen
;
; break;
;
	jmp     L0002

.endproc

